ARM GAS  C:\Users\ARNAUD~1\AppData\Local\Temp\ccJXLAlt.s 			page 1


   1              		.cpu cortex-m4
   2              		.eabi_attribute 27, 1
   3              		.eabi_attribute 28, 1
   4              		.eabi_attribute 20, 1
   5              		.eabi_attribute 21, 1
   6              		.eabi_attribute 23, 3
   7              		.eabi_attribute 24, 1
   8              		.eabi_attribute 25, 1
   9              		.eabi_attribute 26, 1
  10              		.eabi_attribute 30, 2
  11              		.eabi_attribute 34, 1
  12              		.eabi_attribute 18, 4
  13              		.file	"choreography.c"
  14              		.text
  15              	.Ltext0:
  16              		.cfi_sections	.debug_frame
  17              		.section	.text.full_rotation,"ax",%progbits
  18              		.align	1
  19              		.p2align 4,,15
  20              		.global	full_rotation
  21              		.syntax unified
  22              		.thumb
  23              		.thumb_func
  24              		.fpu fpv4-sp-d16
  25              		.type	full_rotation, %function
  26              	full_rotation:
  27              	.LFB220:
  28              		.file 1 "choreography.c"
  29              		.loc 1 21 0
  30              		.cfi_startproc
  31              		@ args = 0, pretend = 0, frame = 8
  32              		@ frame_needed = 0, uses_anonymous_args = 0
  33              	.LVL0:
  34 0000 00B5     		push	{lr}
  35              		.cfi_def_cfa_offset 4
  36              		.cfi_offset 14, -4
  37 0002 064B     		ldr	r3, .L6
  38 0004 83B0     		sub	sp, sp, #12
  39              		.cfi_def_cfa_offset 16
  40              		.loc 1 21 0
  41 0006 1A68     		ldr	r2, [r3]
  42 0008 0192     		str	r2, [sp, #4]
  43              		.loc 1 23 0
  44 000a 019A     		ldr	r2, [sp, #4]
  45 000c 1B68     		ldr	r3, [r3]
  46 000e 9A42     		cmp	r2, r3
  47 0010 02D1     		bne	.L5
  48 0012 03B0     		add	sp, sp, #12
  49              		.cfi_remember_state
  50              		.cfi_def_cfa_offset 4
  51              		@ sp needed
  52 0014 5DF804FB 		ldr	pc, [sp], #4
  53              	.L5:
  54              		.cfi_restore_state
  55 0018 FFF7FEFF 		bl	__stack_chk_fail
  56              	.LVL1:
  57              	.L7:
ARM GAS  C:\Users\ARNAUD~1\AppData\Local\Temp\ccJXLAlt.s 			page 2


  58              		.align	2
  59              	.L6:
  60 001c 00000000 		.word	__stack_chk_guard
  61              		.cfi_endproc
  62              	.LFE220:
  63              		.size	full_rotation, .-full_rotation
  64              		.section	.text.turn_around,"ax",%progbits
  65              		.align	1
  66              		.p2align 4,,15
  67              		.global	turn_around
  68              		.syntax unified
  69              		.thumb
  70              		.thumb_func
  71              		.fpu fpv4-sp-d16
  72              		.type	turn_around, %function
  73              	turn_around:
  74              	.LFB221:
  75              		.loc 1 25 0
  76              		.cfi_startproc
  77              		@ args = 0, pretend = 0, frame = 8
  78              		@ frame_needed = 0, uses_anonymous_args = 0
  79 0000 00B5     		push	{lr}
  80              		.cfi_def_cfa_offset 4
  81              		.cfi_offset 14, -4
  82 0002 064B     		ldr	r3, .L12
  83 0004 83B0     		sub	sp, sp, #12
  84              		.cfi_def_cfa_offset 16
  85              		.loc 1 25 0
  86 0006 1A68     		ldr	r2, [r3]
  87 0008 0192     		str	r2, [sp, #4]
  88              		.loc 1 27 0
  89 000a 019A     		ldr	r2, [sp, #4]
  90 000c 1B68     		ldr	r3, [r3]
  91 000e 9A42     		cmp	r2, r3
  92 0010 02D1     		bne	.L11
  93 0012 03B0     		add	sp, sp, #12
  94              		.cfi_remember_state
  95              		.cfi_def_cfa_offset 4
  96              		@ sp needed
  97 0014 5DF804FB 		ldr	pc, [sp], #4
  98              	.L11:
  99              		.cfi_restore_state
 100 0018 FFF7FEFF 		bl	__stack_chk_fail
 101              	.LVL2:
 102              	.L13:
 103              		.align	2
 104              	.L12:
 105 001c 00000000 		.word	__stack_chk_guard
 106              		.cfi_endproc
 107              	.LFE221:
 108              		.size	turn_around, .-turn_around
 109              		.section	.text.move_forward,"ax",%progbits
 110              		.align	1
 111              		.p2align 4,,15
 112              		.global	move_forward
 113              		.syntax unified
 114              		.thumb
ARM GAS  C:\Users\ARNAUD~1\AppData\Local\Temp\ccJXLAlt.s 			page 3


 115              		.thumb_func
 116              		.fpu fpv4-sp-d16
 117              		.type	move_forward, %function
 118              	move_forward:
 119              	.LFB231:
 120              		.cfi_startproc
 121              		@ args = 0, pretend = 0, frame = 8
 122              		@ frame_needed = 0, uses_anonymous_args = 0
 123 0000 00B5     		push	{lr}
 124              		.cfi_def_cfa_offset 4
 125              		.cfi_offset 14, -4
 126 0002 064B     		ldr	r3, .L18
 127 0004 83B0     		sub	sp, sp, #12
 128              		.cfi_def_cfa_offset 16
 129 0006 1A68     		ldr	r2, [r3]
 130 0008 0192     		str	r2, [sp, #4]
 131 000a 019A     		ldr	r2, [sp, #4]
 132 000c 1B68     		ldr	r3, [r3]
 133 000e 9A42     		cmp	r2, r3
 134 0010 02D1     		bne	.L17
 135 0012 03B0     		add	sp, sp, #12
 136              		.cfi_remember_state
 137              		.cfi_def_cfa_offset 4
 138              		@ sp needed
 139 0014 5DF804FB 		ldr	pc, [sp], #4
 140              	.L17:
 141              		.cfi_restore_state
 142 0018 FFF7FEFF 		bl	__stack_chk_fail
 143              	.L19:
 144              		.align	2
 145              	.L18:
 146 001c 00000000 		.word	__stack_chk_guard
 147              		.cfi_endproc
 148              	.LFE231:
 149              		.size	move_forward, .-move_forward
 150              		.section	.text.move_backward,"ax",%progbits
 151              		.align	1
 152              		.p2align 4,,15
 153              		.global	move_backward
 154              		.syntax unified
 155              		.thumb
 156              		.thumb_func
 157              		.fpu fpv4-sp-d16
 158              		.type	move_backward, %function
 159              	move_backward:
 160              	.LFB233:
 161              		.cfi_startproc
 162              		@ args = 0, pretend = 0, frame = 8
 163              		@ frame_needed = 0, uses_anonymous_args = 0
 164 0000 00B5     		push	{lr}
 165              		.cfi_def_cfa_offset 4
 166              		.cfi_offset 14, -4
 167 0002 064B     		ldr	r3, .L24
 168 0004 83B0     		sub	sp, sp, #12
 169              		.cfi_def_cfa_offset 16
 170 0006 1A68     		ldr	r2, [r3]
 171 0008 0192     		str	r2, [sp, #4]
ARM GAS  C:\Users\ARNAUD~1\AppData\Local\Temp\ccJXLAlt.s 			page 4


 172 000a 019A     		ldr	r2, [sp, #4]
 173 000c 1B68     		ldr	r3, [r3]
 174 000e 9A42     		cmp	r2, r3
 175 0010 02D1     		bne	.L23
 176 0012 03B0     		add	sp, sp, #12
 177              		.cfi_remember_state
 178              		.cfi_def_cfa_offset 4
 179              		@ sp needed
 180 0014 5DF804FB 		ldr	pc, [sp], #4
 181              	.L23:
 182              		.cfi_restore_state
 183 0018 FFF7FEFF 		bl	__stack_chk_fail
 184              	.L25:
 185              		.align	2
 186              	.L24:
 187 001c 00000000 		.word	__stack_chk_guard
 188              		.cfi_endproc
 189              	.LFE233:
 190              		.size	move_backward, .-move_backward
 191              		.section	.text.blink_LED_1,"ax",%progbits
 192              		.align	1
 193              		.p2align 4,,15
 194              		.global	blink_LED_1
 195              		.syntax unified
 196              		.thumb
 197              		.thumb_func
 198              		.fpu fpv4-sp-d16
 199              		.type	blink_LED_1, %function
 200              	blink_LED_1:
 201              	.LFB224:
 202              		.loc 1 37 0
 203              		.cfi_startproc
 204              		@ args = 0, pretend = 0, frame = 8
 205              		@ frame_needed = 0, uses_anonymous_args = 0
 206              	.LVL3:
 207              		.loc 1 37 0
 208 0000 00B5     		push	{lr}
 209              		.cfi_def_cfa_offset 4
 210              		.cfi_offset 14, -4
 211 0002 064B     		ldr	r3, .L30
 212 0004 83B0     		sub	sp, sp, #12
 213              		.cfi_def_cfa_offset 16
 214              		.loc 1 37 0
 215 0006 1A68     		ldr	r2, [r3]
 216              	.LVL4:
 217 0008 0192     		str	r2, [sp, #4]
 218              		.loc 1 39 0
 219 000a 019A     		ldr	r2, [sp, #4]
 220 000c 1B68     		ldr	r3, [r3]
 221 000e 9A42     		cmp	r2, r3
 222 0010 02D1     		bne	.L29
 223 0012 03B0     		add	sp, sp, #12
 224              		.cfi_remember_state
 225              		.cfi_def_cfa_offset 4
 226              		@ sp needed
 227 0014 5DF804FB 		ldr	pc, [sp], #4
 228              	.L29:
ARM GAS  C:\Users\ARNAUD~1\AppData\Local\Temp\ccJXLAlt.s 			page 5


 229              		.cfi_restore_state
 230 0018 FFF7FEFF 		bl	__stack_chk_fail
 231              	.LVL5:
 232              	.L31:
 233              		.align	2
 234              	.L30:
 235 001c 00000000 		.word	__stack_chk_guard
 236              		.cfi_endproc
 237              	.LFE224:
 238              		.size	blink_LED_1, .-blink_LED_1
 239              		.section	.text.blink_LED_3,"ax",%progbits
 240              		.align	1
 241              		.p2align 4,,15
 242              		.global	blink_LED_3
 243              		.syntax unified
 244              		.thumb
 245              		.thumb_func
 246              		.fpu fpv4-sp-d16
 247              		.type	blink_LED_3, %function
 248              	blink_LED_3:
 249              	.LFB235:
 250              		.cfi_startproc
 251              		@ args = 0, pretend = 0, frame = 8
 252              		@ frame_needed = 0, uses_anonymous_args = 0
 253 0000 00B5     		push	{lr}
 254              		.cfi_def_cfa_offset 4
 255              		.cfi_offset 14, -4
 256 0002 064B     		ldr	r3, .L36
 257 0004 83B0     		sub	sp, sp, #12
 258              		.cfi_def_cfa_offset 16
 259 0006 1A68     		ldr	r2, [r3]
 260 0008 0192     		str	r2, [sp, #4]
 261 000a 019A     		ldr	r2, [sp, #4]
 262 000c 1B68     		ldr	r3, [r3]
 263 000e 9A42     		cmp	r2, r3
 264 0010 02D1     		bne	.L35
 265 0012 03B0     		add	sp, sp, #12
 266              		.cfi_remember_state
 267              		.cfi_def_cfa_offset 4
 268              		@ sp needed
 269 0014 5DF804FB 		ldr	pc, [sp], #4
 270              	.L35:
 271              		.cfi_restore_state
 272 0018 FFF7FEFF 		bl	__stack_chk_fail
 273              	.L37:
 274              		.align	2
 275              	.L36:
 276 001c 00000000 		.word	__stack_chk_guard
 277              		.cfi_endproc
 278              	.LFE235:
 279              		.size	blink_LED_3, .-blink_LED_3
 280              		.section	.text.blink_LED_5,"ax",%progbits
 281              		.align	1
 282              		.p2align 4,,15
 283              		.global	blink_LED_5
 284              		.syntax unified
 285              		.thumb
ARM GAS  C:\Users\ARNAUD~1\AppData\Local\Temp\ccJXLAlt.s 			page 6


 286              		.thumb_func
 287              		.fpu fpv4-sp-d16
 288              		.type	blink_LED_5, %function
 289              	blink_LED_5:
 290              	.LFB237:
 291              		.cfi_startproc
 292              		@ args = 0, pretend = 0, frame = 8
 293              		@ frame_needed = 0, uses_anonymous_args = 0
 294 0000 00B5     		push	{lr}
 295              		.cfi_def_cfa_offset 4
 296              		.cfi_offset 14, -4
 297 0002 064B     		ldr	r3, .L42
 298 0004 83B0     		sub	sp, sp, #12
 299              		.cfi_def_cfa_offset 16
 300 0006 1A68     		ldr	r2, [r3]
 301 0008 0192     		str	r2, [sp, #4]
 302 000a 019A     		ldr	r2, [sp, #4]
 303 000c 1B68     		ldr	r3, [r3]
 304 000e 9A42     		cmp	r2, r3
 305 0010 02D1     		bne	.L41
 306 0012 03B0     		add	sp, sp, #12
 307              		.cfi_remember_state
 308              		.cfi_def_cfa_offset 4
 309              		@ sp needed
 310 0014 5DF804FB 		ldr	pc, [sp], #4
 311              	.L41:
 312              		.cfi_restore_state
 313 0018 FFF7FEFF 		bl	__stack_chk_fail
 314              	.L43:
 315              		.align	2
 316              	.L42:
 317 001c 00000000 		.word	__stack_chk_guard
 318              		.cfi_endproc
 319              	.LFE237:
 320              		.size	blink_LED_5, .-blink_LED_5
 321              		.section	.text.blink_LED_7,"ax",%progbits
 322              		.align	1
 323              		.p2align 4,,15
 324              		.global	blink_LED_7
 325              		.syntax unified
 326              		.thumb
 327              		.thumb_func
 328              		.fpu fpv4-sp-d16
 329              		.type	blink_LED_7, %function
 330              	blink_LED_7:
 331              	.LFB239:
 332              		.cfi_startproc
 333              		@ args = 0, pretend = 0, frame = 8
 334              		@ frame_needed = 0, uses_anonymous_args = 0
 335 0000 00B5     		push	{lr}
 336              		.cfi_def_cfa_offset 4
 337              		.cfi_offset 14, -4
 338 0002 064B     		ldr	r3, .L48
 339 0004 83B0     		sub	sp, sp, #12
 340              		.cfi_def_cfa_offset 16
 341 0006 1A68     		ldr	r2, [r3]
 342 0008 0192     		str	r2, [sp, #4]
ARM GAS  C:\Users\ARNAUD~1\AppData\Local\Temp\ccJXLAlt.s 			page 7


 343 000a 019A     		ldr	r2, [sp, #4]
 344 000c 1B68     		ldr	r3, [r3]
 345 000e 9A42     		cmp	r2, r3
 346 0010 02D1     		bne	.L47
 347 0012 03B0     		add	sp, sp, #12
 348              		.cfi_remember_state
 349              		.cfi_def_cfa_offset 4
 350              		@ sp needed
 351 0014 5DF804FB 		ldr	pc, [sp], #4
 352              	.L47:
 353              		.cfi_restore_state
 354 0018 FFF7FEFF 		bl	__stack_chk_fail
 355              	.L49:
 356              		.align	2
 357              	.L48:
 358 001c 00000000 		.word	__stack_chk_guard
 359              		.cfi_endproc
 360              	.LFE239:
 361              		.size	blink_LED_7, .-blink_LED_7
 362              		.section	.text.blink_LED_FRONT,"ax",%progbits
 363              		.align	1
 364              		.p2align 4,,15
 365              		.global	blink_LED_FRONT
 366              		.syntax unified
 367              		.thumb
 368              		.thumb_func
 369              		.fpu fpv4-sp-d16
 370              		.type	blink_LED_FRONT, %function
 371              	blink_LED_FRONT:
 372              	.LFB241:
 373              		.cfi_startproc
 374              		@ args = 0, pretend = 0, frame = 8
 375              		@ frame_needed = 0, uses_anonymous_args = 0
 376 0000 00B5     		push	{lr}
 377              		.cfi_def_cfa_offset 4
 378              		.cfi_offset 14, -4
 379 0002 064B     		ldr	r3, .L54
 380 0004 83B0     		sub	sp, sp, #12
 381              		.cfi_def_cfa_offset 16
 382 0006 1A68     		ldr	r2, [r3]
 383 0008 0192     		str	r2, [sp, #4]
 384 000a 019A     		ldr	r2, [sp, #4]
 385 000c 1B68     		ldr	r3, [r3]
 386 000e 9A42     		cmp	r2, r3
 387 0010 02D1     		bne	.L53
 388 0012 03B0     		add	sp, sp, #12
 389              		.cfi_remember_state
 390              		.cfi_def_cfa_offset 4
 391              		@ sp needed
 392 0014 5DF804FB 		ldr	pc, [sp], #4
 393              	.L53:
 394              		.cfi_restore_state
 395 0018 FFF7FEFF 		bl	__stack_chk_fail
 396              	.L55:
 397              		.align	2
 398              	.L54:
 399 001c 00000000 		.word	__stack_chk_guard
ARM GAS  C:\Users\ARNAUD~1\AppData\Local\Temp\ccJXLAlt.s 			page 8


 400              		.cfi_endproc
 401              	.LFE241:
 402              		.size	blink_LED_FRONT, .-blink_LED_FRONT
 403              		.section	.text.blink_LED_BODY,"ax",%progbits
 404              		.align	1
 405              		.p2align 4,,15
 406              		.global	blink_LED_BODY
 407              		.syntax unified
 408              		.thumb
 409              		.thumb_func
 410              		.fpu fpv4-sp-d16
 411              		.type	blink_LED_BODY, %function
 412              	blink_LED_BODY:
 413              	.LFB243:
 414              		.cfi_startproc
 415              		@ args = 0, pretend = 0, frame = 8
 416              		@ frame_needed = 0, uses_anonymous_args = 0
 417 0000 00B5     		push	{lr}
 418              		.cfi_def_cfa_offset 4
 419              		.cfi_offset 14, -4
 420 0002 064B     		ldr	r3, .L60
 421 0004 83B0     		sub	sp, sp, #12
 422              		.cfi_def_cfa_offset 16
 423 0006 1A68     		ldr	r2, [r3]
 424 0008 0192     		str	r2, [sp, #4]
 425 000a 019A     		ldr	r2, [sp, #4]
 426 000c 1B68     		ldr	r3, [r3]
 427 000e 9A42     		cmp	r2, r3
 428 0010 02D1     		bne	.L59
 429 0012 03B0     		add	sp, sp, #12
 430              		.cfi_remember_state
 431              		.cfi_def_cfa_offset 4
 432              		@ sp needed
 433 0014 5DF804FB 		ldr	pc, [sp], #4
 434              	.L59:
 435              		.cfi_restore_state
 436 0018 FFF7FEFF 		bl	__stack_chk_fail
 437              	.L61:
 438              		.align	2
 439              	.L60:
 440 001c 00000000 		.word	__stack_chk_guard
 441              		.cfi_endproc
 442              	.LFE243:
 443              		.size	blink_LED_BODY, .-blink_LED_BODY
 444              		.text
 445              	.Letext0:
 446              		.file 2 "c:\\users\\arnaud wist\\projet\\robotique_mondada\\eclipse_e-puck2\\tools\\gcc-arm-none-e
 447              		.file 3 "c:\\users\\arnaud wist\\projet\\robotique_mondada\\eclipse_e-puck2\\tools\\gcc-arm-none-e
 448              		.file 4 "../../lib/e-puck2_main-processor/ChibiOS//os/rt/ports/ARMCMx/compilers/GCC/chtypes.h"
 449              		.file 5 "../../lib/e-puck2_main-processor/ChibiOS//os/rt/include/chsystypes.h"
 450              		.file 6 "../../lib/e-puck2_main-processor/ChibiOS//os/rt/include/chschd.h"
 451              		.file 7 "../../lib/e-puck2_main-processor/ChibiOS//os/ext/CMSIS/include/core_cm4.h"
 452              		.file 8 "../../lib/e-puck2_main-processor/ChibiOS//os/ext/CMSIS/ST/system_stm32f4xx.h"
 453              		.file 9 "../../lib/e-puck2_main-processor/ChibiOS//os/rt/ports/ARMCMx/chcore.h"
 454              		.file 10 "../../lib/e-puck2_main-processor/ChibiOS//os/rt/ports/ARMCMx/chcore_v7m.h"
 455              		.file 11 "../../lib/e-puck2_main-processor/ChibiOS//os/rt/include/chdebug.h"
 456              		.file 12 "../../lib/e-puck2_main-processor/ChibiOS//os/rt/include/chtm.h"
ARM GAS  C:\Users\ARNAUD~1\AppData\Local\Temp\ccJXLAlt.s 			page 9


 457              		.file 13 "../../lib/e-puck2_main-processor/ChibiOS//os/rt/include/chstats.h"
 458              		.file 14 "../../lib/e-puck2_main-processor/ChibiOS//os/rt/include/chsem.h"
 459              		.file 15 "../../lib/e-puck2_main-processor/ChibiOS//os/rt/include/chmtx.h"
 460              		.file 16 "../../lib/e-puck2_main-processor/ChibiOS//os/rt/include/chregistry.h"