ARM GAS  C:\Users\ARNAUD~1\AppData\Local\Temp\ccJXLAlt.s 			page 1


   1              		.cpu cortex-m4
   2              		.eabi_attribute 27, 1
   3              		.eabi_attribute 28, 1
   4              		.eabi_attribute 20, 1
   5              		.eabi_attribute 21, 1
   6              		.eabi_attribute 23, 3
   7              		.eabi_attribute 24, 1
   8              		.eabi_attribute 25, 1
   9              		.eabi_attribute 26, 1
  10              		.eabi_attribute 30, 2
  11              		.eabi_attribute 34, 1
  12              		.eabi_attribute 18, 4
  13              		.file	"choreography.c"
  14              		.text
  15              	.Ltext0:
  16              		.cfi_sections	.debug_frame
  17              		.section	.text.full_rotation,"ax",%progbits
  18              		.align	1
  19              		.p2align 4,,15
  20              		.global	full_rotation
  21              		.syntax unified
  22              		.thumb
  23              		.thumb_func
  24              		.fpu fpv4-sp-d16
  25              		.type	full_rotation, %function
  26              	full_rotation:
  27              	.LFB220:
  28              		.file 1 "choreography.c"
  29              		.loc 1 21 0
  30              		.cfi_startproc
  31              		@ args = 0, pretend = 0, frame = 8
  32              		@ frame_needed = 0, uses_anonymous_args = 0
  33              	.LVL0:
  34 0000 00B5     		push	{lr}
  35              		.cfi_def_cfa_offset 4
  36              		.cfi_offset 14, -4
  37 0002 064B     		ldr	r3, .L6
  38 0004 83B0     		sub	sp, sp, #12
  39              		.cfi_def_cfa_offset 16
  40              		.loc 1 21 0
  41 0006 1A68     		ldr	r2, [r3]
  42 0008 0192     		str	r2, [sp, #4]
  43              		.loc 1 23 0
  44 000a 019A     		ldr	r2, [sp, #4]
  45 000c 1B68     		ldr	r3, [r3]
  46 000e 9A42     		cmp	r2, r3
  47 0010 02D1     		bne	.L5
  48 0012 03B0     		add	sp, sp, #12
  49              		.cfi_remember_state
  50              		.cfi_def_cfa_offset 4
  51              		@ sp needed
  52 0014 5DF804FB 		ldr	pc, [sp], #4
  53              	.L5:
  54              		.cfi_restore_state
  55 0018 FFF7FEFF 		bl	__stack_chk_fail
  56              	.LVL1:
  57              	.L7:
ARM GAS  C:\Users\ARNAUD~1\AppData\Local\Temp\ccJXLAlt.s 			page 2


  58              		.align	2
  59              	.L6:
  60 001c 00000000 		.word	__stack_chk_guard
  61              		.cfi_endproc
  62              	.LFE220:
  63              		.size	full_rotation, .-full_rotation
  64              		.section	.text.turn_around,"ax",%progbits
  65              		.align	1
  66              		.p2align 4,,15
  67              		.global	turn_around
  68              		.syntax unified
  69              		.thumb
  70              		.thumb_func
  71              		.fpu fpv4-sp-d16
  72              		.type	turn_around, %function
  73              	turn_around:
  74              	.LFB221:
  75              		.loc 1 25 0
  76              		.cfi_startproc
  77              		@ args = 0, pretend = 0, frame = 8
  78              		@ frame_needed = 0, uses_anonymous_args = 0
  79 0000 00B5     		push	{lr}
  80              		.cfi_def_cfa_offset 4
  81              		.cfi_offset 14, -4
  82 0002 064B     		ldr	r3, .L12
  83 0004 83B0     		sub	sp, sp, #12
  84              		.cfi_def_cfa_offset 16
  85              		.loc 1 25 0
  86 0006 1A68     		ldr	r2, [r3]
  87 0008 0192     		str	r2, [sp, #4]
  88              		.loc 1 27 0
  89 000a 019A     		ldr	r2, [sp, #4]
  90 000c 1B68     		ldr	r3, [r3]
  91 000e 9A42     		cmp	r2, r3
  92 0010 02D1     		bne	.L11
  93 0012 03B0     		add	sp, sp, #12
  94              		.cfi_remember_state
  95              		.cfi_def_cfa_offset 4
  96              		@ sp needed
  97 0014 5DF804FB 		ldr	pc, [sp], #4
  98              	.L11:
  99              		.cfi_restore_state
 100 0018 FFF7FEFF 		bl	__stack_chk_fail
 101              	.LVL2:
 102              	.L13:
 103              		.align	2
 104              	.L12:
 105 001c 00000000 		.word	__stack_chk_guard
 106              		.cfi_endproc
 107              	.LFE221:
 108              		.size	turn_around, .-turn_around
 109              		.section	.text.move_forward,"ax",%progbits
 110              		.align	1
 111              		.p2align 4,,15
 112              		.global	move_forward
 113              		.syntax unified
 114              		.thumb
ARM GAS  C:\Users\ARNAUD~1\AppData\Local\Temp\ccJXLAlt.s 			page 3


 115              		.thumb_func
 116              		.fpu fpv4-sp-d16
 117              		.type	move_forward, %function
 118              	move_forward:
 119              	.LFB231:
 120              		.cfi_startproc
 121              		@ args = 0, pretend = 0, frame = 8
 122              		@ frame_needed = 0, uses_anonymous_args = 0
 123 0000 00B5     		push	{lr}
 124              		.cfi_def_cfa_offset 4
 125              		.cfi_offset 14, -4
 126 0002 064B     		ldr	r3, .L18
 127 0004 83B0     		sub	sp, sp, #12
 128              		.cfi_def_cfa_offset 16
 129 0006 1A68     		ldr	r2, [r3]
 130 0008 0192     		str	r2, [sp, #4]
 131 000a 019A     		ldr	r2, [sp, #4]
 132 000c 1B68     		ldr	r3, [r3]
 133 000e 9A42     		cmp	r2, r3
 134 0010 02D1     		bne	.L17
 135 0012 03B0     		add	sp, sp, #12
 136              		.cfi_remember_state
 137              		.cfi_def_cfa_offset 4
 138              		@ sp needed
 139 0014 5DF804FB 		ldr	pc, [sp], #4
 140              	.L17:
 141              		.cfi_restore_state
 142 0018 FFF7FEFF 		bl	__stack_chk_fail
 143              	.L19:
 144              		.align	2
 145              	.L18:
 146 001c 00000000 		.word	__stack_chk_guard
 147              		.cfi_endproc
 148              	.LFE231:
 149              		.size	move_forward, .-move_forward
 150              		.section	.text.move_backward,"ax",%progbits
 151              		.align	1
 152              		.p2align 4,,15
 153              		.global	move_backward
 154              		.syntax unified
 155              		.thumb
 156              		.thumb_func
 157              		.fpu fpv4-sp-d16
 158              		.type	move_backward, %function
 159              	move_backward:
 160              	.LFB233:
 161              		.cfi_startproc
 162              		@ args = 0, pretend = 0, frame = 8
 163              		@ frame_needed = 0, uses_anonymous_args = 0
 164 0000 00B5     		push	{lr}
 165              		.cfi_def_cfa_offset 4
 166              		.cfi_offset 14, -4
 167 0002 064B     		ldr	r3, .L24
 168 0004 83B0     		sub	sp, sp, #12
 169              		.cfi_def_cfa_offset 16
 170 0006 1A68     		ldr	r2, [r3]
 171 0008 0192     		str	r2, [sp, #4]
ARM GAS  C:\Users\ARNAUD~1\AppData\Local\Temp\ccJXLAlt.s 			page 4


 172 000a 019A     		ldr	r2, [sp, #4]
 173 000c 1B68     		ldr	r3, [r3]
 174 000e 9A42     		cmp	r2, r3
 175 0010 02D1     		bne	.L23
 176 0012 03B0     		add	sp, sp, #12
 177              		.cfi_remember_state
 178              		.cfi_def_cfa_offset 4
 179              		@ sp needed
 180 0014 5DF804FB 		ldr	pc, [sp], #4
 181              	.L23:
 182              		.cfi_restore_state
 183 0018 FFF7FEFF 		bl	__stack_chk_fail
 184              	.L25:
 185              		.align	2
 186              	.L24:
 187 001c 00000000 		.word	__stack_chk_guard
 188              		.cfi_endproc
 189              	.LFE233:
 190              		.size	move_backward, .-move_backward
 191              		.section	.text.blink_LED_1,"ax",%progbits
 192              		.align	1
 193              		.p2align 4,,15
 194              		.global	blink_LED_1
 195              		.syntax unified
 196              		.thumb
 197              		.thumb_func
 198              		.fpu fpv4-sp-d16
 199              		.type	blink_LED_1, %function
 200              	blink_LED_1:
 201              	.LFB224:
 202              		.loc 1 37 0
 203              		.cfi_startproc
 204              		@ args = 0, pretend = 0, frame = 8
 205              		@ frame_needed = 0, uses_anonymous_args = 0
 206              	.LVL3:
 207              		.loc 1 37 0
 208 0000 00B5     		push	{lr}
 209              		.cfi_def_cfa_offset 4
 210              		.cfi_offset 14, -4
 211 0002 064B     		ldr	r3, .L30
 212 0004 83B0     		sub	sp, sp, #12
 213              		.cfi_def_cfa_offset 16
 214              		.loc 1 37 0
 215 0006 1A68     		ldr	r2, [r3]
 216              	.LVL4:
 217 0008 0192     		str	r2, [sp, #4]
 218              		.loc 1 39 0
 219 000a 019A     		ldr	r2, [sp, #4]
 220 000c 1B68     		ldr	r3, [r3]
 221 000e 9A42     		cmp	r2, r3
 222 0010 02D1     		bne	.L29
 223 0012 03B0     		add	sp, sp, #12
 224              		.cfi_remember_state
 225              		.cfi_def_cfa_offset 4
 226              		@ sp needed
 227 0014 5DF804FB 		ldr	pc, [sp], #4
 228              	.L29:
ARM GAS  C:\Users\ARNAUD~1\AppData\Local\Temp\ccJXLAlt.s 			page 5


 229              		.cfi_restore_state
 230 0018 FFF7FEFF 		bl	__stack_chk_fail
 231              	.LVL5:
 232              	.L31:
 233              		.align	2
 234              	.L30:
 235 001c 00000000 		.word	__stack_chk_guard
 236              		.cfi_endproc
 237              	.LFE224:
 238              		.size	blink_LED_1, .-blink_LED_1
 239              		.section	.text.blink_LED_3,"ax",%progbits
 240              		.align	1
 241              		.p2align 4,,15
 242              		.global	blink_LED_3
 243              		.syntax unified
 244              		.thumb
 245              		.thumb_func
 246              		.fpu fpv4-sp-d16
 247              		.type	blink_LED_3, %function
 248              	blink_LED_3:
 249              	.LFB235:
 250              		.cfi_startproc
 251              		@ args = 0, pretend = 0, frame = 8
 252              		@ frame_needed = 0, uses_anonymous_args = 0
 253 0000 00B5     		push	{lr}
 254              		.cfi_def_cfa_offset 4
 255              		.cfi_offset 14, -4
 256 0002 064B     		ldr	r3, .L36
 257 0004 83B0     		sub	sp, sp, #12
 258              		.cfi_def_cfa_offset 16
 259 0006 1A68     		ldr	r2, [r3]
 260 0008 0192     		str	r2, [sp, #4]
 261 000a 019A     		ldr	r2, [sp, #4]
 262 000c 1B68     		ldr	r3, [r3]
 263 000e 9A42     		cmp	r2, r3
 264 0010 02D1     		bne	.L35
 265 0012 03B0     		add	sp, sp, #12
 266              		.cfi_remember_state
 267              		.cfi_def_cfa_offset 4
 268              		@ sp needed
 269 0014 5DF804FB 		ldr	pc, [sp], #4
 270              	.L35:
 271              		.cfi_restore_state
 272 0018 FFF7FEFF 		bl	__stack_chk_fail
 273              	.L37:
 274              		.align	2
 275              	.L36:
 276 001c 00000000 		.word	__stack_chk_guard
 277              		.cfi_endproc
 278              	.LFE235:
 279              		.size	blink_LED_3, .-blink_LED_3
 280              		.section	.text.blink_LED_5,"ax",%progbits
 281              		.align	1
 282              		.p2align 4,,15
 283              		.global	blink_LED_5
 284              		.syntax unified
 285              		.thumb
ARM GAS  C:\Users\ARNAUD~1\AppData\Local\Temp\ccJXLAlt.s 			page 6


 286              		.thumb_func
 287              		.fpu fpv4-sp-d16
 288              		.type	blink_LED_5, %function
 289              	blink_LED_5:
 290              	.LFB237:
 291              		.cfi_startproc
 292              		@ args = 0, pretend = 0, frame = 8
 293              		@ frame_needed = 0, uses_anonymous_args = 0
 294 0000 00B5     		push	{lr}
 295              		.cfi_def_cfa_offset 4
 296              		.cfi_offset 14, -4
 297 0002 064B     		ldr	r3, .L42
 298 0004 83B0     		sub	sp, sp, #12
 299              		.cfi_def_cfa_offset 16
 300 0006 1A68     		ldr	r2, [r3]
 301 0008 0192     		str	r2, [sp, #4]
 302 000a 019A     		ldr	r2, [sp, #4]
 303 000c 1B68     		ldr	r3, [r3]
 304 000e 9A42     		cmp	r2, r3
 305 0010 02D1     		bne	.L41
 306 0012 03B0     		add	sp, sp, #12
 307              		.cfi_remember_state
 308              		.cfi_def_cfa_offset 4
 309              		@ sp needed
 310 0014 5DF804FB 		ldr	pc, [sp], #4
 311              	.L41:
 312              		.cfi_restore_state
 313 0018 FFF7FEFF 		bl	__stack_chk_fail
 314              	.L43:
 315              		.align	2
 316              	.L42:
 317 001c 00000000 		.word	__stack_chk_guard
 318              		.cfi_endproc
 319              	.LFE237:
 320              		.size	blink_LED_5, .-blink_LED_5
 321              		.section	.text.blink_LED_7,"ax",%progbits
 322              		.align	1
 323              		.p2align 4,,15
 324              		.global	blink_LED_7
 325              		.syntax unified
 326              		.thumb
 327              		.thumb_func
 328              		.fpu fpv4-sp-d16
 329              		.type	blink_LED_7, %function
 330              	blink_LED_7:
 331              	.LFB239:
 332              		.cfi_startproc
 333              		@ args = 0, pretend = 0, frame = 8
 334              		@ frame_needed = 0, uses_anonymous_args = 0
 335 0000 00B5     		push	{lr}
 336              		.cfi_def_cfa_offset 4
 337              		.cfi_offset 14, -4
 338 0002 064B     		ldr	r3, .L48
 339 0004 83B0     		sub	sp, sp, #12
 340              		.cfi_def_cfa_offset 16
 341 0006 1A68     		ldr	r2, [r3]
 342 0008 0192     		str	r2, [sp, #4]
ARM GAS  C:\Users\ARNAUD~1\AppData\Local\Temp\ccJXLAlt.s 			page 7


 343 000a 019A     		ldr	r2, [sp, #4]
 344 000c 1B68     		ldr	r3, [r3]
 345 000e 9A42     		cmp	r2, r3
 346 0010 02D1     		bne	.L47
 347 0012 03B0     		add	sp, sp, #12
 348              		.cfi_remember_state
 349              		.cfi_def_cfa_offset 4
 350              		@ sp needed
 351 0014 5DF804FB 		ldr	pc, [sp], #4
 352              	.L47:
 353              		.cfi_restore_state
 354 0018 FFF7FEFF 		bl	__stack_chk_fail
 355              	.L49:
 356              		.align	2
 357              	.L48:
 358 001c 00000000 		.word	__stack_chk_guard
 359              		.cfi_endproc
 360              	.LFE239:
 361              		.size	blink_LED_7, .-blink_LED_7
 362              		.section	.text.blink_LED_FRONT,"ax",%progbits
 363              		.align	1
 364              		.p2align 4,,15
 365              		.global	blink_LED_FRONT
 366              		.syntax unified
 367              		.thumb
 368              		.thumb_func
 369              		.fpu fpv4-sp-d16
 370              		.type	blink_LED_FRONT, %function
 371              	blink_LED_FRONT:
 372              	.LFB241:
 373              		.cfi_startproc
 374              		@ args = 0, pretend = 0, frame = 8
 375              		@ frame_needed = 0, uses_anonymous_args = 0
 376 0000 00B5     		push	{lr}
 377              		.cfi_def_cfa_offset 4
 378              		.cfi_offset 14, -4
 379 0002 064B     		ldr	r3, .L54
 380 0004 83B0     		sub	sp, sp, #12
 381              		.cfi_def_cfa_offset 16
 382 0006 1A68     		ldr	r2, [r3]
 383 0008 0192     		str	r2, [sp, #4]
 384 000a 019A     		ldr	r2, [sp, #4]
 385 000c 1B68     		ldr	r3, [r3]
 386 000e 9A42     		cmp	r2, r3
 387 0010 02D1     		bne	.L53
 388 0012 03B0     		add	sp, sp, #12
 389              		.cfi_remember_state
 390              		.cfi_def_cfa_offset 4
 391              		@ sp needed
 392 0014 5DF804FB 		ldr	pc, [sp], #4
 393              	.L53:
 394              		.cfi_restore_state
 395 0018 FFF7FEFF 		bl	__stack_chk_fail
 396              	.L55:
 397              		.align	2
 398              	.L54:
 399 001c 00000000 		.word	__stack_chk_guard
ARM GAS  C:\Users\ARNAUD~1\AppData\Local\Temp\ccJXLAlt.s 			page 8


 400              		.cfi_endproc
 401              	.LFE241:
 402              		.size	blink_LED_FRONT, .-blink_LED_FRONT
 403              		.section	.text.blink_LED_BODY,"ax",%progbits
 404              		.align	1
 405              		.p2align 4,,15
 406              		.global	blink_LED_BODY
 407              		.syntax unified
 408              		.thumb
 409              		.thumb_func
 410              		.fpu fpv4-sp-d16
 411              		.type	blink_LED_BODY, %function
 412              	blink_LED_BODY:
 413              	.LFB243:
 414              		.cfi_startproc
 415              		@ args = 0, pretend = 0, frame = 8
 416              		@ frame_needed = 0, uses_anonymous_args = 0
 417 0000 00B5     		push	{lr}
 418              		.cfi_def_cfa_offset 4
 419              		.cfi_offset 14, -4
 420 0002 064B     		ldr	r3, .L60
 421 0004 83B0     		sub	sp, sp, #12
 422              		.cfi_def_cfa_offset 16
 423 0006 1A68     		ldr	r2, [r3]
 424 0008 0192     		str	r2, [sp, #4]
 425 000a 019A     		ldr	r2, [sp, #4]
 426 000c 1B68     		ldr	r3, [r3]
 427 000e 9A42     		cmp	r2, r3
 428 0010 02D1     		bne	.L59
 429 0012 03B0     		add	sp, sp, #12
 430              		.cfi_remember_state
 431              		.cfi_def_cfa_offset 4
 432              		@ sp needed
 433 0014 5DF804FB 		ldr	pc, [sp], #4
 434              	.L59:
 435              		.cfi_restore_state
 436 0018 FFF7FEFF 		bl	__stack_chk_fail
 437              	.L61:
 438              		.align	2
 439              	.L60:
 440 001c 00000000 		.word	__stack_chk_guard
 441              		.cfi_endproc
 442              	.LFE243:
 443              		.size	blink_LED_BODY, .-blink_LED_BODY
 444              		.text
 445              	.Letext0:
 446              		.file 2 "c:\\users\\arnaud wist\\projet\\robotique_mondada\\eclipse_e-puck2\\tools\\gcc-arm-none-e
 447              		.file 3 "c:\\users\\arnaud wist\\projet\\robotique_mondada\\eclipse_e-puck2\\tools\\gcc-arm-none-e
 448              		.file 4 "../../lib/e-puck2_main-processor/ChibiOS//os/rt/ports/ARMCMx/compilers/GCC/chtypes.h"
 449              		.file 5 "../../lib/e-puck2_main-processor/ChibiOS//os/rt/include/chsystypes.h"
 450              		.file 6 "../../lib/e-puck2_main-processor/ChibiOS//os/rt/include/chschd.h"
 451              		.file 7 "../../lib/e-puck2_main-processor/ChibiOS//os/ext/CMSIS/include/core_cm4.h"
 452              		.file 8 "../../lib/e-puck2_main-processor/ChibiOS//os/ext/CMSIS/ST/system_stm32f4xx.h"
 453              		.file 9 "../../lib/e-puck2_main-processor/ChibiOS//os/rt/ports/ARMCMx/chcore.h"
 454              		.file 10 "../../lib/e-puck2_main-processor/ChibiOS//os/rt/ports/ARMCMx/chcore_v7m.h"
 455              		.file 11 "../../lib/e-puck2_main-processor/ChibiOS//os/rt/include/chdebug.h"
 456              		.file 12 "../../lib/e-puck2_main-processor/ChibiOS//os/rt/include/chtm.h"
ARM GAS  C:\Users\ARNAUD~1\AppData\Local\Temp\ccJXLAlt.s 			page 9


 457              		.file 13 "../../lib/e-puck2_main-processor/ChibiOS//os/rt/include/chstats.h"
 458              		.file 14 "../../lib/e-puck2_main-processor/ChibiOS//os/rt/include/chsem.h"
 459              		.file 15 "../../lib/e-puck2_main-processor/ChibiOS//os/rt/include/chmtx.h"
 460              		.file 16 "../../lib/e-puck2_main-processor/ChibiOS//os/rt/include/chregistry.h"
 461              		.section	.debug_info,"",%progbits
 462              	.Ldebug_info0:
 463 0000 B50B0000 		.4byte	0xbb5
 464 0004 0400     		.2byte	0x4
 465 0006 00000000 		.4byte	.Ldebug_abbrev0
 466 000a 04       		.byte	0x4
 467 000b 01       		.uleb128 0x1
 468 000c CD020000 		.4byte	.LASF166
 469 0010 0C       		.byte	0xc
 470 0011 D4040000 		.4byte	.LASF167
 471 0015 E8010000 		.4byte	.LASF168
 472 0019 00000000 		.4byte	.Ldebug_ranges0+0
 473 001d 00000000 		.4byte	0
 474 0021 00000000 		.4byte	.Ldebug_line0
 475 0025 02       		.uleb128 0x2
 476 0026 01       		.byte	0x1
 477 0027 06       		.byte	0x6
 478 0028 5F010000 		.4byte	.LASF0
 479 002c 03       		.uleb128 0x3
 480 002d 51000000 		.4byte	.LASF3
 481 0031 02       		.byte	0x2
 482 0032 2B       		.byte	0x2b
 483 0033 37000000 		.4byte	0x37
 484 0037 02       		.uleb128 0x2
 485 0038 01       		.byte	0x1
 486 0039 08       		.byte	0x8
 487 003a 6C060000 		.4byte	.LASF1
 488 003e 02       		.uleb128 0x2
 489 003f 02       		.byte	0x2
 490 0040 05       		.byte	0x5
 491 0041 84060000 		.4byte	.LASF2
 492 0045 03       		.uleb128 0x3
 493 0046 94070000 		.4byte	.LASF4
 494 004a 02       		.byte	0x2
 495 004b 39       		.byte	0x39
 496 004c 50000000 		.4byte	0x50
 497 0050 02       		.uleb128 0x2
 498 0051 02       		.byte	0x2
 499 0052 07       		.byte	0x7
 500 0053 6B040000 		.4byte	.LASF5
 501 0057 03       		.uleb128 0x3
 502 0058 08050000 		.4byte	.LASF6
 503 005c 02       		.byte	0x2
 504 005d 4D       		.byte	0x4d
 505 005e 62000000 		.4byte	0x62
 506 0062 02       		.uleb128 0x2
 507 0063 04       		.byte	0x4
 508 0064 05       		.byte	0x5
 509 0065 C0010000 		.4byte	.LASF7
 510 0069 03       		.uleb128 0x3
 511 006a DE070000 		.4byte	.LASF8
 512 006e 02       		.byte	0x2
 513 006f 4F       		.byte	0x4f
ARM GAS  C:\Users\ARNAUD~1\AppData\Local\Temp\ccJXLAlt.s 			page 10


 514 0070 74000000 		.4byte	0x74
 515 0074 02       		.uleb128 0x2
 516 0075 04       		.byte	0x4
 517 0076 07       		.byte	0x7
 518 0077 76070000 		.4byte	.LASF9
 519 007b 02       		.uleb128 0x2
 520 007c 08       		.byte	0x8
 521 007d 05       		.byte	0x5
 522 007e 51010000 		.4byte	.LASF10
 523 0082 03       		.uleb128 0x3
 524 0083 2C050000 		.4byte	.LASF11
 525 0087 02       		.byte	0x2
 526 0088 69       		.byte	0x69
 527 0089 8D000000 		.4byte	0x8d
 528 008d 02       		.uleb128 0x2
 529 008e 08       		.byte	0x8
 530 008f 07       		.byte	0x7
 531 0090 A0000000 		.4byte	.LASF12
 532 0094 04       		.uleb128 0x4
 533 0095 04       		.byte	0x4
 534 0096 05       		.byte	0x5
 535 0097 696E7400 		.ascii	"int\000"
 536 009b 02       		.uleb128 0x2
 537 009c 04       		.byte	0x4
 538 009d 07       		.byte	0x7
 539 009e B6020000 		.4byte	.LASF13
 540 00a2 03       		.uleb128 0x3
 541 00a3 41080000 		.4byte	.LASF14
 542 00a7 03       		.byte	0x3
 543 00a8 18       		.byte	0x18
 544 00a9 2C000000 		.4byte	0x2c
 545 00ad 03       		.uleb128 0x3
 546 00ae 11040000 		.4byte	.LASF15
 547 00b2 03       		.byte	0x3
 548 00b3 24       		.byte	0x24
 549 00b4 45000000 		.4byte	0x45
 550 00b8 03       		.uleb128 0x3
 551 00b9 64060000 		.4byte	.LASF16
 552 00bd 03       		.byte	0x3
 553 00be 2C       		.byte	0x2c
 554 00bf 57000000 		.4byte	0x57
 555 00c3 05       		.uleb128 0x5
 556 00c4 B8000000 		.4byte	0xb8
 557 00c8 03       		.uleb128 0x3
 558 00c9 41070000 		.4byte	.LASF17
 559 00cd 03       		.byte	0x3
 560 00ce 30       		.byte	0x30
 561 00cf 69000000 		.4byte	0x69
 562 00d3 03       		.uleb128 0x3
 563 00d4 2F000000 		.4byte	.LASF18
 564 00d8 03       		.byte	0x3
 565 00d9 3C       		.byte	0x3c
 566 00da 82000000 		.4byte	0x82
 567 00de 02       		.uleb128 0x2
 568 00df 08       		.byte	0x8
 569 00e0 04       		.byte	0x4
 570 00e1 74050000 		.4byte	.LASF19
ARM GAS  C:\Users\ARNAUD~1\AppData\Local\Temp\ccJXLAlt.s 			page 11


 571 00e5 03       		.uleb128 0x3
 572 00e6 55050000 		.4byte	.LASF20
 573 00ea 04       		.byte	0x4
 574 00eb 45       		.byte	0x45
 575 00ec C8000000 		.4byte	0xc8
 576 00f0 03       		.uleb128 0x3
 577 00f1 2C010000 		.4byte	.LASF21
 578 00f5 04       		.byte	0x4
 579 00f6 46       		.byte	0x46
 580 00f7 D3000000 		.4byte	0xd3
 581 00fb 03       		.uleb128 0x3
 582 00fc B5060000 		.4byte	.LASF22
 583 0100 04       		.byte	0x4
 584 0101 48       		.byte	0x48
 585 0102 A2000000 		.4byte	0xa2
 586 0106 03       		.uleb128 0x3
 587 0107 C9010000 		.4byte	.LASF23
 588 010b 04       		.byte	0x4
 589 010c 49       		.byte	0x49
 590 010d A2000000 		.4byte	0xa2
 591 0111 03       		.uleb128 0x3
 592 0112 14060000 		.4byte	.LASF24
 593 0116 04       		.byte	0x4
 594 0117 4A       		.byte	0x4a
 595 0118 A2000000 		.4byte	0xa2
 596 011c 03       		.uleb128 0x3
 597 011d AC010000 		.4byte	.LASF25
 598 0121 04       		.byte	0x4
 599 0122 4B       		.byte	0x4b
 600 0123 A2000000 		.4byte	0xa2
 601 0127 03       		.uleb128 0x3
 602 0128 53060000 		.4byte	.LASF26
 603 012c 04       		.byte	0x4
 604 012d 4C       		.byte	0x4c
 605 012e C8000000 		.4byte	0xc8
 606 0132 03       		.uleb128 0x3
 607 0133 9B040000 		.4byte	.LASF27
 608 0137 04       		.byte	0x4
 609 0138 4D       		.byte	0x4d
 610 0139 B8000000 		.4byte	0xb8
 611 013d 03       		.uleb128 0x3
 612 013e FC040000 		.4byte	.LASF28
 613 0142 04       		.byte	0x4
 614 0143 4F       		.byte	0x4f
 615 0144 C8000000 		.4byte	0xc8
 616 0148 03       		.uleb128 0x3
 617 0149 A5020000 		.4byte	.LASF29
 618 014d 04       		.byte	0x4
 619 014e 51       		.byte	0x51
 620 014f B8000000 		.4byte	0xb8
 621 0153 03       		.uleb128 0x3
 622 0154 A6040000 		.4byte	.LASF30
 623 0158 04       		.byte	0x4
 624 0159 52       		.byte	0x52
 625 015a C8000000 		.4byte	0xc8
 626 015e 03       		.uleb128 0x3
 627 015f C0070000 		.4byte	.LASF31
ARM GAS  C:\Users\ARNAUD~1\AppData\Local\Temp\ccJXLAlt.s 			page 12


 628 0163 05       		.byte	0x5
 629 0164 33       		.byte	0x33
 630 0165 C8000000 		.4byte	0xc8
 631 0169 05       		.uleb128 0x5
 632 016a 5E010000 		.4byte	0x15e
 633 016e 03       		.uleb128 0x3
 634 016f AB070000 		.4byte	.LASF32
 635 0173 05       		.byte	0x5
 636 0174 3F       		.byte	0x3f
 637 0175 79010000 		.4byte	0x179
 638 0179 06       		.uleb128 0x6
 639 017a 55040000 		.4byte	.LASF56
 640 017e 68       		.byte	0x68
 641 017f 06       		.byte	0x6
 642 0180 C2       		.byte	0xc2
 643 0181 97020000 		.4byte	0x297
 644 0185 07       		.uleb128 0x7
 645 0186 AE060000 		.4byte	.LASF33
 646 018a 06       		.byte	0x6
 647 018b C3       		.byte	0xc3
 648 018c A2020000 		.4byte	0x2a2
 649 0190 00       		.byte	0
 650 0191 07       		.uleb128 0x7
 651 0192 4C060000 		.4byte	.LASF34
 652 0196 06       		.byte	0x6
 653 0197 C5       		.byte	0xc5
 654 0198 A2020000 		.4byte	0x2a2
 655 019c 04       		.byte	0x4
 656 019d 07       		.uleb128 0x7
 657 019e 35010000 		.4byte	.LASF35
 658 01a2 06       		.byte	0x6
 659 01a3 C7       		.byte	0xc7
 660 01a4 27010000 		.4byte	0x127
 661 01a8 08       		.byte	0x8
 662 01a9 07       		.uleb128 0x7
 663 01aa BC050000 		.4byte	.LASF36
 664 01ae 06       		.byte	0x6
 665 01af C8       		.byte	0xc8
 666 01b0 1B050000 		.4byte	0x51b
 667 01b4 0C       		.byte	0xc
 668 01b5 07       		.uleb128 0x7
 669 01b6 D8010000 		.4byte	.LASF37
 670 01ba 06       		.byte	0x6
 671 01bb CA       		.byte	0xca
 672 01bc A2020000 		.4byte	0x2a2
 673 01c0 10       		.byte	0x10
 674 01c1 07       		.uleb128 0x7
 675 01c2 AE050000 		.4byte	.LASF38
 676 01c6 06       		.byte	0x6
 677 01c7 CB       		.byte	0xcb
 678 01c8 A2020000 		.4byte	0x2a2
 679 01cc 14       		.byte	0x14
 680 01cd 07       		.uleb128 0x7
 681 01ce 63080000 		.4byte	.LASF39
 682 01d2 06       		.byte	0x6
 683 01d3 D2       		.byte	0xd2
 684 01d4 91080000 		.4byte	0x891
ARM GAS  C:\Users\ARNAUD~1\AppData\Local\Temp\ccJXLAlt.s 			page 13


 685 01d8 18       		.byte	0x18
 686 01d9 07       		.uleb128 0x7
 687 01da AB020000 		.4byte	.LASF40
 688 01de 06       		.byte	0x6
 689 01df D8       		.byte	0xd8
 690 01e0 A8080000 		.4byte	0x8a8
 691 01e4 1C       		.byte	0x1c
 692 01e5 07       		.uleb128 0x7
 693 01e6 8E060000 		.4byte	.LASF41
 694 01ea 06       		.byte	0x6
 695 01eb DD       		.byte	0xdd
 696 01ec 06010000 		.4byte	0x106
 697 01f0 20       		.byte	0x20
 698 01f1 07       		.uleb128 0x7
 699 01f2 CC060000 		.4byte	.LASF42
 700 01f6 06       		.byte	0x6
 701 01f7 E1       		.byte	0xe1
 702 01f8 FB000000 		.4byte	0xfb
 703 01fc 21       		.byte	0x21
 704 01fd 07       		.uleb128 0x7
 705 01fe 23080000 		.4byte	.LASF43
 706 0202 06       		.byte	0x6
 707 0203 E6       		.byte	0xe6
 708 0204 11010000 		.4byte	0x111
 709 0208 22       		.byte	0x22
 710 0209 07       		.uleb128 0x7
 711 020a 96060000 		.4byte	.LASF44
 712 020e 06       		.byte	0x6
 713 020f EC       		.byte	0xec
 714 0210 1C010000 		.4byte	0x11c
 715 0214 23       		.byte	0x23
 716 0215 07       		.uleb128 0x7
 717 0216 2A040000 		.4byte	.LASF45
 718 021a 06       		.byte	0x6
 719 021b F3       		.byte	0xf3
 720 021c 69010000 		.4byte	0x169
 721 0220 24       		.byte	0x24
 722 0221 08       		.uleb128 0x8
 723 0222 705F7500 		.ascii	"p_u\000"
 724 0226 06       		.byte	0x6
 725 0227 3101     		.2byte	0x131
 726 0229 C0070000 		.4byte	0x7c0
 727 022d 28       		.byte	0x28
 728 022e 09       		.uleb128 0x9
 729 022f 4B050000 		.4byte	.LASF46
 730 0233 06       		.byte	0x6
 731 0234 3601     		.2byte	0x136
 732 0236 A8020000 		.4byte	0x2a8
 733 023a 2C       		.byte	0x2c
 734 023b 09       		.uleb128 0x9
 735 023c 41040000 		.4byte	.LASF47
 736 0240 06       		.byte	0x6
 737 0241 3C01     		.2byte	0x13c
 738 0243 CC020000 		.4byte	0x2cc
 739 0247 30       		.byte	0x30
 740 0248 09       		.uleb128 0x9
 741 0249 02080000 		.4byte	.LASF48
ARM GAS  C:\Users\ARNAUD~1\AppData\Local\Temp\ccJXLAlt.s 			page 14


 742 024d 06       		.byte	0x6
 743 024e 4001     		.2byte	0x140
 744 0250 32010000 		.4byte	0x132
 745 0254 38       		.byte	0x38
 746 0255 09       		.uleb128 0x9
 747 0256 28070000 		.4byte	.LASF49
 748 025a 06       		.byte	0x6
 749 025b 4601     		.2byte	0x146
 750 025d 3D010000 		.4byte	0x13d
 751 0261 3C       		.byte	0x3c
 752 0262 09       		.uleb128 0x9
 753 0263 7A060000 		.4byte	.LASF50
 754 0267 06       		.byte	0x6
 755 0268 4D01     		.2byte	0x14d
 756 026a 8B080000 		.4byte	0x88b
 757 026e 40       		.byte	0x40
 758 026f 09       		.uleb128 0x9
 759 0270 CA070000 		.4byte	.LASF51
 760 0274 06       		.byte	0x6
 761 0275 5101     		.2byte	0x151
 762 0277 27010000 		.4byte	0x127
 763 027b 44       		.byte	0x44
 764 027c 09       		.uleb128 0x9
 765 027d 88010000 		.4byte	.LASF52
 766 0281 06       		.byte	0x6
 767 0282 5801     		.2byte	0x158
 768 0284 7F030000 		.4byte	0x37f
 769 0288 48       		.byte	0x48
 770 0289 09       		.uleb128 0x9
 771 028a D4060000 		.4byte	.LASF53
 772 028e 06       		.byte	0x6
 773 028f 5E01     		.2byte	0x15e
 774 0291 71070000 		.4byte	0x771
 775 0295 50       		.byte	0x50
 776 0296 00       		.byte	0
 777 0297 03       		.uleb128 0x3
 778 0298 49080000 		.4byte	.LASF54
 779 029c 05       		.byte	0x5
 780 029d 44       		.byte	0x44
 781 029e A2020000 		.4byte	0x2a2
 782 02a2 0A       		.uleb128 0xa
 783 02a3 04       		.byte	0x4
 784 02a4 6E010000 		.4byte	0x16e
 785 02a8 03       		.uleb128 0x3
 786 02a9 1D050000 		.4byte	.LASF55
 787 02ad 05       		.byte	0x5
 788 02ae 49       		.byte	0x49
 789 02af B3020000 		.4byte	0x2b3
 790 02b3 06       		.uleb128 0x6
 791 02b4 5E070000 		.4byte	.LASF57
 792 02b8 04       		.byte	0x4
 793 02b9 06       		.byte	0x6
 794 02ba B0       		.byte	0xb0
 795 02bb CC020000 		.4byte	0x2cc
 796 02bf 07       		.uleb128 0x7
 797 02c0 AE060000 		.4byte	.LASF33
 798 02c4 06       		.byte	0x6
ARM GAS  C:\Users\ARNAUD~1\AppData\Local\Temp\ccJXLAlt.s 			page 15


 799 02c5 B1       		.byte	0xb1
 800 02c6 A2020000 		.4byte	0x2a2
 801 02ca 00       		.byte	0
 802 02cb 00       		.byte	0
 803 02cc 03       		.uleb128 0x3
 804 02cd DC060000 		.4byte	.LASF58
 805 02d1 05       		.byte	0x5
 806 02d2 50       		.byte	0x50
 807 02d3 D7020000 		.4byte	0x2d7
 808 02d7 06       		.uleb128 0x6
 809 02d8 67000000 		.4byte	.LASF59
 810 02dc 08       		.byte	0x8
 811 02dd 06       		.byte	0x6
 812 02de B7       		.byte	0xb7
 813 02df FC020000 		.4byte	0x2fc
 814 02e3 07       		.uleb128 0x7
 815 02e4 AE060000 		.4byte	.LASF33
 816 02e8 06       		.byte	0x6
 817 02e9 B8       		.byte	0xb8
 818 02ea A2020000 		.4byte	0x2a2
 819 02ee 00       		.byte	0
 820 02ef 07       		.uleb128 0x7
 821 02f0 4C060000 		.4byte	.LASF34
 822 02f4 06       		.byte	0x6
 823 02f5 B9       		.byte	0xb9
 824 02f6 A2020000 		.4byte	0x2a2
 825 02fa 04       		.byte	0x4
 826 02fb 00       		.byte	0
 827 02fc 03       		.uleb128 0x3
 828 02fd 0D000000 		.4byte	.LASF60
 829 0301 05       		.byte	0x5
 830 0302 57       		.byte	0x57
 831 0303 07030000 		.4byte	0x307
 832 0307 0B       		.uleb128 0xb
 833 0308 EE040000 		.4byte	.LASF61
 834 030c 1C       		.byte	0x1c
 835 030d 06       		.byte	0x6
 836 030e 9001     		.2byte	0x190
 837 0310 63030000 		.4byte	0x363
 838 0314 09       		.uleb128 0x9
 839 0315 56070000 		.4byte	.LASF62
 840 0319 06       		.byte	0x6
 841 031a 9101     		.2byte	0x191
 842 031c CC020000 		.4byte	0x2cc
 843 0320 00       		.byte	0
 844 0321 09       		.uleb128 0x9
 845 0322 A0060000 		.4byte	.LASF63
 846 0326 06       		.byte	0x6
 847 0327 9201     		.2byte	0x192
 848 0329 27010000 		.4byte	0x127
 849 032d 08       		.byte	0x8
 850 032e 09       		.uleb128 0x9
 851 032f B6050000 		.4byte	.LASF64
 852 0333 06       		.byte	0x6
 853 0334 9401     		.2byte	0x194
 854 0336 1B050000 		.4byte	0x51b
 855 033a 0C       		.byte	0xc
ARM GAS  C:\Users\ARNAUD~1\AppData\Local\Temp\ccJXLAlt.s 			page 16


 856 033b 09       		.uleb128 0x9
 857 033c 56020000 		.4byte	.LASF65
 858 0340 06       		.byte	0x6
 859 0341 9701     		.2byte	0x197
 860 0343 A2020000 		.4byte	0x2a2
 861 0347 10       		.byte	0x10
 862 0348 09       		.uleb128 0x9
 863 0349 DD050000 		.4byte	.LASF66
 864 034d 06       		.byte	0x6
 865 034e 9801     		.2byte	0x198
 866 0350 A2020000 		.4byte	0x2a2
 867 0354 14       		.byte	0x14
 868 0355 09       		.uleb128 0x9
 869 0356 D3050000 		.4byte	.LASF67
 870 035a 06       		.byte	0x6
 871 035b 9B01     		.2byte	0x19b
 872 035d A2020000 		.4byte	0x2a2
 873 0361 18       		.byte	0x18
 874 0362 00       		.byte	0
 875 0363 03       		.uleb128 0x3
 876 0364 D5070000 		.4byte	.LASF68
 877 0368 05       		.byte	0x5
 878 0369 5C       		.byte	0x5c
 879 036a 6E030000 		.4byte	0x36e
 880 036e 0A       		.uleb128 0xa
 881 036f 04       		.byte	0x4
 882 0370 74030000 		.4byte	0x374
 883 0374 0C       		.uleb128 0xc
 884 0375 7F030000 		.4byte	0x37f
 885 0379 0D       		.uleb128 0xd
 886 037a 7F030000 		.4byte	0x37f
 887 037e 00       		.byte	0
 888 037f 0E       		.uleb128 0xe
 889 0380 04       		.byte	0x4
 890 0381 03       		.uleb128 0x3
 891 0382 3C060000 		.4byte	.LASF69
 892 0386 05       		.byte	0x5
 893 0387 61       		.byte	0x61
 894 0388 8C030000 		.4byte	0x38c
 895 038c 0B       		.uleb128 0xb
 896 038d EC060000 		.4byte	.LASF70
 897 0391 14       		.byte	0x14
 898 0392 06       		.byte	0x6
 899 0393 6B01     		.2byte	0x16b
 900 0395 DB030000 		.4byte	0x3db
 901 0399 09       		.uleb128 0x9
 902 039a 85020000 		.4byte	.LASF71
 903 039e 06       		.byte	0x6
 904 039f 6C01     		.2byte	0x16c
 905 03a1 AE080000 		.4byte	0x8ae
 906 03a5 00       		.byte	0
 907 03a6 09       		.uleb128 0x9
 908 03a7 67020000 		.4byte	.LASF72
 909 03ab 06       		.byte	0x6
 910 03ac 6D01     		.2byte	0x16d
 911 03ae AE080000 		.4byte	0x8ae
 912 03b2 04       		.byte	0x4
ARM GAS  C:\Users\ARNAUD~1\AppData\Local\Temp\ccJXLAlt.s 			page 17


 913 03b3 09       		.uleb128 0x9
 914 03b4 38040000 		.4byte	.LASF73
 915 03b8 06       		.byte	0x6
 916 03b9 6E01     		.2byte	0x16e
 917 03bb 5E010000 		.4byte	0x15e
 918 03bf 08       		.byte	0x8
 919 03c0 09       		.uleb128 0x9
 920 03c1 C2080000 		.4byte	.LASF74
 921 03c5 06       		.byte	0x6
 922 03c6 6F01     		.2byte	0x16f
 923 03c8 63030000 		.4byte	0x363
 924 03cc 0C       		.byte	0xc
 925 03cd 09       		.uleb128 0x9
 926 03ce 08080000 		.4byte	.LASF75
 927 03d2 06       		.byte	0x6
 928 03d3 7101     		.2byte	0x171
 929 03d5 7F030000 		.4byte	0x37f
 930 03d9 10       		.byte	0x10
 931 03da 00       		.byte	0
 932 03db 03       		.uleb128 0x3
 933 03dc 09010000 		.4byte	.LASF76
 934 03e0 05       		.byte	0x5
 935 03e1 66       		.byte	0x66
 936 03e2 E6030000 		.4byte	0x3e6
 937 03e6 0B       		.uleb128 0xb
 938 03e7 5D050000 		.4byte	.LASF77
 939 03eb 10       		.byte	0x10
 940 03ec 06       		.byte	0x6
 941 03ed 7B01     		.2byte	0x17b
 942 03ef 28040000 		.4byte	0x428
 943 03f3 09       		.uleb128 0x9
 944 03f4 85020000 		.4byte	.LASF71
 945 03f8 06       		.byte	0x6
 946 03f9 7C01     		.2byte	0x17c
 947 03fb AE080000 		.4byte	0x8ae
 948 03ff 00       		.byte	0
 949 0400 09       		.uleb128 0x9
 950 0401 67020000 		.4byte	.LASF72
 951 0405 06       		.byte	0x6
 952 0406 7E01     		.2byte	0x17e
 953 0408 AE080000 		.4byte	0x8ae
 954 040c 04       		.byte	0x4
 955 040d 09       		.uleb128 0x9
 956 040e 38040000 		.4byte	.LASF73
 957 0412 06       		.byte	0x6
 958 0413 8001     		.2byte	0x180
 959 0415 5E010000 		.4byte	0x15e
 960 0419 08       		.byte	0x8
 961 041a 09       		.uleb128 0x9
 962 041b 6A080000 		.4byte	.LASF78
 963 041f 06       		.byte	0x6
 964 0420 8201     		.2byte	0x182
 965 0422 69010000 		.4byte	0x169
 966 0426 0C       		.byte	0xc
 967 0427 00       		.byte	0
 968 0428 03       		.uleb128 0x3
 969 0429 78000000 		.4byte	.LASF79
ARM GAS  C:\Users\ARNAUD~1\AppData\Local\Temp\ccJXLAlt.s 			page 18


 970 042d 05       		.byte	0x5
 971 042e 6B       		.byte	0x6b
 972 042f 33040000 		.4byte	0x433
 973 0433 0F       		.uleb128 0xf
 974 0434 6F020000 		.4byte	.LASF80
 975 0438 1404     		.2byte	0x414
 976 043a 06       		.byte	0x6
 977 043b A201     		.2byte	0x1a2
 978 043d 76040000 		.4byte	0x476
 979 0441 09       		.uleb128 0x9
 980 0442 E9070000 		.4byte	.LASF81
 981 0446 06       		.byte	0x6
 982 0447 AA01     		.2byte	0x1aa
 983 0449 97080000 		.4byte	0x897
 984 044d 00       		.byte	0
 985 044e 09       		.uleb128 0x9
 986 044f 2A080000 		.4byte	.LASF82
 987 0453 06       		.byte	0x6
 988 0454 AF01     		.2byte	0x1af
 989 0456 48010000 		.4byte	0x148
 990 045a 04       		.byte	0x4
 991 045b 09       		.uleb128 0x9
 992 045c 8D020000 		.4byte	.LASF83
 993 0460 06       		.byte	0x6
 994 0461 B301     		.2byte	0x1b3
 995 0463 48010000 		.4byte	0x148
 996 0467 08       		.byte	0x8
 997 0468 09       		.uleb128 0x9
 998 0469 75080000 		.4byte	.LASF84
 999 046d 06       		.byte	0x6
 1000 046e B901     		.2byte	0x1b9
 1001 0470 03070000 		.4byte	0x703
 1002 0474 0C       		.byte	0xc
 1003 0475 00       		.byte	0
 1004 0476 03       		.uleb128 0x3
 1005 0477 AD040000 		.4byte	.LASF85
 1006 047b 05       		.byte	0x5
 1007 047c 70       		.byte	0x70
 1008 047d 81040000 		.4byte	0x481
 1009 0481 0F       		.uleb128 0xf
 1010 0482 B6010000 		.4byte	.LASF86
 1011 0486 7006     		.2byte	0x670
 1012 0488 06       		.byte	0x6
 1013 0489 C201     		.2byte	0x1c2
 1014 048b EE040000 		.4byte	0x4ee
 1015 048f 09       		.uleb128 0x9
 1016 0490 3B080000 		.4byte	.LASF87
 1017 0494 06       		.byte	0x6
 1018 0495 C601     		.2byte	0x1c6
 1019 0497 FC020000 		.4byte	0x2fc
 1020 049b 00       		.byte	0
 1021 049c 09       		.uleb128 0x9
 1022 049d A5010000 		.4byte	.LASF88
 1023 04a1 06       		.byte	0x6
 1024 04a2 CA01     		.2byte	0x1ca
 1025 04a4 DB030000 		.4byte	0x3db
 1026 04a8 1C       		.byte	0x1c
ARM GAS  C:\Users\ARNAUD~1\AppData\Local\Temp\ccJXLAlt.s 			page 19


 1027 04a9 08       		.uleb128 0x8
 1028 04aa 64626700 		.ascii	"dbg\000"
 1029 04ae 06       		.byte	0x6
 1030 04af CE01     		.2byte	0x1ce
 1031 04b1 28040000 		.4byte	0x428
 1032 04b5 2C       		.byte	0x2c
 1033 04b6 10       		.uleb128 0x10
 1034 04b7 EE000000 		.4byte	.LASF89
 1035 04bb 06       		.byte	0x6
 1036 04bc D201     		.2byte	0x1d2
 1037 04be 6E010000 		.4byte	0x16e
 1038 04c2 4004     		.2byte	0x440
 1039 04c4 11       		.uleb128 0x11
 1040 04c5 746D00   		.ascii	"tm\000"
 1041 04c8 06       		.byte	0x6
 1042 04c9 D701     		.2byte	0x1d7
 1043 04cb 23070000 		.4byte	0x723
 1044 04cf A804     		.2byte	0x4a8
 1045 04d1 10       		.uleb128 0x10
 1046 04d2 38000000 		.4byte	.LASF90
 1047 04d6 06       		.byte	0x6
 1048 04d7 DD01     		.2byte	0x1dd
 1049 04d9 B5070000 		.4byte	0x7b5
 1050 04dd B004     		.2byte	0x4b0
 1051 04df 10       		.uleb128 0x10
 1052 04e0 96020000 		.4byte	.LASF91
 1053 04e4 06       		.byte	0x6
 1054 04e5 E301     		.2byte	0x1e3
 1055 04e7 B4080000 		.4byte	0x8b4
 1056 04eb E804     		.2byte	0x4e8
 1057 04ed 00       		.byte	0
 1058 04ee 12       		.uleb128 0x12
 1059 04ef 1F010000 		.4byte	.LASF92
 1060 04f3 07       		.byte	0x7
 1061 04f4 A706     		.2byte	0x6a7
 1062 04f6 C3000000 		.4byte	0xc3
 1063 04fa 13       		.uleb128 0x13
 1064 04fb 1A040000 		.4byte	.LASF93
 1065 04ff 08       		.byte	0x8
 1066 0500 4C       		.byte	0x4c
 1067 0501 C8000000 		.4byte	0xc8
 1068 0505 03       		.uleb128 0x3
 1069 0506 5E020000 		.4byte	.LASF94
 1070 050a 09       		.byte	0x9
 1071 050b 65       		.byte	0x65
 1072 050c 7F030000 		.4byte	0x37f
 1073 0510 03       		.uleb128 0x3
 1074 0511 12050000 		.4byte	.LASF95
 1075 0515 09       		.byte	0x9
 1076 0516 6D       		.byte	0x6d
 1077 0517 D3000000 		.4byte	0xd3
 1078 051b 06       		.uleb128 0x6
 1079 051c FA070000 		.4byte	.LASF96
 1080 0520 04       		.byte	0x4
 1081 0521 09       		.byte	0x9
 1082 0522 89       		.byte	0x89
 1083 0523 34050000 		.4byte	0x534
ARM GAS  C:\Users\ARNAUD~1\AppData\Local\Temp\ccJXLAlt.s 			page 20


 1084 0527 14       		.uleb128 0x14
 1085 0528 72313300 		.ascii	"r13\000"
 1086 052c 09       		.byte	0x9
 1087 052d 8A       		.byte	0x8a
 1088 052e 75060000 		.4byte	0x675
 1089 0532 00       		.byte	0
 1090 0533 00       		.byte	0
 1091 0534 06       		.uleb128 0x6
 1092 0535 5B000000 		.4byte	.LASF97
 1093 0539 64       		.byte	0x64
 1094 053a 0A       		.byte	0xa
 1095 053b F4       		.byte	0xf4
 1096 053c 75060000 		.4byte	0x675
 1097 0540 14       		.uleb128 0x14
 1098 0541 73313600 		.ascii	"s16\000"
 1099 0545 0A       		.byte	0xa
 1100 0546 F6       		.byte	0xf6
 1101 0547 05050000 		.4byte	0x505
 1102 054b 00       		.byte	0
 1103 054c 14       		.uleb128 0x14
 1104 054d 73313700 		.ascii	"s17\000"
 1105 0551 0A       		.byte	0xa
 1106 0552 F7       		.byte	0xf7
 1107 0553 05050000 		.4byte	0x505
 1108 0557 04       		.byte	0x4
 1109 0558 14       		.uleb128 0x14
 1110 0559 73313800 		.ascii	"s18\000"
 1111 055d 0A       		.byte	0xa
 1112 055e F8       		.byte	0xf8
 1113 055f 05050000 		.4byte	0x505
 1114 0563 08       		.byte	0x8
 1115 0564 14       		.uleb128 0x14
 1116 0565 73313900 		.ascii	"s19\000"
 1117 0569 0A       		.byte	0xa
 1118 056a F9       		.byte	0xf9
 1119 056b 05050000 		.4byte	0x505
 1120 056f 0C       		.byte	0xc
 1121 0570 14       		.uleb128 0x14
 1122 0571 73323000 		.ascii	"s20\000"
 1123 0575 0A       		.byte	0xa
 1124 0576 FA       		.byte	0xfa
 1125 0577 05050000 		.4byte	0x505
 1126 057b 10       		.byte	0x10
 1127 057c 14       		.uleb128 0x14
 1128 057d 73323100 		.ascii	"s21\000"
 1129 0581 0A       		.byte	0xa
 1130 0582 FB       		.byte	0xfb
 1131 0583 05050000 		.4byte	0x505
 1132 0587 14       		.byte	0x14
 1133 0588 14       		.uleb128 0x14
 1134 0589 73323200 		.ascii	"s22\000"
 1135 058d 0A       		.byte	0xa
 1136 058e FC       		.byte	0xfc
 1137 058f 05050000 		.4byte	0x505
 1138 0593 18       		.byte	0x18
 1139 0594 14       		.uleb128 0x14
 1140 0595 73323300 		.ascii	"s23\000"
ARM GAS  C:\Users\ARNAUD~1\AppData\Local\Temp\ccJXLAlt.s 			page 21


 1141 0599 0A       		.byte	0xa
 1142 059a FD       		.byte	0xfd
 1143 059b 05050000 		.4byte	0x505
 1144 059f 1C       		.byte	0x1c
 1145 05a0 14       		.uleb128 0x14
 1146 05a1 73323400 		.ascii	"s24\000"
 1147 05a5 0A       		.byte	0xa
 1148 05a6 FE       		.byte	0xfe
 1149 05a7 05050000 		.4byte	0x505
 1150 05ab 20       		.byte	0x20
 1151 05ac 14       		.uleb128 0x14
 1152 05ad 73323500 		.ascii	"s25\000"
 1153 05b1 0A       		.byte	0xa
 1154 05b2 FF       		.byte	0xff
 1155 05b3 05050000 		.4byte	0x505
 1156 05b7 24       		.byte	0x24
 1157 05b8 08       		.uleb128 0x8
 1158 05b9 73323600 		.ascii	"s26\000"
 1159 05bd 0A       		.byte	0xa
 1160 05be 0001     		.2byte	0x100
 1161 05c0 05050000 		.4byte	0x505
 1162 05c4 28       		.byte	0x28
 1163 05c5 08       		.uleb128 0x8
 1164 05c6 73323700 		.ascii	"s27\000"
 1165 05ca 0A       		.byte	0xa
 1166 05cb 0101     		.2byte	0x101
 1167 05cd 05050000 		.4byte	0x505
 1168 05d1 2C       		.byte	0x2c
 1169 05d2 08       		.uleb128 0x8
 1170 05d3 73323800 		.ascii	"s28\000"
 1171 05d7 0A       		.byte	0xa
 1172 05d8 0201     		.2byte	0x102
 1173 05da 05050000 		.4byte	0x505
 1174 05de 30       		.byte	0x30
 1175 05df 08       		.uleb128 0x8
 1176 05e0 73323900 		.ascii	"s29\000"
 1177 05e4 0A       		.byte	0xa
 1178 05e5 0301     		.2byte	0x103
 1179 05e7 05050000 		.4byte	0x505
 1180 05eb 34       		.byte	0x34
 1181 05ec 08       		.uleb128 0x8
 1182 05ed 73333000 		.ascii	"s30\000"
 1183 05f1 0A       		.byte	0xa
 1184 05f2 0401     		.2byte	0x104
 1185 05f4 05050000 		.4byte	0x505
 1186 05f8 38       		.byte	0x38
 1187 05f9 08       		.uleb128 0x8
 1188 05fa 73333100 		.ascii	"s31\000"
 1189 05fe 0A       		.byte	0xa
 1190 05ff 0501     		.2byte	0x105
 1191 0601 05050000 		.4byte	0x505
 1192 0605 3C       		.byte	0x3c
 1193 0606 08       		.uleb128 0x8
 1194 0607 723400   		.ascii	"r4\000"
 1195 060a 0A       		.byte	0xa
 1196 060b 0701     		.2byte	0x107
 1197 060d 05050000 		.4byte	0x505
ARM GAS  C:\Users\ARNAUD~1\AppData\Local\Temp\ccJXLAlt.s 			page 22


 1198 0611 40       		.byte	0x40
 1199 0612 08       		.uleb128 0x8
 1200 0613 723500   		.ascii	"r5\000"
 1201 0616 0A       		.byte	0xa
 1202 0617 0801     		.2byte	0x108
 1203 0619 05050000 		.4byte	0x505
 1204 061d 44       		.byte	0x44
 1205 061e 08       		.uleb128 0x8
 1206 061f 723600   		.ascii	"r6\000"
 1207 0622 0A       		.byte	0xa
 1208 0623 0901     		.2byte	0x109
 1209 0625 05050000 		.4byte	0x505
 1210 0629 48       		.byte	0x48
 1211 062a 08       		.uleb128 0x8
 1212 062b 723700   		.ascii	"r7\000"
 1213 062e 0A       		.byte	0xa
 1214 062f 0A01     		.2byte	0x10a
 1215 0631 05050000 		.4byte	0x505
 1216 0635 4C       		.byte	0x4c
 1217 0636 08       		.uleb128 0x8
 1218 0637 723800   		.ascii	"r8\000"
 1219 063a 0A       		.byte	0xa
 1220 063b 0B01     		.2byte	0x10b
 1221 063d 05050000 		.4byte	0x505
 1222 0641 50       		.byte	0x50
 1223 0642 08       		.uleb128 0x8
 1224 0643 723900   		.ascii	"r9\000"
 1225 0646 0A       		.byte	0xa
 1226 0647 0C01     		.2byte	0x10c
 1227 0649 05050000 		.4byte	0x505
 1228 064d 54       		.byte	0x54
 1229 064e 08       		.uleb128 0x8
 1230 064f 72313000 		.ascii	"r10\000"
 1231 0653 0A       		.byte	0xa
 1232 0654 0D01     		.2byte	0x10d
 1233 0656 05050000 		.4byte	0x505
 1234 065a 58       		.byte	0x58
 1235 065b 08       		.uleb128 0x8
 1236 065c 72313100 		.ascii	"r11\000"
 1237 0660 0A       		.byte	0xa
 1238 0661 0E01     		.2byte	0x10e
 1239 0663 05050000 		.4byte	0x505
 1240 0667 5C       		.byte	0x5c
 1241 0668 08       		.uleb128 0x8
 1242 0669 6C7200   		.ascii	"lr\000"
 1243 066c 0A       		.byte	0xa
 1244 066d 0F01     		.2byte	0x10f
 1245 066f 05050000 		.4byte	0x505
 1246 0673 60       		.byte	0x60
 1247 0674 00       		.byte	0
 1248 0675 0A       		.uleb128 0xa
 1249 0676 04       		.byte	0x4
 1250 0677 34050000 		.4byte	0x534
 1251 067b 15       		.uleb128 0x15
 1252 067c 10       		.byte	0x10
 1253 067d 0B       		.byte	0xb
 1254 067e 51       		.byte	0x51
ARM GAS  C:\Users\ARNAUD~1\AppData\Local\Temp\ccJXLAlt.s 			page 23


 1255 067f B4060000 		.4byte	0x6b4
 1256 0683 07       		.uleb128 0x7
 1257 0684 1A000000 		.4byte	.LASF98
 1258 0688 0B       		.byte	0xb
 1259 0689 55       		.byte	0x55
 1260 068a 5E010000 		.4byte	0x15e
 1261 068e 00       		.byte	0
 1262 068f 07       		.uleb128 0x7
 1263 0690 D2010000 		.4byte	.LASF99
 1264 0694 0B       		.byte	0xb
 1265 0695 59       		.byte	0x59
 1266 0696 A2020000 		.4byte	0x2a2
 1267 069a 04       		.byte	0x4
 1268 069b 07       		.uleb128 0x7
 1269 069c AA080000 		.4byte	.LASF100
 1270 06a0 0B       		.byte	0xb
 1271 06a1 5D       		.byte	0x5d
 1272 06a2 7F030000 		.4byte	0x37f
 1273 06a6 08       		.byte	0x8
 1274 06a7 07       		.uleb128 0x7
 1275 06a8 32080000 		.4byte	.LASF101
 1276 06ac 0B       		.byte	0xb
 1277 06ad 61       		.byte	0x61
 1278 06ae A2000000 		.4byte	0xa2
 1279 06b2 0C       		.byte	0xc
 1280 06b3 00       		.byte	0
 1281 06b4 03       		.uleb128 0x3
 1282 06b5 93050000 		.4byte	.LASF102
 1283 06b9 0B       		.byte	0xb
 1284 06ba 62       		.byte	0x62
 1285 06bb 7B060000 		.4byte	0x67b
 1286 06bf 16       		.uleb128 0x16
 1287 06c0 0804     		.2byte	0x408
 1288 06c2 0B       		.byte	0xb
 1289 06c3 67       		.byte	0x67
 1290 06c4 ED060000 		.4byte	0x6ed
 1291 06c8 07       		.uleb128 0x7
 1292 06c9 4E020000 		.4byte	.LASF103
 1293 06cd 0B       		.byte	0xb
 1294 06ce 6B       		.byte	0x6b
 1295 06cf 9B000000 		.4byte	0x9b
 1296 06d3 00       		.byte	0
 1297 06d4 07       		.uleb128 0x7
 1298 06d5 8C050000 		.4byte	.LASF104
 1299 06d9 0B       		.byte	0xb
 1300 06da 6F       		.byte	0x6f
 1301 06db ED060000 		.4byte	0x6ed
 1302 06df 04       		.byte	0x4
 1303 06e0 07       		.uleb128 0x7
 1304 06e1 1C060000 		.4byte	.LASF105
 1305 06e5 0B       		.byte	0xb
 1306 06e6 73       		.byte	0x73
 1307 06e7 F3060000 		.4byte	0x6f3
 1308 06eb 08       		.byte	0x8
 1309 06ec 00       		.byte	0
 1310 06ed 0A       		.uleb128 0xa
 1311 06ee 04       		.byte	0x4
ARM GAS  C:\Users\ARNAUD~1\AppData\Local\Temp\ccJXLAlt.s 			page 24


 1312 06ef B4060000 		.4byte	0x6b4
 1313 06f3 17       		.uleb128 0x17
 1314 06f4 B4060000 		.4byte	0x6b4
 1315 06f8 03070000 		.4byte	0x703
 1316 06fc 18       		.uleb128 0x18
 1317 06fd 9B000000 		.4byte	0x9b
 1318 0701 3F       		.byte	0x3f
 1319 0702 00       		.byte	0
 1320 0703 03       		.uleb128 0x3
 1321 0704 B7000000 		.4byte	.LASF106
 1322 0708 0B       		.byte	0xb
 1323 0709 74       		.byte	0x74
 1324 070a BF060000 		.4byte	0x6bf
 1325 070e 15       		.uleb128 0x15
 1326 070f 04       		.byte	0x4
 1327 0710 0C       		.byte	0xc
 1328 0711 38       		.byte	0x38
 1329 0712 23070000 		.4byte	0x723
 1330 0716 07       		.uleb128 0x7
 1331 0717 F3070000 		.4byte	.LASF107
 1332 071b 0C       		.byte	0xc
 1333 071c 3C       		.byte	0x3c
 1334 071d E5000000 		.4byte	0xe5
 1335 0721 00       		.byte	0
 1336 0722 00       		.byte	0
 1337 0723 03       		.uleb128 0x3
 1338 0724 C2050000 		.4byte	.LASF108
 1339 0728 0C       		.byte	0xc
 1340 0729 3D       		.byte	0x3d
 1341 072a 0E070000 		.4byte	0x70e
 1342 072e 15       		.uleb128 0x15
 1343 072f 18       		.byte	0x18
 1344 0730 0C       		.byte	0xc
 1345 0731 48       		.byte	0x48
 1346 0732 71070000 		.4byte	0x771
 1347 0736 07       		.uleb128 0x7
 1348 0737 B4070000 		.4byte	.LASF109
 1349 073b 0C       		.byte	0xc
 1350 073c 49       		.byte	0x49
 1351 073d E5000000 		.4byte	0xe5
 1352 0741 00       		.byte	0
 1353 0742 07       		.uleb128 0x7
 1354 0743 87000000 		.4byte	.LASF110
 1355 0747 0C       		.byte	0xc
 1356 0748 4A       		.byte	0x4a
 1357 0749 E5000000 		.4byte	0xe5
 1358 074d 04       		.byte	0x4
 1359 074e 07       		.uleb128 0x7
 1360 074f A1040000 		.4byte	.LASF111
 1361 0753 0C       		.byte	0xc
 1362 0754 4B       		.byte	0x4b
 1363 0755 E5000000 		.4byte	0xe5
 1364 0759 08       		.byte	0x8
 1365 075a 14       		.uleb128 0x14
 1366 075b 6E00     		.ascii	"n\000"
 1367 075d 0C       		.byte	0xc
 1368 075e 4C       		.byte	0x4c
ARM GAS  C:\Users\ARNAUD~1\AppData\Local\Temp\ccJXLAlt.s 			page 25


 1369 075f 53010000 		.4byte	0x153
 1370 0763 0C       		.byte	0xc
 1371 0764 07       		.uleb128 0x7
 1372 0765 FD050000 		.4byte	.LASF112
 1373 0769 0C       		.byte	0xc
 1374 076a 4D       		.byte	0x4d
 1375 076b F0000000 		.4byte	0xf0
 1376 076f 10       		.byte	0x10
 1377 0770 00       		.byte	0
 1378 0771 03       		.uleb128 0x3
 1379 0772 8D000000 		.4byte	.LASF113
 1380 0776 0C       		.byte	0xc
 1381 0777 4E       		.byte	0x4e
 1382 0778 2E070000 		.4byte	0x72e
 1383 077c 15       		.uleb128 0x15
 1384 077d 38       		.byte	0x38
 1385 077e 0D       		.byte	0xd
 1386 077f 38       		.byte	0x38
 1387 0780 B5070000 		.4byte	0x7b5
 1388 0784 07       		.uleb128 0x7
 1389 0785 5F040000 		.4byte	.LASF114
 1390 0789 0D       		.byte	0xd
 1391 078a 39       		.byte	0x39
 1392 078b 53010000 		.4byte	0x153
 1393 078f 00       		.byte	0
 1394 0790 07       		.uleb128 0x7
 1395 0791 5B060000 		.4byte	.LASF115
 1396 0795 0D       		.byte	0xd
 1397 0796 3A       		.byte	0x3a
 1398 0797 53010000 		.4byte	0x153
 1399 079b 04       		.byte	0x4
 1400 079c 07       		.uleb128 0x7
 1401 079d 8D080000 		.4byte	.LASF116
 1402 07a1 0D       		.byte	0xd
 1403 07a2 3B       		.byte	0x3b
 1404 07a3 71070000 		.4byte	0x771
 1405 07a7 08       		.byte	0x8
 1406 07a8 07       		.uleb128 0x7
 1407 07a9 E3040000 		.4byte	.LASF117
 1408 07ad 0D       		.byte	0xd
 1409 07ae 3D       		.byte	0x3d
 1410 07af 71070000 		.4byte	0x771
 1411 07b3 20       		.byte	0x20
 1412 07b4 00       		.byte	0
 1413 07b5 03       		.uleb128 0x3
 1414 07b6 7E040000 		.4byte	.LASF118
 1415 07ba 0D       		.byte	0xd
 1416 07bb 3F       		.byte	0x3f
 1417 07bc 7C070000 		.4byte	0x77c
 1418 07c0 19       		.uleb128 0x19
 1419 07c1 04       		.byte	0x4
 1420 07c2 06       		.byte	0x6
 1421 07c3 FA       		.byte	0xfa
 1422 07c4 1D080000 		.4byte	0x81d
 1423 07c8 1A       		.uleb128 0x1a
 1424 07c9 28000000 		.4byte	.LASF119
 1425 07cd 06       		.byte	0x6
ARM GAS  C:\Users\ARNAUD~1\AppData\Local\Temp\ccJXLAlt.s 			page 26


 1426 07ce 0101     		.2byte	0x101
 1427 07d0 32010000 		.4byte	0x132
 1428 07d4 1A       		.uleb128 0x1a
 1429 07d5 E5000000 		.4byte	.LASF120
 1430 07d9 06       		.byte	0x6
 1431 07da 0801     		.2byte	0x108
 1432 07dc 32010000 		.4byte	0x132
 1433 07e0 1A       		.uleb128 0x1a
 1434 07e1 5C080000 		.4byte	.LASF121
 1435 07e5 06       		.byte	0x6
 1436 07e6 0F01     		.2byte	0x10f
 1437 07e8 7F030000 		.4byte	0x37f
 1438 07ec 1A       		.uleb128 0x1a
 1439 07ed 22000000 		.4byte	.LASF122
 1440 07f1 06       		.byte	0x6
 1441 07f2 1601     		.2byte	0x116
 1442 07f4 1D080000 		.4byte	0x81d
 1443 07f8 1A       		.uleb128 0x1a
 1444 07f9 31040000 		.4byte	.LASF123
 1445 07fd 06       		.byte	0x6
 1446 07fe 1E01     		.2byte	0x11e
 1447 0800 48080000 		.4byte	0x848
 1448 0804 1A       		.uleb128 0x1a
 1449 0805 8D070000 		.4byte	.LASF124
 1450 0809 06       		.byte	0x6
 1451 080a 2701     		.2byte	0x127
 1452 080c 8B080000 		.4byte	0x88b
 1453 0810 1A       		.uleb128 0x1a
 1454 0811 A7060000 		.4byte	.LASF125
 1455 0815 06       		.byte	0x6
 1456 0816 2F01     		.2byte	0x12f
 1457 0818 3D010000 		.4byte	0x13d
 1458 081c 00       		.byte	0
 1459 081d 0A       		.uleb128 0xa
 1460 081e 04       		.byte	0x4
 1461 081f 97020000 		.4byte	0x297
 1462 0823 06       		.uleb128 0x6
 1463 0824 1B070000 		.4byte	.LASF126
 1464 0828 0C       		.byte	0xc
 1465 0829 0E       		.byte	0xe
 1466 082a 34       		.byte	0x34
 1467 082b 48080000 		.4byte	0x848
 1468 082f 07       		.uleb128 0x7
 1469 0830 E0010000 		.4byte	.LASF127
 1470 0834 0E       		.byte	0xe
 1471 0835 35       		.byte	0x35
 1472 0836 CC020000 		.4byte	0x2cc
 1473 083a 00       		.byte	0
 1474 083b 07       		.uleb128 0x7
 1475 083c 65040000 		.4byte	.LASF128
 1476 0840 0E       		.byte	0xe
 1477 0841 37       		.byte	0x37
 1478 0842 48010000 		.4byte	0x148
 1479 0846 08       		.byte	0x8
 1480 0847 00       		.byte	0
 1481 0848 0A       		.uleb128 0xa
 1482 0849 04       		.byte	0x4
ARM GAS  C:\Users\ARNAUD~1\AppData\Local\Temp\ccJXLAlt.s 			page 27


 1483 084a 23080000 		.4byte	0x823
 1484 084e 06       		.uleb128 0x6
 1485 084f 1A080000 		.4byte	.LASF129
 1486 0853 14       		.byte	0x14
 1487 0854 0F       		.byte	0xf
 1488 0855 39       		.byte	0x39
 1489 0856 8B080000 		.4byte	0x88b
 1490 085a 07       		.uleb128 0x7
 1491 085b 90010000 		.4byte	.LASF130
 1492 085f 0F       		.byte	0xf
 1493 0860 3A       		.byte	0x3a
 1494 0861 CC020000 		.4byte	0x2cc
 1495 0865 00       		.byte	0
 1496 0866 07       		.uleb128 0x7
 1497 0867 98080000 		.4byte	.LASF131
 1498 086b 0F       		.byte	0xf
 1499 086c 3C       		.byte	0x3c
 1500 086d A2020000 		.4byte	0x2a2
 1501 0871 08       		.byte	0x8
 1502 0872 07       		.uleb128 0x7
 1503 0873 B9070000 		.4byte	.LASF132
 1504 0877 0F       		.byte	0xf
 1505 0878 3E       		.byte	0x3e
 1506 0879 E6090000 		.4byte	0x9e6
 1507 087d 0C       		.byte	0xc
 1508 087e 07       		.uleb128 0x7
 1509 087f 7F020000 		.4byte	.LASF133
 1510 0883 0F       		.byte	0xf
 1511 0884 41       		.byte	0x41
 1512 0885 48010000 		.4byte	0x148
 1513 0889 10       		.byte	0x10
 1514 088a 00       		.byte	0
 1515 088b 0A       		.uleb128 0xa
 1516 088c 04       		.byte	0x4
 1517 088d 4E080000 		.4byte	0x84e
 1518 0891 0A       		.uleb128 0xa
 1519 0892 04       		.byte	0x4
 1520 0893 A3080000 		.4byte	0x8a3
 1521 0897 05       		.uleb128 0x5
 1522 0898 91080000 		.4byte	0x891
 1523 089c 02       		.uleb128 0x2
 1524 089d 01       		.byte	0x1
 1525 089e 08       		.byte	0x8
 1526 089f 88070000 		.4byte	.LASF134
 1527 08a3 1B       		.uleb128 0x1b
 1528 08a4 9C080000 		.4byte	0x89c
 1529 08a8 0A       		.uleb128 0xa
 1530 08a9 04       		.byte	0x4
 1531 08aa 10050000 		.4byte	0x510
 1532 08ae 0A       		.uleb128 0xa
 1533 08af 04       		.byte	0x4
 1534 08b0 81030000 		.4byte	0x381
 1535 08b4 17       		.uleb128 0x17
 1536 08b5 10050000 		.4byte	0x510
 1537 08b9 C4080000 		.4byte	0x8c4
 1538 08bd 18       		.uleb128 0x18
 1539 08be 9B000000 		.4byte	0x9b
ARM GAS  C:\Users\ARNAUD~1\AppData\Local\Temp\ccJXLAlt.s 			page 28


 1540 08c2 30       		.byte	0x30
 1541 08c3 00       		.byte	0
 1542 08c4 1C       		.uleb128 0x1c
 1543 08c5 636800   		.ascii	"ch\000"
 1544 08c8 06       		.byte	0x6
 1545 08c9 0902     		.2byte	0x209
 1546 08cb 76040000 		.4byte	0x476
 1547 08cf 15       		.uleb128 0x15
 1548 08d0 16       		.byte	0x16
 1549 08d1 10       		.byte	0x10
 1550 08d2 34       		.byte	0x34
 1551 08d3 B0090000 		.4byte	0x9b0
 1552 08d7 07       		.uleb128 0x7
 1553 08d8 B4080000 		.4byte	.LASF135
 1554 08dc 10       		.byte	0x10
 1555 08dd 35       		.byte	0x35
 1556 08de B0090000 		.4byte	0x9b0
 1557 08e2 00       		.byte	0
 1558 08e3 07       		.uleb128 0x7
 1559 08e4 37050000 		.4byte	.LASF136
 1560 08e8 10       		.byte	0x10
 1561 08e9 36       		.byte	0x36
 1562 08ea A2000000 		.4byte	0xa2
 1563 08ee 04       		.byte	0x4
 1564 08ef 07       		.uleb128 0x7
 1565 08f0 6E070000 		.4byte	.LASF137
 1566 08f4 10       		.byte	0x10
 1567 08f5 37       		.byte	0x37
 1568 08f6 A2000000 		.4byte	0xa2
 1569 08fa 05       		.byte	0x5
 1570 08fb 07       		.uleb128 0x7
 1571 08fc 82080000 		.4byte	.LASF138
 1572 0900 10       		.byte	0x10
 1573 0901 38       		.byte	0x38
 1574 0902 AD000000 		.4byte	0xad
 1575 0906 06       		.byte	0x6
 1576 0907 07       		.uleb128 0x7
 1577 0908 26060000 		.4byte	.LASF139
 1578 090c 10       		.byte	0x10
 1579 090d 39       		.byte	0x39
 1580 090e A2000000 		.4byte	0xa2
 1581 0912 08       		.byte	0x8
 1582 0913 07       		.uleb128 0x7
 1583 0914 80050000 		.4byte	.LASF140
 1584 0918 10       		.byte	0x10
 1585 0919 3A       		.byte	0x3a
 1586 091a A2000000 		.4byte	0xa2
 1587 091e 09       		.byte	0x9
 1588 091f 07       		.uleb128 0x7
 1589 0920 C9000000 		.4byte	.LASF141
 1590 0924 10       		.byte	0x10
 1591 0925 3B       		.byte	0x3b
 1592 0926 A2000000 		.4byte	0xa2
 1593 092a 0A       		.byte	0xa
 1594 092b 07       		.uleb128 0x7
 1595 092c 4A070000 		.4byte	.LASF142
 1596 0930 10       		.byte	0x10
ARM GAS  C:\Users\ARNAUD~1\AppData\Local\Temp\ccJXLAlt.s 			page 29


 1597 0931 3C       		.byte	0x3c
 1598 0932 A2000000 		.4byte	0xa2
 1599 0936 0B       		.byte	0xb
 1600 0937 07       		.uleb128 0x7
 1601 0938 0F080000 		.4byte	.LASF143
 1602 093c 10       		.byte	0x10
 1603 093d 3D       		.byte	0x3d
 1604 093e A2000000 		.4byte	0xa2
 1605 0942 0C       		.byte	0xc
 1606 0943 07       		.uleb128 0x7
 1607 0944 FD060000 		.4byte	.LASF144
 1608 0948 10       		.byte	0x10
 1609 0949 3E       		.byte	0x3e
 1610 094a A2000000 		.4byte	0xa2
 1611 094e 0D       		.byte	0xd
 1612 094f 07       		.uleb128 0x7
 1613 0950 00000000 		.4byte	.LASF145
 1614 0954 10       		.byte	0x10
 1615 0955 3F       		.byte	0x3f
 1616 0956 A2000000 		.4byte	0xa2
 1617 095a 0E       		.byte	0xe
 1618 095b 07       		.uleb128 0x7
 1619 095c A2050000 		.4byte	.LASF146
 1620 0960 10       		.byte	0x10
 1621 0961 40       		.byte	0x40
 1622 0962 A2000000 		.4byte	0xa2
 1623 0966 0F       		.byte	0xf
 1624 0967 07       		.uleb128 0x7
 1625 0968 6B010000 		.4byte	.LASF147
 1626 096c 10       		.byte	0x10
 1627 096d 41       		.byte	0x41
 1628 096e A2000000 		.4byte	0xa2
 1629 0972 10       		.byte	0x10
 1630 0973 07       		.uleb128 0x7
 1631 0974 3C010000 		.4byte	.LASF148
 1632 0978 10       		.byte	0x10
 1633 0979 43       		.byte	0x43
 1634 097a A2000000 		.4byte	0xa2
 1635 097e 11       		.byte	0x11
 1636 097f 07       		.uleb128 0x7
 1637 0980 7B010000 		.4byte	.LASF149
 1638 0984 10       		.byte	0x10
 1639 0985 44       		.byte	0x44
 1640 0986 A2000000 		.4byte	0xa2
 1641 098a 12       		.byte	0x12
 1642 098b 07       		.uleb128 0x7
 1643 098c 3F050000 		.4byte	.LASF150
 1644 0990 10       		.byte	0x10
 1645 0991 45       		.byte	0x45
 1646 0992 A2000000 		.4byte	0xa2
 1647 0996 13       		.byte	0x13
 1648 0997 07       		.uleb128 0x7
 1649 0998 BD060000 		.4byte	.LASF151
 1650 099c 10       		.byte	0x10
 1651 099d 46       		.byte	0x46
 1652 099e A2000000 		.4byte	0xa2
 1653 09a2 14       		.byte	0x14
ARM GAS  C:\Users\ARNAUD~1\AppData\Local\Temp\ccJXLAlt.s 			page 30


 1654 09a3 07       		.uleb128 0x7
 1655 09a4 C8040000 		.4byte	.LASF152
 1656 09a8 10       		.byte	0x10
 1657 09a9 48       		.byte	0x48
 1658 09aa A2000000 		.4byte	0xa2
 1659 09ae 15       		.byte	0x15
 1660 09af 00       		.byte	0
 1661 09b0 17       		.uleb128 0x17
 1662 09b1 9C080000 		.4byte	0x89c
 1663 09b5 C0090000 		.4byte	0x9c0
 1664 09b9 18       		.uleb128 0x18
 1665 09ba 9B000000 		.4byte	0x9b
 1666 09be 03       		.byte	0x3
 1667 09bf 00       		.byte	0
 1668 09c0 03       		.uleb128 0x3
 1669 09c1 A0080000 		.4byte	.LASF153
 1670 09c5 10       		.byte	0x10
 1671 09c6 49       		.byte	0x49
 1672 09c7 CF080000 		.4byte	0x8cf
 1673 09cb 1B       		.uleb128 0x1b
 1674 09cc C0090000 		.4byte	0x9c0
 1675 09d0 13       		.uleb128 0x13
 1676 09d1 4C040000 		.4byte	.LASF154
 1677 09d5 10       		.byte	0x10
 1678 09d6 6E       		.byte	0x6e
 1679 09d7 CB090000 		.4byte	0x9cb
 1680 09db 03       		.uleb128 0x3
 1681 09dc 49010000 		.4byte	.LASF155
 1682 09e0 0F       		.byte	0xf
 1683 09e1 34       		.byte	0x34
 1684 09e2 4E080000 		.4byte	0x84e
 1685 09e6 0A       		.uleb128 0xa
 1686 09e7 04       		.byte	0x4
 1687 09e8 DB090000 		.4byte	0x9db
 1688 09ec 17       		.uleb128 0x17
 1689 09ed 10050000 		.4byte	0x510
 1690 09f1 FC090000 		.4byte	0x9fc
 1691 09f5 18       		.uleb128 0x18
 1692 09f6 9B000000 		.4byte	0x9b
 1693 09fa 3E       		.byte	0x3e
 1694 09fb 00       		.byte	0
 1695 09fc 1D       		.uleb128 0x1d
 1696 09fd 31060000 		.4byte	.LASF169
 1697 0a01 01       		.byte	0x1
 1698 0a02 07       		.byte	0x7
 1699 0a03 EC090000 		.4byte	0x9ec
 1700 0a07 1E       		.uleb128 0x1e
 1701 0a08 B9040000 		.4byte	.LASF159
 1702 0a0c 01       		.byte	0x1
 1703 0a0d 39       		.byte	0x39
 1704 0a0e 340A0000 		.4byte	0xa34
 1705 0a12 1F       		.uleb128 0x1f
 1706 0a13 C3020000 		.4byte	.LASF156
 1707 0a17 01       		.byte	0x1
 1708 0a18 39       		.byte	0x39
 1709 0a19 94000000 		.4byte	0x94
 1710 0a1d 1F       		.uleb128 0x1f
ARM GAS  C:\Users\ARNAUD~1\AppData\Local\Temp\ccJXLAlt.s 			page 31


 1711 0a1e 33070000 		.4byte	.LASF157
 1712 0a22 01       		.byte	0x1
 1713 0a23 39       		.byte	0x39
 1714 0a24 94000000 		.4byte	0x94
 1715 0a28 1F       		.uleb128 0x1f
 1716 0a29 3A070000 		.4byte	.LASF158
 1717 0a2d 01       		.byte	0x1
 1718 0a2e 39       		.byte	0x39
 1719 0a2f 94000000 		.4byte	0x94
 1720 0a33 00       		.byte	0
 1721 0a34 1E       		.uleb128 0x1e
 1722 0a35 F9000000 		.4byte	.LASF160
 1723 0a39 01       		.byte	0x1
 1724 0a3a 35       		.byte	0x35
 1725 0a3b 610A0000 		.4byte	0xa61
 1726 0a3f 1F       		.uleb128 0x1f
 1727 0a40 C3020000 		.4byte	.LASF156
 1728 0a44 01       		.byte	0x1
 1729 0a45 35       		.byte	0x35
 1730 0a46 94000000 		.4byte	0x94
 1731 0a4a 1F       		.uleb128 0x1f
 1732 0a4b 33070000 		.4byte	.LASF157
 1733 0a4f 01       		.byte	0x1
 1734 0a50 35       		.byte	0x35
 1735 0a51 94000000 		.4byte	0x94
 1736 0a55 1F       		.uleb128 0x1f
 1737 0a56 3A070000 		.4byte	.LASF158
 1738 0a5a 01       		.byte	0x1
 1739 0a5b 35       		.byte	0x35
 1740 0a5c 94000000 		.4byte	0x94
 1741 0a60 00       		.byte	0
 1742 0a61 1E       		.uleb128 0x1e
 1743 0a62 08060000 		.4byte	.LASF161
 1744 0a66 01       		.byte	0x1
 1745 0a67 31       		.byte	0x31
 1746 0a68 8E0A0000 		.4byte	0xa8e
 1747 0a6c 1F       		.uleb128 0x1f
 1748 0a6d C3020000 		.4byte	.LASF156
 1749 0a71 01       		.byte	0x1
 1750 0a72 31       		.byte	0x31
 1751 0a73 94000000 		.4byte	0x94
 1752 0a77 1F       		.uleb128 0x1f
 1753 0a78 33070000 		.4byte	.LASF157
 1754 0a7c 01       		.byte	0x1
 1755 0a7d 31       		.byte	0x31
 1756 0a7e 94000000 		.4byte	0x94
 1757 0a82 1F       		.uleb128 0x1f
 1758 0a83 3A070000 		.4byte	.LASF158
 1759 0a87 01       		.byte	0x1
 1760 0a88 31       		.byte	0x31
 1761 0a89 94000000 		.4byte	0x94
 1762 0a8d 00       		.byte	0
 1763 0a8e 1E       		.uleb128 0x1e
 1764 0a8f 45000000 		.4byte	.LASF162
 1765 0a93 01       		.byte	0x1
 1766 0a94 2D       		.byte	0x2d
 1767 0a95 BB0A0000 		.4byte	0xabb
ARM GAS  C:\Users\ARNAUD~1\AppData\Local\Temp\ccJXLAlt.s 			page 32


 1768 0a99 1F       		.uleb128 0x1f
 1769 0a9a C3020000 		.4byte	.LASF156
 1770 0a9e 01       		.byte	0x1
 1771 0a9f 2D       		.byte	0x2d
 1772 0aa0 94000000 		.4byte	0x94
 1773 0aa4 1F       		.uleb128 0x1f
 1774 0aa5 33070000 		.4byte	.LASF157
 1775 0aa9 01       		.byte	0x1
 1776 0aaa 2D       		.byte	0x2d
 1777 0aab 94000000 		.4byte	0x94
 1778 0aaf 1F       		.uleb128 0x1f
 1779 0ab0 3A070000 		.4byte	.LASF158
 1780 0ab4 01       		.byte	0x1
 1781 0ab5 2D       		.byte	0x2d
 1782 0ab6 94000000 		.4byte	0x94
 1783 0aba 00       		.byte	0
 1784 0abb 1E       		.uleb128 0x1e
 1785 0abc F1050000 		.4byte	.LASF163
 1786 0ac0 01       		.byte	0x1
 1787 0ac1 29       		.byte	0x29
 1788 0ac2 E80A0000 		.4byte	0xae8
 1789 0ac6 1F       		.uleb128 0x1f
 1790 0ac7 C3020000 		.4byte	.LASF156
 1791 0acb 01       		.byte	0x1
 1792 0acc 29       		.byte	0x29
 1793 0acd 94000000 		.4byte	0x94
 1794 0ad1 1F       		.uleb128 0x1f
 1795 0ad2 33070000 		.4byte	.LASF157
 1796 0ad6 01       		.byte	0x1
 1797 0ad7 29       		.byte	0x29
 1798 0ad8 94000000 		.4byte	0x94
 1799 0adc 1F       		.uleb128 0x1f
 1800 0add 3A070000 		.4byte	.LASF158
 1801 0ae1 01       		.byte	0x1
 1802 0ae2 29       		.byte	0x29
 1803 0ae3 94000000 		.4byte	0x94
 1804 0ae7 00       		.byte	0
 1805 0ae8 20       		.uleb128 0x20
 1806 0ae9 E5050000 		.4byte	.LASF170
 1807 0aed 01       		.byte	0x1
 1808 0aee 25       		.byte	0x25
 1809 0aef 01       		.byte	0x1
 1810 0af0 160B0000 		.4byte	0xb16
 1811 0af4 1F       		.uleb128 0x1f
 1812 0af5 C3020000 		.4byte	.LASF156
 1813 0af9 01       		.byte	0x1
 1814 0afa 25       		.byte	0x25
 1815 0afb 94000000 		.4byte	0x94
 1816 0aff 1F       		.uleb128 0x1f
 1817 0b00 33070000 		.4byte	.LASF157
 1818 0b04 01       		.byte	0x1
 1819 0b05 25       		.byte	0x25
 1820 0b06 94000000 		.4byte	0x94
 1821 0b0a 1F       		.uleb128 0x1f
 1822 0b0b 3A070000 		.4byte	.LASF158
 1823 0b0f 01       		.byte	0x1
 1824 0b10 25       		.byte	0x25
ARM GAS  C:\Users\ARNAUD~1\AppData\Local\Temp\ccJXLAlt.s 			page 33


 1825 0b11 94000000 		.4byte	0x94
 1826 0b15 00       		.byte	0
 1827 0b16 21       		.uleb128 0x21
 1828 0b17 8D040000 		.4byte	.LASF164
 1829 0b1b 01       		.byte	0x1
 1830 0b1c 21       		.byte	0x21
 1831 0b1d 21       		.uleb128 0x21
 1832 0b1e 98010000 		.4byte	.LASF165
 1833 0b22 01       		.byte	0x1
 1834 0b23 1D       		.byte	0x1d
 1835 0b24 22       		.uleb128 0x22
 1836 0b25 9F070000 		.4byte	.LASF171
 1837 0b29 01       		.byte	0x1
 1838 0b2a 19       		.byte	0x19
 1839 0b2b 01       		.byte	0x1
 1840 0b2c 23       		.uleb128 0x23
 1841 0b2d D7000000 		.4byte	.LASF172
 1842 0b31 01       		.byte	0x1
 1843 0b32 15       		.byte	0x15
 1844 0b33 00000000 		.4byte	.LFB220
 1845 0b37 20000000 		.4byte	.LFE220-.LFB220
 1846 0b3b 01       		.uleb128 0x1
 1847 0b3c 9C       		.byte	0x9c
 1848 0b3d 5A0B0000 		.4byte	0xb5a
 1849 0b41 24       		.uleb128 0x24
 1850 0b42 C3020000 		.4byte	.LASF156
 1851 0b46 01       		.byte	0x1
 1852 0b47 15       		.byte	0x15
 1853 0b48 A2000000 		.4byte	0xa2
 1854 0b4c 00000000 		.4byte	.LLST0
 1855 0b50 25       		.uleb128 0x25
 1856 0b51 1C000000 		.4byte	.LVL1
 1857 0b55 AF0B0000 		.4byte	0xbaf
 1858 0b59 00       		.byte	0
 1859 0b5a 26       		.uleb128 0x26
 1860 0b5b 240B0000 		.4byte	0xb24
 1861 0b5f 00000000 		.4byte	.LFB221
 1862 0b63 20000000 		.4byte	.LFE221-.LFB221
 1863 0b67 01       		.uleb128 0x1
 1864 0b68 9C       		.byte	0x9c
 1865 0b69 770B0000 		.4byte	0xb77
 1866 0b6d 25       		.uleb128 0x25
 1867 0b6e 1C000000 		.4byte	.LVL2
 1868 0b72 AF0B0000 		.4byte	0xbaf
 1869 0b76 00       		.byte	0
 1870 0b77 26       		.uleb128 0x26
 1871 0b78 E80A0000 		.4byte	0xae8
 1872 0b7c 00000000 		.4byte	.LFB224
 1873 0b80 20000000 		.4byte	.LFE224-.LFB224
 1874 0b84 01       		.uleb128 0x1
 1875 0b85 9C       		.byte	0x9c
 1876 0b86 AF0B0000 		.4byte	0xbaf
 1877 0b8a 27       		.uleb128 0x27
 1878 0b8b F40A0000 		.4byte	0xaf4
 1879 0b8f 21000000 		.4byte	.LLST1
 1880 0b93 27       		.uleb128 0x27
 1881 0b94 FF0A0000 		.4byte	0xaff
ARM GAS  C:\Users\ARNAUD~1\AppData\Local\Temp\ccJXLAlt.s 			page 34


 1882 0b98 42000000 		.4byte	.LLST2
 1883 0b9c 27       		.uleb128 0x27
 1884 0b9d 0A0B0000 		.4byte	0xb0a
 1885 0ba1 63000000 		.4byte	.LLST3
 1886 0ba5 25       		.uleb128 0x25
 1887 0ba6 1C000000 		.4byte	.LVL5
 1888 0baa AF0B0000 		.4byte	0xbaf
 1889 0bae 00       		.byte	0
 1890 0baf 28       		.uleb128 0x28
 1891 0bb0 0A070000 		.4byte	.LASF173
 1892 0bb4 0A070000 		.4byte	.LASF173
 1893 0bb8 00       		.byte	0
 1894              		.section	.debug_abbrev,"",%progbits
 1895              	.Ldebug_abbrev0:
 1896 0000 01       		.uleb128 0x1
 1897 0001 11       		.uleb128 0x11
 1898 0002 01       		.byte	0x1
 1899 0003 25       		.uleb128 0x25
 1900 0004 0E       		.uleb128 0xe
 1901 0005 13       		.uleb128 0x13
 1902 0006 0B       		.uleb128 0xb
 1903 0007 03       		.uleb128 0x3
 1904 0008 0E       		.uleb128 0xe
 1905 0009 1B       		.uleb128 0x1b
 1906 000a 0E       		.uleb128 0xe
 1907 000b 55       		.uleb128 0x55
 1908 000c 17       		.uleb128 0x17
 1909 000d 11       		.uleb128 0x11
 1910 000e 01       		.uleb128 0x1
 1911 000f 10       		.uleb128 0x10
 1912 0010 17       		.uleb128 0x17
 1913 0011 00       		.byte	0
 1914 0012 00       		.byte	0
 1915 0013 02       		.uleb128 0x2
 1916 0014 24       		.uleb128 0x24
 1917 0015 00       		.byte	0
 1918 0016 0B       		.uleb128 0xb
 1919 0017 0B       		.uleb128 0xb
 1920 0018 3E       		.uleb128 0x3e
 1921 0019 0B       		.uleb128 0xb
 1922 001a 03       		.uleb128 0x3
 1923 001b 0E       		.uleb128 0xe
 1924 001c 00       		.byte	0
 1925 001d 00       		.byte	0
 1926 001e 03       		.uleb128 0x3
 1927 001f 16       		.uleb128 0x16
 1928 0020 00       		.byte	0
 1929 0021 03       		.uleb128 0x3
 1930 0022 0E       		.uleb128 0xe
 1931 0023 3A       		.uleb128 0x3a
 1932 0024 0B       		.uleb128 0xb
 1933 0025 3B       		.uleb128 0x3b
 1934 0026 0B       		.uleb128 0xb
 1935 0027 49       		.uleb128 0x49
 1936 0028 13       		.uleb128 0x13
 1937 0029 00       		.byte	0
 1938 002a 00       		.byte	0
ARM GAS  C:\Users\ARNAUD~1\AppData\Local\Temp\ccJXLAlt.s 			page 35


 1939 002b 04       		.uleb128 0x4
 1940 002c 24       		.uleb128 0x24
 1941 002d 00       		.byte	0
 1942 002e 0B       		.uleb128 0xb
 1943 002f 0B       		.uleb128 0xb
 1944 0030 3E       		.uleb128 0x3e
 1945 0031 0B       		.uleb128 0xb
 1946 0032 03       		.uleb128 0x3
 1947 0033 08       		.uleb128 0x8
 1948 0034 00       		.byte	0
 1949 0035 00       		.byte	0
 1950 0036 05       		.uleb128 0x5
 1951 0037 35       		.uleb128 0x35
 1952 0038 00       		.byte	0
 1953 0039 49       		.uleb128 0x49
 1954 003a 13       		.uleb128 0x13
 1955 003b 00       		.byte	0
 1956 003c 00       		.byte	0
 1957 003d 06       		.uleb128 0x6
 1958 003e 13       		.uleb128 0x13
 1959 003f 01       		.byte	0x1
 1960 0040 03       		.uleb128 0x3
 1961 0041 0E       		.uleb128 0xe
 1962 0042 0B       		.uleb128 0xb
 1963 0043 0B       		.uleb128 0xb
 1964 0044 3A       		.uleb128 0x3a
 1965 0045 0B       		.uleb128 0xb
 1966 0046 3B       		.uleb128 0x3b
 1967 0047 0B       		.uleb128 0xb
 1968 0048 01       		.uleb128 0x1
 1969 0049 13       		.uleb128 0x13
 1970 004a 00       		.byte	0
 1971 004b 00       		.byte	0
 1972 004c 07       		.uleb128 0x7
 1973 004d 0D       		.uleb128 0xd
 1974 004e 00       		.byte	0
 1975 004f 03       		.uleb128 0x3
 1976 0050 0E       		.uleb128 0xe
 1977 0051 3A       		.uleb128 0x3a
 1978 0052 0B       		.uleb128 0xb
 1979 0053 3B       		.uleb128 0x3b
 1980 0054 0B       		.uleb128 0xb
 1981 0055 49       		.uleb128 0x49
 1982 0056 13       		.uleb128 0x13
 1983 0057 38       		.uleb128 0x38
 1984 0058 0B       		.uleb128 0xb
 1985 0059 00       		.byte	0
 1986 005a 00       		.byte	0
 1987 005b 08       		.uleb128 0x8
 1988 005c 0D       		.uleb128 0xd
 1989 005d 00       		.byte	0
 1990 005e 03       		.uleb128 0x3
 1991 005f 08       		.uleb128 0x8
 1992 0060 3A       		.uleb128 0x3a
 1993 0061 0B       		.uleb128 0xb
 1994 0062 3B       		.uleb128 0x3b
 1995 0063 05       		.uleb128 0x5
ARM GAS  C:\Users\ARNAUD~1\AppData\Local\Temp\ccJXLAlt.s 			page 36


 1996 0064 49       		.uleb128 0x49
 1997 0065 13       		.uleb128 0x13
 1998 0066 38       		.uleb128 0x38
 1999 0067 0B       		.uleb128 0xb
 2000 0068 00       		.byte	0
 2001 0069 00       		.byte	0
 2002 006a 09       		.uleb128 0x9
 2003 006b 0D       		.uleb128 0xd
 2004 006c 00       		.byte	0
 2005 006d 03       		.uleb128 0x3
 2006 006e 0E       		.uleb128 0xe
 2007 006f 3A       		.uleb128 0x3a
 2008 0070 0B       		.uleb128 0xb
 2009 0071 3B       		.uleb128 0x3b
 2010 0072 05       		.uleb128 0x5
 2011 0073 49       		.uleb128 0x49
 2012 0074 13       		.uleb128 0x13
 2013 0075 38       		.uleb128 0x38
 2014 0076 0B       		.uleb128 0xb
 2015 0077 00       		.byte	0
 2016 0078 00       		.byte	0
 2017 0079 0A       		.uleb128 0xa
 2018 007a 0F       		.uleb128 0xf
 2019 007b 00       		.byte	0
 2020 007c 0B       		.uleb128 0xb
 2021 007d 0B       		.uleb128 0xb
 2022 007e 49       		.uleb128 0x49
 2023 007f 13       		.uleb128 0x13
 2024 0080 00       		.byte	0
 2025 0081 00       		.byte	0
 2026 0082 0B       		.uleb128 0xb
 2027 0083 13       		.uleb128 0x13
 2028 0084 01       		.byte	0x1
 2029 0085 03       		.uleb128 0x3
 2030 0086 0E       		.uleb128 0xe
 2031 0087 0B       		.uleb128 0xb
 2032 0088 0B       		.uleb128 0xb
 2033 0089 3A       		.uleb128 0x3a
 2034 008a 0B       		.uleb128 0xb
 2035 008b 3B       		.uleb128 0x3b
 2036 008c 05       		.uleb128 0x5
 2037 008d 01       		.uleb128 0x1
 2038 008e 13       		.uleb128 0x13
 2039 008f 00       		.byte	0
 2040 0090 00       		.byte	0
 2041 0091 0C       		.uleb128 0xc
 2042 0092 15       		.uleb128 0x15
 2043 0093 01       		.byte	0x1
 2044 0094 27       		.uleb128 0x27
 2045 0095 19       		.uleb128 0x19
 2046 0096 01       		.uleb128 0x1
 2047 0097 13       		.uleb128 0x13
 2048 0098 00       		.byte	0
 2049 0099 00       		.byte	0
 2050 009a 0D       		.uleb128 0xd
 2051 009b 05       		.uleb128 0x5
 2052 009c 00       		.byte	0
ARM GAS  C:\Users\ARNAUD~1\AppData\Local\Temp\ccJXLAlt.s 			page 37


 2053 009d 49       		.uleb128 0x49
 2054 009e 13       		.uleb128 0x13
 2055 009f 00       		.byte	0
 2056 00a0 00       		.byte	0
 2057 00a1 0E       		.uleb128 0xe
 2058 00a2 0F       		.uleb128 0xf
 2059 00a3 00       		.byte	0
 2060 00a4 0B       		.uleb128 0xb
 2061 00a5 0B       		.uleb128 0xb
 2062 00a6 00       		.byte	0
 2063 00a7 00       		.byte	0
 2064 00a8 0F       		.uleb128 0xf
 2065 00a9 13       		.uleb128 0x13
 2066 00aa 01       		.byte	0x1
 2067 00ab 03       		.uleb128 0x3
 2068 00ac 0E       		.uleb128 0xe
 2069 00ad 0B       		.uleb128 0xb
 2070 00ae 05       		.uleb128 0x5
 2071 00af 3A       		.uleb128 0x3a
 2072 00b0 0B       		.uleb128 0xb
 2073 00b1 3B       		.uleb128 0x3b
 2074 00b2 05       		.uleb128 0x5
 2075 00b3 01       		.uleb128 0x1
 2076 00b4 13       		.uleb128 0x13
 2077 00b5 00       		.byte	0
 2078 00b6 00       		.byte	0
 2079 00b7 10       		.uleb128 0x10
 2080 00b8 0D       		.uleb128 0xd
 2081 00b9 00       		.byte	0
 2082 00ba 03       		.uleb128 0x3
 2083 00bb 0E       		.uleb128 0xe
 2084 00bc 3A       		.uleb128 0x3a
 2085 00bd 0B       		.uleb128 0xb
 2086 00be 3B       		.uleb128 0x3b
 2087 00bf 05       		.uleb128 0x5
 2088 00c0 49       		.uleb128 0x49
 2089 00c1 13       		.uleb128 0x13
 2090 00c2 38       		.uleb128 0x38
 2091 00c3 05       		.uleb128 0x5
 2092 00c4 00       		.byte	0
 2093 00c5 00       		.byte	0
 2094 00c6 11       		.uleb128 0x11
 2095 00c7 0D       		.uleb128 0xd
 2096 00c8 00       		.byte	0
 2097 00c9 03       		.uleb128 0x3
 2098 00ca 08       		.uleb128 0x8
 2099 00cb 3A       		.uleb128 0x3a
 2100 00cc 0B       		.uleb128 0xb
 2101 00cd 3B       		.uleb128 0x3b
 2102 00ce 05       		.uleb128 0x5
 2103 00cf 49       		.uleb128 0x49
 2104 00d0 13       		.uleb128 0x13
 2105 00d1 38       		.uleb128 0x38
 2106 00d2 05       		.uleb128 0x5
 2107 00d3 00       		.byte	0
 2108 00d4 00       		.byte	0
 2109 00d5 12       		.uleb128 0x12
ARM GAS  C:\Users\ARNAUD~1\AppData\Local\Temp\ccJXLAlt.s 			page 38


 2110 00d6 34       		.uleb128 0x34
 2111 00d7 00       		.byte	0
 2112 00d8 03       		.uleb128 0x3
 2113 00d9 0E       		.uleb128 0xe
 2114 00da 3A       		.uleb128 0x3a
 2115 00db 0B       		.uleb128 0xb
 2116 00dc 3B       		.uleb128 0x3b
 2117 00dd 05       		.uleb128 0x5
 2118 00de 49       		.uleb128 0x49
 2119 00df 13       		.uleb128 0x13
 2120 00e0 3F       		.uleb128 0x3f
 2121 00e1 19       		.uleb128 0x19
 2122 00e2 3C       		.uleb128 0x3c
 2123 00e3 19       		.uleb128 0x19
 2124 00e4 00       		.byte	0
 2125 00e5 00       		.byte	0
 2126 00e6 13       		.uleb128 0x13
 2127 00e7 34       		.uleb128 0x34
 2128 00e8 00       		.byte	0
 2129 00e9 03       		.uleb128 0x3
 2130 00ea 0E       		.uleb128 0xe
 2131 00eb 3A       		.uleb128 0x3a
 2132 00ec 0B       		.uleb128 0xb
 2133 00ed 3B       		.uleb128 0x3b
 2134 00ee 0B       		.uleb128 0xb
 2135 00ef 49       		.uleb128 0x49
 2136 00f0 13       		.uleb128 0x13
 2137 00f1 3F       		.uleb128 0x3f
 2138 00f2 19       		.uleb128 0x19
 2139 00f3 3C       		.uleb128 0x3c
 2140 00f4 19       		.uleb128 0x19
 2141 00f5 00       		.byte	0
 2142 00f6 00       		.byte	0
 2143 00f7 14       		.uleb128 0x14
 2144 00f8 0D       		.uleb128 0xd
 2145 00f9 00       		.byte	0
 2146 00fa 03       		.uleb128 0x3
 2147 00fb 08       		.uleb128 0x8
 2148 00fc 3A       		.uleb128 0x3a
 2149 00fd 0B       		.uleb128 0xb
 2150 00fe 3B       		.uleb128 0x3b
 2151 00ff 0B       		.uleb128 0xb
 2152 0100 49       		.uleb128 0x49
 2153 0101 13       		.uleb128 0x13
 2154 0102 38       		.uleb128 0x38
 2155 0103 0B       		.uleb128 0xb
 2156 0104 00       		.byte	0
 2157 0105 00       		.byte	0
 2158 0106 15       		.uleb128 0x15
 2159 0107 13       		.uleb128 0x13
 2160 0108 01       		.byte	0x1
 2161 0109 0B       		.uleb128 0xb
 2162 010a 0B       		.uleb128 0xb
 2163 010b 3A       		.uleb128 0x3a
 2164 010c 0B       		.uleb128 0xb
 2165 010d 3B       		.uleb128 0x3b
 2166 010e 0B       		.uleb128 0xb
ARM GAS  C:\Users\ARNAUD~1\AppData\Local\Temp\ccJXLAlt.s 			page 39


 2167 010f 01       		.uleb128 0x1
 2168 0110 13       		.uleb128 0x13
 2169 0111 00       		.byte	0
 2170 0112 00       		.byte	0
 2171 0113 16       		.uleb128 0x16
 2172 0114 13       		.uleb128 0x13
 2173 0115 01       		.byte	0x1
 2174 0116 0B       		.uleb128 0xb
 2175 0117 05       		.uleb128 0x5
 2176 0118 3A       		.uleb128 0x3a
 2177 0119 0B       		.uleb128 0xb
 2178 011a 3B       		.uleb128 0x3b
 2179 011b 0B       		.uleb128 0xb
 2180 011c 01       		.uleb128 0x1
 2181 011d 13       		.uleb128 0x13
 2182 011e 00       		.byte	0
 2183 011f 00       		.byte	0
 2184 0120 17       		.uleb128 0x17
 2185 0121 01       		.uleb128 0x1
 2186 0122 01       		.byte	0x1
 2187 0123 49       		.uleb128 0x49
 2188 0124 13       		.uleb128 0x13
 2189 0125 01       		.uleb128 0x1
 2190 0126 13       		.uleb128 0x13
 2191 0127 00       		.byte	0
 2192 0128 00       		.byte	0
 2193 0129 18       		.uleb128 0x18
 2194 012a 21       		.uleb128 0x21
 2195 012b 00       		.byte	0
 2196 012c 49       		.uleb128 0x49
 2197 012d 13       		.uleb128 0x13
 2198 012e 2F       		.uleb128 0x2f
 2199 012f 0B       		.uleb128 0xb
 2200 0130 00       		.byte	0
 2201 0131 00       		.byte	0
 2202 0132 19       		.uleb128 0x19
 2203 0133 17       		.uleb128 0x17
 2204 0134 01       		.byte	0x1
 2205 0135 0B       		.uleb128 0xb
 2206 0136 0B       		.uleb128 0xb
 2207 0137 3A       		.uleb128 0x3a
 2208 0138 0B       		.uleb128 0xb
 2209 0139 3B       		.uleb128 0x3b
 2210 013a 0B       		.uleb128 0xb
 2211 013b 01       		.uleb128 0x1
 2212 013c 13       		.uleb128 0x13
 2213 013d 00       		.byte	0
 2214 013e 00       		.byte	0
 2215 013f 1A       		.uleb128 0x1a
 2216 0140 0D       		.uleb128 0xd
 2217 0141 00       		.byte	0
 2218 0142 03       		.uleb128 0x3
 2219 0143 0E       		.uleb128 0xe
 2220 0144 3A       		.uleb128 0x3a
 2221 0145 0B       		.uleb128 0xb
 2222 0146 3B       		.uleb128 0x3b
 2223 0147 05       		.uleb128 0x5
ARM GAS  C:\Users\ARNAUD~1\AppData\Local\Temp\ccJXLAlt.s 			page 40


 2224 0148 49       		.uleb128 0x49
 2225 0149 13       		.uleb128 0x13
 2226 014a 00       		.byte	0
 2227 014b 00       		.byte	0
 2228 014c 1B       		.uleb128 0x1b
 2229 014d 26       		.uleb128 0x26
 2230 014e 00       		.byte	0
 2231 014f 49       		.uleb128 0x49
 2232 0150 13       		.uleb128 0x13
 2233 0151 00       		.byte	0
 2234 0152 00       		.byte	0
 2235 0153 1C       		.uleb128 0x1c
 2236 0154 34       		.uleb128 0x34
 2237 0155 00       		.byte	0
 2238 0156 03       		.uleb128 0x3
 2239 0157 08       		.uleb128 0x8
 2240 0158 3A       		.uleb128 0x3a
 2241 0159 0B       		.uleb128 0xb
 2242 015a 3B       		.uleb128 0x3b
 2243 015b 05       		.uleb128 0x5
 2244 015c 49       		.uleb128 0x49
 2245 015d 13       		.uleb128 0x13
 2246 015e 3F       		.uleb128 0x3f
 2247 015f 19       		.uleb128 0x19
 2248 0160 3C       		.uleb128 0x3c
 2249 0161 19       		.uleb128 0x19
 2250 0162 00       		.byte	0
 2251 0163 00       		.byte	0
 2252 0164 1D       		.uleb128 0x1d
 2253 0165 34       		.uleb128 0x34
 2254 0166 00       		.byte	0
 2255 0167 03       		.uleb128 0x3
 2256 0168 0E       		.uleb128 0xe
 2257 0169 3A       		.uleb128 0x3a
 2258 016a 0B       		.uleb128 0xb
 2259 016b 3B       		.uleb128 0x3b
 2260 016c 0B       		.uleb128 0xb
 2261 016d 49       		.uleb128 0x49
 2262 016e 13       		.uleb128 0x13
 2263 016f 00       		.byte	0
 2264 0170 00       		.byte	0
 2265 0171 1E       		.uleb128 0x1e
 2266 0172 2E       		.uleb128 0x2e
 2267 0173 01       		.byte	0x1
 2268 0174 3F       		.uleb128 0x3f
 2269 0175 19       		.uleb128 0x19
 2270 0176 03       		.uleb128 0x3
 2271 0177 0E       		.uleb128 0xe
 2272 0178 3A       		.uleb128 0x3a
 2273 0179 0B       		.uleb128 0xb
 2274 017a 3B       		.uleb128 0x3b
 2275 017b 0B       		.uleb128 0xb
 2276 017c 27       		.uleb128 0x27
 2277 017d 19       		.uleb128 0x19
 2278 017e 01       		.uleb128 0x1
 2279 017f 13       		.uleb128 0x13
 2280 0180 00       		.byte	0
ARM GAS  C:\Users\ARNAUD~1\AppData\Local\Temp\ccJXLAlt.s 			page 41


 2281 0181 00       		.byte	0
 2282 0182 1F       		.uleb128 0x1f
 2283 0183 05       		.uleb128 0x5
 2284 0184 00       		.byte	0
 2285 0185 03       		.uleb128 0x3
 2286 0186 0E       		.uleb128 0xe
 2287 0187 3A       		.uleb128 0x3a
 2288 0188 0B       		.uleb128 0xb
 2289 0189 3B       		.uleb128 0x3b
 2290 018a 0B       		.uleb128 0xb
 2291 018b 49       		.uleb128 0x49
 2292 018c 13       		.uleb128 0x13
 2293 018d 00       		.byte	0
 2294 018e 00       		.byte	0
 2295 018f 20       		.uleb128 0x20
 2296 0190 2E       		.uleb128 0x2e
 2297 0191 01       		.byte	0x1
 2298 0192 3F       		.uleb128 0x3f
 2299 0193 19       		.uleb128 0x19
 2300 0194 03       		.uleb128 0x3
 2301 0195 0E       		.uleb128 0xe
 2302 0196 3A       		.uleb128 0x3a
 2303 0197 0B       		.uleb128 0xb
 2304 0198 3B       		.uleb128 0x3b
 2305 0199 0B       		.uleb128 0xb
 2306 019a 27       		.uleb128 0x27
 2307 019b 19       		.uleb128 0x19
 2308 019c 20       		.uleb128 0x20
 2309 019d 0B       		.uleb128 0xb
 2310 019e 01       		.uleb128 0x1
 2311 019f 13       		.uleb128 0x13
 2312 01a0 00       		.byte	0
 2313 01a1 00       		.byte	0
 2314 01a2 21       		.uleb128 0x21
 2315 01a3 2E       		.uleb128 0x2e
 2316 01a4 00       		.byte	0
 2317 01a5 3F       		.uleb128 0x3f
 2318 01a6 19       		.uleb128 0x19
 2319 01a7 03       		.uleb128 0x3
 2320 01a8 0E       		.uleb128 0xe
 2321 01a9 3A       		.uleb128 0x3a
 2322 01aa 0B       		.uleb128 0xb
 2323 01ab 3B       		.uleb128 0x3b
 2324 01ac 0B       		.uleb128 0xb
 2325 01ad 00       		.byte	0
 2326 01ae 00       		.byte	0
 2327 01af 22       		.uleb128 0x22
 2328 01b0 2E       		.uleb128 0x2e
 2329 01b1 00       		.byte	0
 2330 01b2 3F       		.uleb128 0x3f
 2331 01b3 19       		.uleb128 0x19
 2332 01b4 03       		.uleb128 0x3
 2333 01b5 0E       		.uleb128 0xe
 2334 01b6 3A       		.uleb128 0x3a
 2335 01b7 0B       		.uleb128 0xb
 2336 01b8 3B       		.uleb128 0x3b
 2337 01b9 0B       		.uleb128 0xb
ARM GAS  C:\Users\ARNAUD~1\AppData\Local\Temp\ccJXLAlt.s 			page 42


 2338 01ba 20       		.uleb128 0x20
 2339 01bb 0B       		.uleb128 0xb
 2340 01bc 00       		.byte	0
 2341 01bd 00       		.byte	0
 2342 01be 23       		.uleb128 0x23
 2343 01bf 2E       		.uleb128 0x2e
 2344 01c0 01       		.byte	0x1
 2345 01c1 3F       		.uleb128 0x3f
 2346 01c2 19       		.uleb128 0x19
 2347 01c3 03       		.uleb128 0x3
 2348 01c4 0E       		.uleb128 0xe
 2349 01c5 3A       		.uleb128 0x3a
 2350 01c6 0B       		.uleb128 0xb
 2351 01c7 3B       		.uleb128 0x3b
 2352 01c8 0B       		.uleb128 0xb
 2353 01c9 27       		.uleb128 0x27
 2354 01ca 19       		.uleb128 0x19
 2355 01cb 11       		.uleb128 0x11
 2356 01cc 01       		.uleb128 0x1
 2357 01cd 12       		.uleb128 0x12
 2358 01ce 06       		.uleb128 0x6
 2359 01cf 40       		.uleb128 0x40
 2360 01d0 18       		.uleb128 0x18
 2361 01d1 9742     		.uleb128 0x2117
 2362 01d3 19       		.uleb128 0x19
 2363 01d4 01       		.uleb128 0x1
 2364 01d5 13       		.uleb128 0x13
 2365 01d6 00       		.byte	0
 2366 01d7 00       		.byte	0
 2367 01d8 24       		.uleb128 0x24
 2368 01d9 05       		.uleb128 0x5
 2369 01da 00       		.byte	0
 2370 01db 03       		.uleb128 0x3
 2371 01dc 0E       		.uleb128 0xe
 2372 01dd 3A       		.uleb128 0x3a
 2373 01de 0B       		.uleb128 0xb
 2374 01df 3B       		.uleb128 0x3b
 2375 01e0 0B       		.uleb128 0xb
 2376 01e1 49       		.uleb128 0x49
 2377 01e2 13       		.uleb128 0x13
 2378 01e3 02       		.uleb128 0x2
 2379 01e4 17       		.uleb128 0x17
 2380 01e5 00       		.byte	0
 2381 01e6 00       		.byte	0
 2382 01e7 25       		.uleb128 0x25
 2383 01e8 898201   		.uleb128 0x4109
 2384 01eb 00       		.byte	0
 2385 01ec 11       		.uleb128 0x11
 2386 01ed 01       		.uleb128 0x1
 2387 01ee 31       		.uleb128 0x31
 2388 01ef 13       		.uleb128 0x13
 2389 01f0 00       		.byte	0
 2390 01f1 00       		.byte	0
 2391 01f2 26       		.uleb128 0x26
 2392 01f3 2E       		.uleb128 0x2e
 2393 01f4 01       		.byte	0x1
 2394 01f5 31       		.uleb128 0x31
ARM GAS  C:\Users\ARNAUD~1\AppData\Local\Temp\ccJXLAlt.s 			page 43


 2395 01f6 13       		.uleb128 0x13
 2396 01f7 11       		.uleb128 0x11
 2397 01f8 01       		.uleb128 0x1
 2398 01f9 12       		.uleb128 0x12
 2399 01fa 06       		.uleb128 0x6
 2400 01fb 40       		.uleb128 0x40
 2401 01fc 18       		.uleb128 0x18
 2402 01fd 9742     		.uleb128 0x2117
 2403 01ff 19       		.uleb128 0x19
 2404 0200 01       		.uleb128 0x1
 2405 0201 13       		.uleb128 0x13
 2406 0202 00       		.byte	0
 2407 0203 00       		.byte	0
 2408 0204 27       		.uleb128 0x27
 2409 0205 05       		.uleb128 0x5
 2410 0206 00       		.byte	0
 2411 0207 31       		.uleb128 0x31
 2412 0208 13       		.uleb128 0x13
 2413 0209 02       		.uleb128 0x2
 2414 020a 17       		.uleb128 0x17
 2415 020b 00       		.byte	0
 2416 020c 00       		.byte	0
 2417 020d 28       		.uleb128 0x28
 2418 020e 2E       		.uleb128 0x2e
 2419 020f 00       		.byte	0
 2420 0210 3F       		.uleb128 0x3f
 2421 0211 19       		.uleb128 0x19
 2422 0212 3C       		.uleb128 0x3c
 2423 0213 19       		.uleb128 0x19
 2424 0214 6E       		.uleb128 0x6e
 2425 0215 0E       		.uleb128 0xe
 2426 0216 03       		.uleb128 0x3
 2427 0217 0E       		.uleb128 0xe
 2428 0218 00       		.byte	0
 2429 0219 00       		.byte	0
 2430 021a 00       		.byte	0
 2431              		.section	.debug_loc,"",%progbits
 2432              	.Ldebug_loc0:
 2433              	.LLST0:
 2434 0000 00000000 		.4byte	.LVL0
 2435 0004 1B000000 		.4byte	.LVL1-1
 2436 0008 0100     		.2byte	0x1
 2437 000a 50       		.byte	0x50
 2438 000b 1B000000 		.4byte	.LVL1-1
 2439 000f 20000000 		.4byte	.LFE220
 2440 0013 0400     		.2byte	0x4
 2441 0015 F3       		.byte	0xf3
 2442 0016 01       		.uleb128 0x1
 2443 0017 50       		.byte	0x50
 2444 0018 9F       		.byte	0x9f
 2445 0019 00000000 		.4byte	0
 2446 001d 00000000 		.4byte	0
 2447              	.LLST1:
 2448 0021 00000000 		.4byte	.LVL3
 2449 0025 1B000000 		.4byte	.LVL5-1
 2450 0029 0100     		.2byte	0x1
 2451 002b 50       		.byte	0x50
ARM GAS  C:\Users\ARNAUD~1\AppData\Local\Temp\ccJXLAlt.s 			page 44


 2452 002c 1B000000 		.4byte	.LVL5-1
 2453 0030 20000000 		.4byte	.LFE224
 2454 0034 0400     		.2byte	0x4
 2455 0036 F3       		.byte	0xf3
 2456 0037 01       		.uleb128 0x1
 2457 0038 50       		.byte	0x50
 2458 0039 9F       		.byte	0x9f
 2459 003a 00000000 		.4byte	0
 2460 003e 00000000 		.4byte	0
 2461              	.LLST2:
 2462 0042 00000000 		.4byte	.LVL3
 2463 0046 1B000000 		.4byte	.LVL5-1
 2464 004a 0100     		.2byte	0x1
 2465 004c 51       		.byte	0x51
 2466 004d 1B000000 		.4byte	.LVL5-1
 2467 0051 20000000 		.4byte	.LFE224
 2468 0055 0400     		.2byte	0x4
 2469 0057 F3       		.byte	0xf3
 2470 0058 01       		.uleb128 0x1
 2471 0059 51       		.byte	0x51
 2472 005a 9F       		.byte	0x9f
 2473 005b 00000000 		.4byte	0
 2474 005f 00000000 		.4byte	0
 2475              	.LLST3:
 2476 0063 00000000 		.4byte	.LVL3
 2477 0067 08000000 		.4byte	.LVL4
 2478 006b 0100     		.2byte	0x1
 2479 006d 52       		.byte	0x52
 2480 006e 08000000 		.4byte	.LVL4
 2481 0072 20000000 		.4byte	.LFE224
 2482 0076 0400     		.2byte	0x4
 2483 0078 F3       		.byte	0xf3
 2484 0079 01       		.uleb128 0x1
 2485 007a 52       		.byte	0x52
 2486 007b 9F       		.byte	0x9f
 2487 007c 00000000 		.4byte	0
 2488 0080 00000000 		.4byte	0
 2489              		.section	.debug_aranges,"",%progbits
 2490 0000 2C000000 		.4byte	0x2c
 2491 0004 0200     		.2byte	0x2
 2492 0006 00000000 		.4byte	.Ldebug_info0
 2493 000a 04       		.byte	0x4
 2494 000b 00       		.byte	0
 2495 000c 0000     		.2byte	0
 2496 000e 0000     		.2byte	0
 2497 0010 00000000 		.4byte	.LFB220
 2498 0014 20000000 		.4byte	.LFE220-.LFB220
 2499 0018 00000000 		.4byte	.LFB221
 2500 001c 20000000 		.4byte	.LFE221-.LFB221
 2501 0020 00000000 		.4byte	.LFB224
 2502 0024 20000000 		.4byte	.LFE224-.LFB224
 2503 0028 00000000 		.4byte	0
 2504 002c 00000000 		.4byte	0
 2505              		.section	.debug_ranges,"",%progbits
 2506              	.Ldebug_ranges0:
 2507 0000 00000000 		.4byte	.LFB220
 2508 0004 20000000 		.4byte	.LFE220
ARM GAS  C:\Users\ARNAUD~1\AppData\Local\Temp\ccJXLAlt.s 			page 45


 2509 0008 00000000 		.4byte	.LFB221
 2510 000c 20000000 		.4byte	.LFE221
 2511 0010 00000000 		.4byte	.LFB224
 2512 0014 20000000 		.4byte	.LFE224
 2513 0018 00000000 		.4byte	0
 2514 001c 00000000 		.4byte	0
 2515              		.section	.debug_line,"",%progbits
 2516              	.Ldebug_line0:
 2517 0000 7C030000 		.section	.debug_str,"MS",%progbits,1
 2517      02004203 
 2517      00000201 
 2517      FB0E0D00 
 2517      01010101 
 2518              	.LASF145:
 2519 0000 63665F6F 		.ascii	"cf_off_older\000"
 2519      66665F6F 
 2519      6C646572 
 2519      00
 2520              	.LASF60:
 2521 000d 72656164 		.ascii	"ready_list_t\000"
 2521      795F6C69 
 2521      73745F74 
 2521      00
 2522              	.LASF98:
 2523 001a 73655F74 		.ascii	"se_time\000"
 2523      696D6500 
 2524              	.LASF122:
 2525 0022 77747472 		.ascii	"wttrp\000"
 2525      7000
 2526              	.LASF119:
 2527 0028 7264796D 		.ascii	"rdymsg\000"
 2527      736700
 2528              	.LASF18:
 2529 002f 75696E74 		.ascii	"uint64_t\000"
 2529      36345F74 
 2529      00
 2530              	.LASF90:
 2531 0038 6B65726E 		.ascii	"kernel_stats\000"
 2531      656C5F73 
 2531      74617473 
 2531      00
 2532              	.LASF162:
 2533 0045 626C696E 		.ascii	"blink_LED_5\000"
 2533      6B5F4C45 
 2533      445F3500 
 2534              	.LASF3:
 2535 0051 5F5F7569 		.ascii	"__uint8_t\000"
 2535      6E74385F 
 2535      7400
 2536              	.LASF97:
 2537 005b 706F7274 		.ascii	"port_intctx\000"
 2537      5F696E74 
 2537      63747800 
 2538              	.LASF59:
 2539 0067 63685F74 		.ascii	"ch_threads_queue\000"
 2539      68726561 
 2539      64735F71 
ARM GAS  C:\Users\ARNAUD~1\AppData\Local\Temp\ccJXLAlt.s 			page 46


 2539      75657565 
 2539      00
 2540              	.LASF79:
 2541 0078 73797374 		.ascii	"system_debug_t\000"
 2541      656D5F64 
 2541      65627567 
 2541      5F7400
 2542              	.LASF110:
 2543 0087 776F7273 		.ascii	"worst\000"
 2543      7400
 2544              	.LASF113:
 2545 008d 74696D65 		.ascii	"time_measurement_t\000"
 2545      5F6D6561 
 2545      73757265 
 2545      6D656E74 
 2545      5F7400
 2546              	.LASF12:
 2547 00a0 6C6F6E67 		.ascii	"long long unsigned int\000"
 2547      206C6F6E 
 2547      6720756E 
 2547      7369676E 
 2547      65642069 
 2548              	.LASF106:
 2549 00b7 63685F74 		.ascii	"ch_trace_buffer_t\000"
 2549      72616365 
 2549      5F627566 
 2549      6665725F 
 2549      7400
 2550              	.LASF141:
 2551 00c9 63685F74 		.ascii	"ch_threadsize\000"
 2551      68726561 
 2551      6473697A 
 2551      6500
 2552              	.LASF172:
 2553 00d7 66756C6C 		.ascii	"full_rotation\000"
 2553      5F726F74 
 2553      6174696F 
 2553      6E00
 2554              	.LASF120:
 2555 00e5 65786974 		.ascii	"exitcode\000"
 2555      636F6465 
 2555      00
 2556              	.LASF89:
 2557 00ee 6D61696E 		.ascii	"mainthread\000"
 2557      74687265 
 2557      616400
 2558              	.LASF160:
 2559 00f9 626C696E 		.ascii	"blink_LED_FRONT\000"
 2559      6B5F4C45 
 2559      445F4652 
 2559      4F4E5400 
 2560              	.LASF76:
 2561 0109 76697274 		.ascii	"virtual_timers_list_t\000"
 2561      75616C5F 
 2561      74696D65 
 2561      72735F6C 
 2561      6973745F 
ARM GAS  C:\Users\ARNAUD~1\AppData\Local\Temp\ccJXLAlt.s 			page 47


 2562              	.LASF92:
 2563 011f 49544D5F 		.ascii	"ITM_RxBuffer\000"
 2563      52784275 
 2563      66666572 
 2563      00
 2564              	.LASF21:
 2565 012c 72747469 		.ascii	"rttime_t\000"
 2565      6D655F74 
 2565      00
 2566              	.LASF35:
 2567 0135 705F7072 		.ascii	"p_prio\000"
 2567      696F00
 2568              	.LASF148:
 2569 013c 63665F6F 		.ascii	"cf_off_state\000"
 2569      66665F73 
 2569      74617465 
 2569      00
 2570              	.LASF155:
 2571 0149 6D757465 		.ascii	"mutex_t\000"
 2571      785F7400 
 2572              	.LASF10:
 2573 0151 6C6F6E67 		.ascii	"long long int\000"
 2573      206C6F6E 
 2573      6720696E 
 2573      7400
 2574              	.LASF0:
 2575 015f 7369676E 		.ascii	"signed char\000"
 2575      65642063 
 2575      68617200 
 2576              	.LASF147:
 2577 016b 63665F6F 		.ascii	"cf_off_stklimit\000"
 2577      66665F73 
 2577      746B6C69 
 2577      6D697400 
 2578              	.LASF149:
 2579 017b 63665F6F 		.ascii	"cf_off_flags\000"
 2579      66665F66 
 2579      6C616773 
 2579      00
 2580              	.LASF52:
 2581 0188 705F6D70 		.ascii	"p_mpool\000"
 2581      6F6F6C00 
 2582              	.LASF130:
 2583 0190 6D5F7175 		.ascii	"m_queue\000"
 2583      65756500 
 2584              	.LASF165:
 2585 0198 6D6F7665 		.ascii	"move_forward\000"
 2585      5F666F72 
 2585      77617264 
 2585      00
 2586              	.LASF88:
 2587 01a5 76746C69 		.ascii	"vtlist\000"
 2587      737400
 2588              	.LASF25:
 2589 01ac 74736C69 		.ascii	"tslices_t\000"
 2589      6365735F 
 2589      7400
ARM GAS  C:\Users\ARNAUD~1\AppData\Local\Temp\ccJXLAlt.s 			page 48


 2590              	.LASF86:
 2591 01b6 63685F73 		.ascii	"ch_system\000"
 2591      79737465 
 2591      6D00
 2592              	.LASF7:
 2593 01c0 6C6F6E67 		.ascii	"long int\000"
 2593      20696E74 
 2593      00
 2594              	.LASF23:
 2595 01c9 74737461 		.ascii	"tstate_t\000"
 2595      74655F74 
 2595      00
 2596              	.LASF99:
 2597 01d2 73655F74 		.ascii	"se_tp\000"
 2597      7000
 2598              	.LASF37:
 2599 01d8 705F6E65 		.ascii	"p_newer\000"
 2599      77657200 
 2600              	.LASF127:
 2601 01e0 735F7175 		.ascii	"s_queue\000"
 2601      65756500 
 2602              	.LASF168:
 2603 01e8 433A5C55 		.ascii	"C:\\Users\\arnaud wist\\projet\\robotique_mondada\\"
 2603      73657273 
 2603      5C61726E 
 2603      61756420 
 2603      77697374 
 2604 0216 70726F6A 		.ascii	"projet\\robotics_project\\project_robot_dance\\robo"
 2604      65745C72 
 2604      6F626F74 
 2604      6963735F 
 2604      70726F6A 
 2605 0246 745F6461 		.ascii	"t_dance\000"
 2605      6E636500 
 2606              	.LASF103:
 2607 024e 74625F73 		.ascii	"tb_size\000"
 2607      697A6500 
 2608              	.LASF65:
 2609 0256 725F6E65 		.ascii	"r_newer\000"
 2609      77657200 
 2610              	.LASF94:
 2611 025e 72656761 		.ascii	"regarm_t\000"
 2611      726D5F74 
 2611      00
 2612              	.LASF72:
 2613 0267 76745F70 		.ascii	"vt_prev\000"
 2613      72657600 
 2614              	.LASF80:
 2615 026f 63685F73 		.ascii	"ch_system_debug\000"
 2615      79737465 
 2615      6D5F6465 
 2615      62756700 
 2616              	.LASF133:
 2617 027f 6D5F636E 		.ascii	"m_cnt\000"
 2617      7400
 2618              	.LASF71:
 2619 0285 76745F6E 		.ascii	"vt_next\000"
ARM GAS  C:\Users\ARNAUD~1\AppData\Local\Temp\ccJXLAlt.s 			page 49


 2619      65787400 
 2620              	.LASF83:
 2621 028d 6C6F636B 		.ascii	"lock_cnt\000"
 2621      5F636E74 
 2621      00
 2622              	.LASF91:
 2623 0296 69646C65 		.ascii	"idle_thread_wa\000"
 2623      5F746872 
 2623      6561645F 
 2623      776100
 2624              	.LASF29:
 2625 02a5 636E745F 		.ascii	"cnt_t\000"
 2625      7400
 2626              	.LASF40:
 2627 02ab 705F7374 		.ascii	"p_stklimit\000"
 2627      6B6C696D 
 2627      697400
 2628              	.LASF13:
 2629 02b6 756E7369 		.ascii	"unsigned int\000"
 2629      676E6564 
 2629      20696E74 
 2629      00
 2630              	.LASF156:
 2631 02c3 69746572 		.ascii	"iteration\000"
 2631      6174696F 
 2631      6E00
 2632              	.LASF166:
 2633 02cd 474E5520 		.ascii	"GNU C11 7.2.1 20170904 (release) [ARM/embedded-7-br"
 2633      43313120 
 2633      372E322E 
 2633      31203230 
 2633      31373039 
 2634 0300 616E6368 		.ascii	"anch revision 255204] -mcpu=cortex-m4 -mfloat-abi=h"
 2634      20726576 
 2634      6973696F 
 2634      6E203235 
 2634      35323034 
 2635 0333 61726420 		.ascii	"ard -mfpu=fpv4-sp-d16 -mno-thumb-interwork -mthumb "
 2635      2D6D6670 
 2635      753D6670 
 2635      76342D73 
 2635      702D6431 
 2636 0366 2D676764 		.ascii	"-ggdb -O2 -fomit-frame-pointer -falign-functions=16"
 2636      62202D4F 
 2636      32202D66 
 2636      6F6D6974 
 2636      2D667261 
 2637 0399 202D666E 		.ascii	" -fno-strict-aliasing -fstack-protector-all -ffunct"
 2637      6F2D7374 
 2637      72696374 
 2637      2D616C69 
 2637      6173696E 
 2638 03cc 696F6E2D 		.ascii	"ion-sections -fdata-sections -fno-common -fsingle-p"
 2638      73656374 
 2638      696F6E73 
 2638      202D6664 
 2638      6174612D 
ARM GAS  C:\Users\ARNAUD~1\AppData\Local\Temp\ccJXLAlt.s 			page 50


 2639 03ff 72656369 		.ascii	"recision-constant\000"
 2639      73696F6E 
 2639      2D636F6E 
 2639      7374616E 
 2639      7400
 2640              	.LASF15:
 2641 0411 75696E74 		.ascii	"uint16_t\000"
 2641      31365F74 
 2641      00
 2642              	.LASF93:
 2643 041a 53797374 		.ascii	"SystemCoreClock\000"
 2643      656D436F 
 2643      7265436C 
 2643      6F636B00 
 2644              	.LASF45:
 2645 042a 705F7469 		.ascii	"p_time\000"
 2645      6D6500
 2646              	.LASF123:
 2647 0431 77747365 		.ascii	"wtsemp\000"
 2647      6D7000
 2648              	.LASF73:
 2649 0438 76745F64 		.ascii	"vt_delta\000"
 2649      656C7461 
 2649      00
 2650              	.LASF47:
 2651 0441 705F6D73 		.ascii	"p_msgqueue\000"
 2651      67717565 
 2651      756500
 2652              	.LASF154:
 2653 044c 63685F64 		.ascii	"ch_debug\000"
 2653      65627567 
 2653      00
 2654              	.LASF56:
 2655 0455 63685F74 		.ascii	"ch_thread\000"
 2655      68726561 
 2655      6400
 2656              	.LASF114:
 2657 045f 6E5F6972 		.ascii	"n_irq\000"
 2657      7100
 2658              	.LASF128:
 2659 0465 735F636E 		.ascii	"s_cnt\000"
 2659      7400
 2660              	.LASF5:
 2661 046b 73686F72 		.ascii	"short unsigned int\000"
 2661      7420756E 
 2661      7369676E 
 2661      65642069 
 2661      6E7400
 2662              	.LASF118:
 2663 047e 6B65726E 		.ascii	"kernel_stats_t\000"
 2663      656C5F73 
 2663      74617473 
 2663      5F7400
 2664              	.LASF164:
 2665 048d 6D6F7665 		.ascii	"move_backward\000"
 2665      5F626163 
 2665      6B776172 
ARM GAS  C:\Users\ARNAUD~1\AppData\Local\Temp\ccJXLAlt.s 			page 51


 2665      6400
 2666              	.LASF27:
 2667 049b 6D73675F 		.ascii	"msg_t\000"
 2667      7400
 2668              	.LASF111:
 2669 04a1 6C617374 		.ascii	"last\000"
 2669      00
 2670              	.LASF30:
 2671 04a6 75636E74 		.ascii	"ucnt_t\000"
 2671      5F7400
 2672              	.LASF85:
 2673 04ad 63685F73 		.ascii	"ch_system_t\000"
 2673      79737465 
 2673      6D5F7400 
 2674              	.LASF159:
 2675 04b9 626C696E 		.ascii	"blink_LED_BODY\000"
 2675      6B5F4C45 
 2675      445F424F 
 2675      445900
 2676              	.LASF152:
 2677 04c8 63665F6F 		.ascii	"cf_off_time\000"
 2677      66665F74 
 2677      696D6500 
 2678              	.LASF167:
 2679 04d4 63686F72 		.ascii	"choreography.c\000"
 2679      656F6772 
 2679      61706879 
 2679      2E6300
 2680              	.LASF117:
 2681 04e3 6D5F6372 		.ascii	"m_crit_isr\000"
 2681      69745F69 
 2681      737200
 2682              	.LASF61:
 2683 04ee 63685F72 		.ascii	"ch_ready_list\000"
 2683      65616479 
 2683      5F6C6973 
 2683      7400
 2684              	.LASF28:
 2685 04fc 6576656E 		.ascii	"eventmask_t\000"
 2685      746D6173 
 2685      6B5F7400 
 2686              	.LASF6:
 2687 0508 5F5F696E 		.ascii	"__int32_t\000"
 2687      7433325F 
 2687      7400
 2688              	.LASF95:
 2689 0512 73746B61 		.ascii	"stkalign_t\000"
 2689      6C69676E 
 2689      5F7400
 2690              	.LASF55:
 2691 051d 74687265 		.ascii	"threads_list_t\000"
 2691      6164735F 
 2691      6C697374 
 2691      5F7400
 2692              	.LASF11:
 2693 052c 5F5F7569 		.ascii	"__uint64_t\000"
 2693      6E743634 
ARM GAS  C:\Users\ARNAUD~1\AppData\Local\Temp\ccJXLAlt.s 			page 52


 2693      5F7400
 2694              	.LASF136:
 2695 0537 63685F7A 		.ascii	"ch_zero\000"
 2695      65726F00 
 2696              	.LASF150:
 2697 053f 63665F6F 		.ascii	"cf_off_refs\000"
 2697      66665F72 
 2697      65667300 
 2698              	.LASF46:
 2699 054b 705F7761 		.ascii	"p_waiting\000"
 2699      6974696E 
 2699      6700
 2700              	.LASF20:
 2701 0555 7274636E 		.ascii	"rtcnt_t\000"
 2701      745F7400 
 2702              	.LASF77:
 2703 055d 63685F76 		.ascii	"ch_virtual_timers_list\000"
 2703      69727475 
 2703      616C5F74 
 2703      696D6572 
 2703      735F6C69 
 2704              	.LASF19:
 2705 0574 6C6F6E67 		.ascii	"long double\000"
 2705      20646F75 
 2705      626C6500 
 2706              	.LASF140:
 2707 0580 63685F74 		.ascii	"ch_timesize\000"
 2707      696D6573 
 2707      697A6500 
 2708              	.LASF104:
 2709 058c 74625F70 		.ascii	"tb_ptr\000"
 2709      747200
 2710              	.LASF102:
 2711 0593 63685F73 		.ascii	"ch_swc_event_t\000"
 2711      77635F65 
 2711      76656E74 
 2711      5F7400
 2712              	.LASF146:
 2713 05a2 63665F6F 		.ascii	"cf_off_name\000"
 2713      66665F6E 
 2713      616D6500 
 2714              	.LASF38:
 2715 05ae 705F6F6C 		.ascii	"p_older\000"
 2715      64657200 
 2716              	.LASF64:
 2717 05b6 725F6374 		.ascii	"r_ctx\000"
 2717      7800
 2718              	.LASF36:
 2719 05bc 705F6374 		.ascii	"p_ctx\000"
 2719      7800
 2720              	.LASF108:
 2721 05c2 746D5F63 		.ascii	"tm_calibration_t\000"
 2721      616C6962 
 2721      72617469 
 2721      6F6E5F74 
 2721      00
 2722              	.LASF67:
ARM GAS  C:\Users\ARNAUD~1\AppData\Local\Temp\ccJXLAlt.s 			page 53


 2723 05d3 725F6375 		.ascii	"r_current\000"
 2723      7272656E 
 2723      7400
 2724              	.LASF66:
 2725 05dd 725F6F6C 		.ascii	"r_older\000"
 2725      64657200 
 2726              	.LASF170:
 2727 05e5 626C696E 		.ascii	"blink_LED_1\000"
 2727      6B5F4C45 
 2727      445F3100 
 2728              	.LASF163:
 2729 05f1 626C696E 		.ascii	"blink_LED_3\000"
 2729      6B5F4C45 
 2729      445F3300 
 2730              	.LASF112:
 2731 05fd 63756D75 		.ascii	"cumulative\000"
 2731      6C617469 
 2731      766500
 2732              	.LASF161:
 2733 0608 626C696E 		.ascii	"blink_LED_7\000"
 2733      6B5F4C45 
 2733      445F3700 
 2734              	.LASF24:
 2735 0614 74726566 		.ascii	"trefs_t\000"
 2735      735F7400 
 2736              	.LASF105:
 2737 061c 74625F62 		.ascii	"tb_buffer\000"
 2737      75666665 
 2737      7200
 2738              	.LASF139:
 2739 0626 63685F70 		.ascii	"ch_ptrsize\000"
 2739      74727369 
 2739      7A6500
 2740              	.LASF169:
 2741 0631 77615468 		.ascii	"waThdDance\000"
 2741      6444616E 
 2741      636500
 2742              	.LASF69:
 2743 063c 76697274 		.ascii	"virtual_timer_t\000"
 2743      75616C5F 
 2743      74696D65 
 2743      725F7400 
 2744              	.LASF34:
 2745 064c 705F7072 		.ascii	"p_prev\000"
 2745      657600
 2746              	.LASF26:
 2747 0653 74707269 		.ascii	"tprio_t\000"
 2747      6F5F7400 
 2748              	.LASF115:
 2749 065b 6E5F6374 		.ascii	"n_ctxswc\000"
 2749      78737763 
 2749      00
 2750              	.LASF16:
 2751 0664 696E7433 		.ascii	"int32_t\000"
 2751      325F7400 
 2752              	.LASF1:
 2753 066c 756E7369 		.ascii	"unsigned char\000"
ARM GAS  C:\Users\ARNAUD~1\AppData\Local\Temp\ccJXLAlt.s 			page 54


 2753      676E6564 
 2753      20636861 
 2753      7200
 2754              	.LASF50:
 2755 067a 705F6D74 		.ascii	"p_mtxlist\000"
 2755      786C6973 
 2755      7400
 2756              	.LASF2:
 2757 0684 73686F72 		.ascii	"short int\000"
 2757      7420696E 
 2757      7400
 2758              	.LASF41:
 2759 068e 705F7374 		.ascii	"p_state\000"
 2759      61746500 
 2760              	.LASF44:
 2761 0696 705F7072 		.ascii	"p_preempt\000"
 2761      65656D70 
 2761      7400
 2762              	.LASF63:
 2763 06a0 725F7072 		.ascii	"r_prio\000"
 2763      696F00
 2764              	.LASF125:
 2765 06a7 65776D61 		.ascii	"ewmask\000"
 2765      736B00
 2766              	.LASF33:
 2767 06ae 705F6E65 		.ascii	"p_next\000"
 2767      787400
 2768              	.LASF22:
 2769 06b5 746D6F64 		.ascii	"tmode_t\000"
 2769      655F7400 
 2770              	.LASF151:
 2771 06bd 63665F6F 		.ascii	"cf_off_preempt\000"
 2771      66665F70 
 2771      7265656D 
 2771      707400
 2772              	.LASF42:
 2773 06cc 705F666C 		.ascii	"p_flags\000"
 2773      61677300 
 2774              	.LASF53:
 2775 06d4 705F7374 		.ascii	"p_stats\000"
 2775      61747300 
 2776              	.LASF58:
 2777 06dc 74687265 		.ascii	"threads_queue_t\000"
 2777      6164735F 
 2777      71756575 
 2777      655F7400 
 2778              	.LASF70:
 2779 06ec 63685F76 		.ascii	"ch_virtual_timer\000"
 2779      69727475 
 2779      616C5F74 
 2779      696D6572 
 2779      00
 2780              	.LASF144:
 2781 06fd 63665F6F 		.ascii	"cf_off_newer\000"
 2781      66665F6E 
 2781      65776572 
 2781      00
ARM GAS  C:\Users\ARNAUD~1\AppData\Local\Temp\ccJXLAlt.s 			page 55


 2782              	.LASF173:
 2783 070a 5F5F7374 		.ascii	"__stack_chk_fail\000"
 2783      61636B5F 
 2783      63686B5F 
 2783      6661696C 
 2783      00
 2784              	.LASF126:
 2785 071b 63685F73 		.ascii	"ch_semaphore\000"
 2785      656D6170 
 2785      686F7265 
 2785      00
 2786              	.LASF49:
 2787 0728 705F6570 		.ascii	"p_epending\000"
 2787      656E6469 
 2787      6E6700
 2788              	.LASF157:
 2789 0733 64656C61 		.ascii	"delay1\000"
 2789      793100
 2790              	.LASF158:
 2791 073a 64656C61 		.ascii	"delay2\000"
 2791      793200
 2792              	.LASF17:
 2793 0741 75696E74 		.ascii	"uint32_t\000"
 2793      33325F74 
 2793      00
 2794              	.LASF142:
 2795 074a 63665F6F 		.ascii	"cf_off_prio\000"
 2795      66665F70 
 2795      72696F00 
 2796              	.LASF62:
 2797 0756 725F7175 		.ascii	"r_queue\000"
 2797      65756500 
 2798              	.LASF57:
 2799 075e 63685F74 		.ascii	"ch_threads_list\000"
 2799      68726561 
 2799      64735F6C 
 2799      69737400 
 2800              	.LASF137:
 2801 076e 63685F73 		.ascii	"ch_size\000"
 2801      697A6500 
 2802              	.LASF9:
 2803 0776 6C6F6E67 		.ascii	"long unsigned int\000"
 2803      20756E73 
 2803      69676E65 
 2803      6420696E 
 2803      7400
 2804              	.LASF134:
 2805 0788 63686172 		.ascii	"char\000"
 2805      00
 2806              	.LASF124:
 2807 078d 77746D74 		.ascii	"wtmtxp\000"
 2807      787000
 2808              	.LASF4:
 2809 0794 5F5F7569 		.ascii	"__uint16_t\000"
 2809      6E743136 
 2809      5F7400
 2810              	.LASF171:
ARM GAS  C:\Users\ARNAUD~1\AppData\Local\Temp\ccJXLAlt.s 			page 56


 2811 079f 7475726E 		.ascii	"turn_around\000"
 2811      5F61726F 
 2811      756E6400 
 2812              	.LASF32:
 2813 07ab 74687265 		.ascii	"thread_t\000"
 2813      61645F74 
 2813      00
 2814              	.LASF109:
 2815 07b4 62657374 		.ascii	"best\000"
 2815      00
 2816              	.LASF132:
 2817 07b9 6D5F6E65 		.ascii	"m_next\000"
 2817      787400
 2818              	.LASF31:
 2819 07c0 73797374 		.ascii	"systime_t\000"
 2819      696D655F 
 2819      7400
 2820              	.LASF51:
 2821 07ca 705F7265 		.ascii	"p_realprio\000"
 2821      616C7072 
 2821      696F00
 2822              	.LASF68:
 2823 07d5 76746675 		.ascii	"vtfunc_t\000"
 2823      6E635F74 
 2823      00
 2824              	.LASF8:
 2825 07de 5F5F7569 		.ascii	"__uint32_t\000"
 2825      6E743332 
 2825      5F7400
 2826              	.LASF81:
 2827 07e9 70616E69 		.ascii	"panic_msg\000"
 2827      635F6D73 
 2827      6700
 2828              	.LASF107:
 2829 07f3 6F666673 		.ascii	"offset\000"
 2829      657400
 2830              	.LASF96:
 2831 07fa 636F6E74 		.ascii	"context\000"
 2831      65787400 
 2832              	.LASF48:
 2833 0802 705F6D73 		.ascii	"p_msg\000"
 2833      6700
 2834              	.LASF75:
 2835 0808 76745F70 		.ascii	"vt_par\000"
 2835      617200
 2836              	.LASF143:
 2837 080f 63665F6F 		.ascii	"cf_off_ctx\000"
 2837      66665F63 
 2837      747800
 2838              	.LASF129:
 2839 081a 63685F6D 		.ascii	"ch_mutex\000"
 2839      75746578 
 2839      00
 2840              	.LASF43:
 2841 0823 705F7265 		.ascii	"p_refs\000"
 2841      667300
 2842              	.LASF82:
ARM GAS  C:\Users\ARNAUD~1\AppData\Local\Temp\ccJXLAlt.s 			page 57


 2843 082a 6973725F 		.ascii	"isr_cnt\000"
 2843      636E7400 
 2844              	.LASF101:
 2845 0832 73655F73 		.ascii	"se_state\000"
 2845      74617465 
 2845      00
 2846              	.LASF87:
 2847 083b 726C6973 		.ascii	"rlist\000"
 2847      7400
 2848              	.LASF14:
 2849 0841 75696E74 		.ascii	"uint8_t\000"
 2849      385F7400 
 2850              	.LASF54:
 2851 0849 74687265 		.ascii	"thread_reference_t\000"
 2851      61645F72 
 2851      65666572 
 2851      656E6365 
 2851      5F7400
 2852              	.LASF121:
 2853 085c 77746F62 		.ascii	"wtobjp\000"
 2853      6A7000
 2854              	.LASF39:
 2855 0863 705F6E61 		.ascii	"p_name\000"
 2855      6D6500
 2856              	.LASF78:
 2857 086a 76745F73 		.ascii	"vt_systime\000"
 2857      79737469 
 2857      6D6500
 2858              	.LASF84:
 2859 0875 74726163 		.ascii	"trace_buffer\000"
 2859      655F6275 
 2859      66666572 
 2859      00
 2860              	.LASF138:
 2861 0882 63685F76 		.ascii	"ch_version\000"
 2861      65727369 
 2861      6F6E00
 2862              	.LASF116:
 2863 088d 6D5F6372 		.ascii	"m_crit_thd\000"
 2863      69745F74 
 2863      686400
 2864              	.LASF131:
 2865 0898 6D5F6F77 		.ascii	"m_owner\000"
 2865      6E657200 
 2866              	.LASF153:
 2867 08a0 63686465 		.ascii	"chdebug_t\000"
 2867      6275675F 
 2867      7400
 2868              	.LASF100:
 2869 08aa 73655F77 		.ascii	"se_wtobjp\000"
 2869      746F626A 
 2869      7000
 2870              	.LASF135:
 2871 08b4 63685F69 		.ascii	"ch_identifier\000"
 2871      64656E74 
 2871      69666965 
 2871      7200
ARM GAS  C:\Users\ARNAUD~1\AppData\Local\Temp\ccJXLAlt.s 			page 58


 2872              	.LASF74:
 2873 08c2 76745F66 		.ascii	"vt_func\000"
 2873      756E6300 
 2874              		.ident	"GCC: (GNU Tools for Arm Embedded Processors 7-2017-q4-major) 7.2.1 20170904 (release) [ARM
ARM GAS  C:\Users\ARNAUD~1\AppData\Local\Temp\ccJXLAlt.s 			page 59


DEFINED SYMBOLS
                            *ABS*:00000000 choreography.c
C:\Users\ARNAUD~1\AppData\Local\Temp\ccJXLAlt.s:18     .text.full_rotation:00000000 $t
C:\Users\ARNAUD~1\AppData\Local\Temp\ccJXLAlt.s:26     .text.full_rotation:00000000 full_rotation
C:\Users\ARNAUD~1\AppData\Local\Temp\ccJXLAlt.s:60     .text.full_rotation:0000001c $d
C:\Users\ARNAUD~1\AppData\Local\Temp\ccJXLAlt.s:65     .text.turn_around:00000000 $t
C:\Users\ARNAUD~1\AppData\Local\Temp\ccJXLAlt.s:73     .text.turn_around:00000000 turn_around
C:\Users\ARNAUD~1\AppData\Local\Temp\ccJXLAlt.s:105    .text.turn_around:0000001c $d
C:\Users\ARNAUD~1\AppData\Local\Temp\ccJXLAlt.s:110    .text.move_forward:00000000 $t
C:\Users\ARNAUD~1\AppData\Local\Temp\ccJXLAlt.s:118    .text.move_forward:00000000 move_forward
C:\Users\ARNAUD~1\AppData\Local\Temp\ccJXLAlt.s:146    .text.move_forward:0000001c $d
C:\Users\ARNAUD~1\AppData\Local\Temp\ccJXLAlt.s:151    .text.move_backward:00000000 $t
C:\Users\ARNAUD~1\AppData\Local\Temp\ccJXLAlt.s:159    .text.move_backward:00000000 move_backward
C:\Users\ARNAUD~1\AppData\Local\Temp\ccJXLAlt.s:187    .text.move_backward:0000001c $d
C:\Users\ARNAUD~1\AppData\Local\Temp\ccJXLAlt.s:192    .text.blink_LED_1:00000000 $t
C:\Users\ARNAUD~1\AppData\Local\Temp\ccJXLAlt.s:200    .text.blink_LED_1:00000000 blink_LED_1
C:\Users\ARNAUD~1\AppData\Local\Temp\ccJXLAlt.s:235    .text.blink_LED_1:0000001c $d
C:\Users\ARNAUD~1\AppData\Local\Temp\ccJXLAlt.s:240    .text.blink_LED_3:00000000 $t
C:\Users\ARNAUD~1\AppData\Local\Temp\ccJXLAlt.s:248    .text.blink_LED_3:00000000 blink_LED_3
C:\Users\ARNAUD~1\AppData\Local\Temp\ccJXLAlt.s:276    .text.blink_LED_3:0000001c $d
C:\Users\ARNAUD~1\AppData\Local\Temp\ccJXLAlt.s:281    .text.blink_LED_5:00000000 $t
C:\Users\ARNAUD~1\AppData\Local\Temp\ccJXLAlt.s:289    .text.blink_LED_5:00000000 blink_LED_5
C:\Users\ARNAUD~1\AppData\Local\Temp\ccJXLAlt.s:317    .text.blink_LED_5:0000001c $d
C:\Users\ARNAUD~1\AppData\Local\Temp\ccJXLAlt.s:322    .text.blink_LED_7:00000000 $t
C:\Users\ARNAUD~1\AppData\Local\Temp\ccJXLAlt.s:330    .text.blink_LED_7:00000000 blink_LED_7
C:\Users\ARNAUD~1\AppData\Local\Temp\ccJXLAlt.s:358    .text.blink_LED_7:0000001c $d
C:\Users\ARNAUD~1\AppData\Local\Temp\ccJXLAlt.s:363    .text.blink_LED_FRONT:00000000 $t
C:\Users\ARNAUD~1\AppData\Local\Temp\ccJXLAlt.s:371    .text.blink_LED_FRONT:00000000 blink_LED_FRONT
C:\Users\ARNAUD~1\AppData\Local\Temp\ccJXLAlt.s:399    .text.blink_LED_FRONT:0000001c $d
C:\Users\ARNAUD~1\AppData\Local\Temp\ccJXLAlt.s:404    .text.blink_LED_BODY:00000000 $t
C:\Users\ARNAUD~1\AppData\Local\Temp\ccJXLAlt.s:412    .text.blink_LED_BODY:00000000 blink_LED_BODY
C:\Users\ARNAUD~1\AppData\Local\Temp\ccJXLAlt.s:440    .text.blink_LED_BODY:0000001c $d

UNDEFINED SYMBOLS
__stack_chk_fail
__stack_chk_guard
