ARM GAS  C:\Users\ARNAUD~1\AppData\Local\Temp\ccq48BeX.s 			page 1


   1              		.cpu cortex-m4
   2              		.eabi_attribute 27, 1
   3              		.eabi_attribute 28, 1
   4              		.eabi_attribute 20, 1
   5              		.eabi_attribute 21, 1
   6              		.eabi_attribute 23, 3
   7              		.eabi_attribute 24, 1
   8              		.eabi_attribute 25, 1
   9              		.eabi_attribute 26, 1
  10              		.eabi_attribute 30, 2
  11              		.eabi_attribute 34, 1
  12              		.eabi_attribute 18, 4
  13              		.file	"IR_detection.c"
  14              		.text
  15              	.Ltext0:
  16              		.cfi_sections	.debug_frame
  17              		.section	.text.ThdDetection,"ax",%progbits
  18              		.align	1
  19              		.p2align 4,,15
  20              		.syntax unified
  21              		.thumb
  22              		.thumb_func
  23              		.fpu fpv4-sp-d16
  24              		.type	ThdDetection, %function
  25              	ThdDetection:
  26              	.LFB257:
  27              		.file 1 "IR_detection.c"
  28              		.loc 1 14 0
  29              		.cfi_startproc
  30              		@ args = 0, pretend = 0, frame = 8
  31              		@ frame_needed = 0, uses_anonymous_args = 0
  32              	.LVL0:
  33 0000 2DE9F041 		push	{r4, r5, r6, r7, r8, lr}
  34              		.cfi_def_cfa_offset 24
  35              		.cfi_offset 4, -24
  36              		.cfi_offset 5, -20
  37              		.cfi_offset 6, -16
  38              		.cfi_offset 7, -12
  39              		.cfi_offset 8, -8
  40              		.cfi_offset 14, -4
  41              	.LBB53:
  42              	.LBB54:
  43              		.file 2 "../../lib/e-puck2_main-processor/ChibiOS//os/rt/include/chregistry.h"
  44              		.loc 2 135 0
  45 0004 144C     		ldr	r4, .L7
  46              	.LBE54:
  47              	.LBE53:
  48              		.loc 1 14 0
  49 0006 154B     		ldr	r3, .L7+4
  50              	.LBB57:
  51              	.LBB55:
  52              		.loc 2 135 0
  53 0008 A269     		ldr	r2, [r4, #24]
  54 000a 1549     		ldr	r1, .L7+8
  55              	.LBE55:
  56              	.LBE57:
  57              		.loc 1 14 0
ARM GAS  C:\Users\ARNAUD~1\AppData\Local\Temp\ccq48BeX.s 			page 2


  58 000c 1B68     		ldr	r3, [r3]
  59              	.LBB58:
  60              	.LBB59:
  61              	.LBB60:
  62              	.LBB61:
  63              	.LBB62:
  64              		.file 3 "../../lib/e-puck2_main-processor/ChibiOS//os/rt/include/chsys.h"
  65              		.loc 3 367 0
  66 000e DFF85480 		ldr	r8, .L7+12
  67              	.LBE62:
  68              	.LBE61:
  69              	.LBE60:
  70              	.LBE59:
  71              	.LBE58:
  72              	.LBB89:
  73              	.LBB56:
  74              		.loc 2 135 0
  75 0012 9161     		str	r1, [r2, #24]
  76              	.LBE56:
  77              	.LBE89:
  78              		.loc 1 14 0
  79 0014 82B0     		sub	sp, sp, #8
  80              		.cfi_def_cfa_offset 32
  81              	.LBB90:
  82              	.LBB87:
  83              	.LBB85:
  84              	.LBB71:
  85              	.LBB72:
  86              	.LBB73:
  87              	.LBB74:
  88              	.LBB75:
  89              		.file 4 "../../lib/e-puck2_main-processor/ChibiOS//os/ext/CMSIS/include/core_cmFunc.h"
  90              		.loc 4 546 0
  91 0016 2027     		movs	r7, #32
  92              	.LBE75:
  93              	.LBE74:
  94              	.LBE73:
  95              	.LBE72:
  96              	.LBE71:
  97              	.LBE85:
  98              	.LBE87:
  99              	.LBE90:
 100              		.loc 1 14 0
 101 0018 0193     		str	r3, [sp, #4]
 102              	.LVL1:
 103              	.LBB91:
 104              	.LBB88:
 105              	.LBB86:
 106              	.LBB80:
 107              	.LBB69:
 108              	.LBB63:
 109              	.LBB64:
 110              	.LBB65:
 111              		.loc 4 546 0
 112 001a 0026     		movs	r6, #0
 113              	.LVL2:
 114              	.L3:
ARM GAS  C:\Users\ARNAUD~1\AppData\Local\Temp\ccq48BeX.s 			page 3


 115              	.LBE65:
 116              	.LBE64:
 117              	.LBE63:
 118              	.LBE69:
 119              	.LBE80:
 120              	.LBB81:
 121              	.LBB79:
 122              	.LBB78:
 123              	.LBB77:
 124              	.LBB76:
 125              		.syntax unified
 126              	@ 546 "../../lib/e-puck2_main-processor/ChibiOS//os/ext/CMSIS/include/core_cmFunc.h" 1
 127 001c 87F31188 		MSR basepri, r7
 128              	@ 0 "" 2
 129              	.LVL3:
 130              		.thumb
 131              		.syntax unified
 132              	.LBE76:
 133              	.LBE77:
 134              	.LBE78:
 135              		.loc 3 349 0
 136 0020 FFF7FEFF 		bl	_stats_start_measure_crit_thd
 137              	.LVL4:
 138              		.loc 3 350 0
 139 0024 FFF7FEFF 		bl	_dbg_check_lock
 140              	.LVL5:
 141              	.LBE79:
 142              	.LBE81:
 143              	.LBB82:
 144              	.LBB83:
 145              		.file 5 "../../lib/e-puck2_main-processor/ChibiOS//os/rt/include/chvt.h"
 146              		.loc 5 231 0
 147 0028 A56A     		ldr	r5, [r4, #40]
 148              	.LBE83:
 149              	.LBE82:
 150              	.LBB84:
 151              	.LBB70:
 152              		.loc 3 360 0
 153 002a FFF7FEFF 		bl	_dbg_check_unlock
 154              	.LVL6:
 155              		.loc 3 361 0
 156 002e FFF7FEFF 		bl	_stats_stop_measure_crit_thd
 157              	.LVL7:
 158              		.loc 3 367 0
 159 0032 2368     		ldr	r3, [r4]
 160 0034 A342     		cmp	r3, r4
 161 0036 07D0     		beq	.L2
 162 0038 A269     		ldr	r2, [r4, #24]
 163 003a 9B68     		ldr	r3, [r3, #8]
 164 003c 9268     		ldr	r2, [r2, #8]
 165 003e 9A42     		cmp	r2, r3
 166 0040 02D2     		bcs	.L2
 167 0042 4046     		mov	r0, r8
 168 0044 FFF7FEFF 		bl	chSysHalt
 169              	.LVL8:
 170              	.L2:
 171              	.LBB68:
ARM GAS  C:\Users\ARNAUD~1\AppData\Local\Temp\ccq48BeX.s 			page 4


 172              	.LBB67:
 173              	.LBB66:
 174              		.loc 4 546 0
 175              		.syntax unified
 176              	@ 546 "../../lib/e-puck2_main-processor/ChibiOS//os/ext/CMSIS/include/core_cmFunc.h" 1
 177 0048 86F31188 		MSR basepri, r6
 178              	@ 0 "" 2
 179              	.LVL9:
 180              		.thumb
 181              		.syntax unified
 182              	.LBE66:
 183              	.LBE67:
 184              	.LBE68:
 185              	.LBE70:
 186              	.LBE84:
 187              	.LBE86:
 188              	.LBE88:
 189              		.loc 1 27 0
 190 004c 05F16401 		add	r1, r5, #100
 191 0050 2846     		mov	r0, r5
 192 0052 FFF7FEFF 		bl	chThdSleepUntilWindowed
 193              	.LVL10:
 194              	.LBE91:
 195              		.loc 1 21 0
 196 0056 E1E7     		b	.L3
 197              	.L8:
 198              		.align	2
 199              	.L7:
 200 0058 00000000 		.word	ch
 201 005c 00000000 		.word	__stack_chk_guard
 202 0060 00000000 		.word	.LANCHOR0
 203 0064 00000000 		.word	.LANCHOR1
 204              		.cfi_endproc
 205              	.LFE257:
 206              		.size	ThdDetection, .-ThdDetection
 207              		.section	.text.detection_init,"ax",%progbits
 208              		.align	1
 209              		.p2align 4,,15
 210              		.global	detection_init
 211              		.syntax unified
 212              		.thumb
 213              		.thumb_func
 214              		.fpu fpv4-sp-d16
 215              		.type	detection_init, %function
 216              	detection_init:
 217              	.LFB258:
 218              		.loc 1 36 0
 219              		.cfi_startproc
 220              		@ args = 0, pretend = 0, frame = 8
 221              		@ frame_needed = 0, uses_anonymous_args = 0
 222 0000 30B5     		push	{r4, r5, lr}
 223              		.cfi_def_cfa_offset 12
 224              		.cfi_offset 4, -12
 225              		.cfi_offset 5, -8
 226              		.cfi_offset 14, -4
 227 0002 0B4C     		ldr	r4, .L13
 228              		.loc 1 39 0
ARM GAS  C:\Users\ARNAUD~1\AppData\Local\Temp\ccq48BeX.s 			page 5


 229 0004 0B4B     		ldr	r3, .L13+4
 230              		.loc 1 36 0
 231 0006 2268     		ldr	r2, [r4]
 232              		.loc 1 39 0
 233 0008 0B48     		ldr	r0, .L13+8
 234              		.loc 1 36 0
 235 000a 85B0     		sub	sp, sp, #20
 236              		.cfi_def_cfa_offset 32
 237              		.loc 1 39 0
 238 000c 0025     		movs	r5, #0
 239              		.loc 1 36 0
 240 000e 0392     		str	r2, [sp, #12]
 241              		.loc 1 39 0
 242 0010 0095     		str	r5, [sp]
 243 0012 4022     		movs	r2, #64
 244 0014 4FF4FC71 		mov	r1, #504
 245 0018 FFF7FEFF 		bl	chThdCreateStatic
 246              	.LVL11:
 247              		.loc 1 41 0
 248 001c 039A     		ldr	r2, [sp, #12]
 249 001e 2368     		ldr	r3, [r4]
 250 0020 9A42     		cmp	r2, r3
 251 0022 02D1     		bne	.L12
 252 0024 2846     		mov	r0, r5
 253 0026 05B0     		add	sp, sp, #20
 254              		.cfi_remember_state
 255              		.cfi_def_cfa_offset 12
 256              		@ sp needed
 257 0028 30BD     		pop	{r4, r5, pc}
 258              	.L12:
 259              		.cfi_restore_state
 260 002a FFF7FEFF 		bl	__stack_chk_fail
 261              	.LVL12:
 262              	.L14:
 263 002e 00BF     		.align	2
 264              	.L13:
 265 0030 00000000 		.word	__stack_chk_guard
 266 0034 00000000 		.word	ThdDetection
 267 0038 00000000 		.word	.LANCHOR2
 268              		.cfi_endproc
 269              	.LFE258:
 270              		.size	detection_init, .-detection_init
 271              		.section	.text.get_obstacle_angle,"ax",%progbits
 272              		.align	1
 273              		.p2align 4,,15
 274              		.global	get_obstacle_angle
 275              		.syntax unified
 276              		.thumb
 277              		.thumb_func
 278              		.fpu fpv4-sp-d16
 279              		.type	get_obstacle_angle, %function
 280              	get_obstacle_angle:
 281              	.LFB259:
 282              		.loc 1 48 0
 283              		.cfi_startproc
 284              		@ args = 0, pretend = 0, frame = 8
 285              		@ frame_needed = 0, uses_anonymous_args = 0
ARM GAS  C:\Users\ARNAUD~1\AppData\Local\Temp\ccq48BeX.s 			page 6


 286 0000 00B5     		push	{lr}
 287              		.cfi_def_cfa_offset 4
 288              		.cfi_offset 14, -4
 289 0002 064B     		ldr	r3, .L19
 290 0004 83B0     		sub	sp, sp, #12
 291              		.cfi_def_cfa_offset 16
 292              		.loc 1 48 0
 293 0006 1A68     		ldr	r2, [r3]
 294 0008 0192     		str	r2, [sp, #4]
 295              		.loc 1 50 0
 296 000a 019A     		ldr	r2, [sp, #4]
 297 000c 1B68     		ldr	r3, [r3]
 298 000e 9A42     		cmp	r2, r3
 299 0010 02D1     		bne	.L18
 300 0012 03B0     		add	sp, sp, #12
 301              		.cfi_remember_state
 302              		.cfi_def_cfa_offset 4
 303              		@ sp needed
 304 0014 5DF804FB 		ldr	pc, [sp], #4
 305              	.L18:
 306              		.cfi_restore_state
 307 0018 FFF7FEFF 		bl	__stack_chk_fail
 308              	.LVL13:
 309              	.L20:
 310              		.align	2
 311              	.L19:
 312 001c 00000000 		.word	__stack_chk_guard
 313              		.cfi_endproc
 314              	.LFE259:
 315              		.size	get_obstacle_angle, .-get_obstacle_angle
 316              		.section	.text.get_obstacle_distance,"ax",%progbits
 317              		.align	1
 318              		.p2align 4,,15
 319              		.global	get_obstacle_distance
 320              		.syntax unified
 321              		.thumb
 322              		.thumb_func
 323              		.fpu fpv4-sp-d16
 324              		.type	get_obstacle_distance, %function
 325              	get_obstacle_distance:
 326              	.LFB263:
 327              		.cfi_startproc
 328              		@ args = 0, pretend = 0, frame = 8
 329              		@ frame_needed = 0, uses_anonymous_args = 0
 330 0000 00B5     		push	{lr}
 331              		.cfi_def_cfa_offset 4
 332              		.cfi_offset 14, -4
 333 0002 074B     		ldr	r3, .L25
 334 0004 83B0     		sub	sp, sp, #12
 335              		.cfi_def_cfa_offset 16
 336 0006 1A68     		ldr	r2, [r3]
 337 0008 0192     		str	r2, [sp, #4]
 338 000a 019A     		ldr	r2, [sp, #4]
 339 000c 1B68     		ldr	r3, [r3]
 340 000e 9A42     		cmp	r2, r3
 341 0010 04D1     		bne	.L24
 342 0012 9FED040A 		vldr.32	s0, .L25+4
ARM GAS  C:\Users\ARNAUD~1\AppData\Local\Temp\ccq48BeX.s 			page 7


 343 0016 03B0     		add	sp, sp, #12
 344              		.cfi_remember_state
 345              		.cfi_def_cfa_offset 4
 346              		@ sp needed
 347 0018 5DF804FB 		ldr	pc, [sp], #4
 348              	.L24:
 349              		.cfi_restore_state
 350 001c FFF7FEFF 		bl	__stack_chk_fail
 351              	.L26:
 352              		.align	2
 353              	.L25:
 354 0020 00000000 		.word	__stack_chk_guard
 355 0024 00000000 		.word	0
 356              		.cfi_endproc
 357              	.LFE263:
 358              		.size	get_obstacle_distance, .-get_obstacle_distance
 359              		.section	.text.debug_detection,"ax",%progbits
 360              		.align	1
 361              		.p2align 4,,15
 362              		.global	debug_detection
 363              		.syntax unified
 364              		.thumb
 365              		.thumb_func
 366              		.fpu fpv4-sp-d16
 367              		.type	debug_detection, %function
 368              	debug_detection:
 369              	.LFB261:
 370              		.loc 1 68 0
 371              		.cfi_startproc
 372              		@ args = 0, pretend = 0, frame = 8
 373              		@ frame_needed = 0, uses_anonymous_args = 0
 374              	.LVL14:
 375              		.loc 1 68 0
 376 0000 00B5     		push	{lr}
 377              		.cfi_def_cfa_offset 4
 378              		.cfi_offset 14, -4
 379 0002 064B     		ldr	r3, .L31
 380 0004 83B0     		sub	sp, sp, #12
 381              		.cfi_def_cfa_offset 16
 382              		.loc 1 68 0
 383 0006 1A68     		ldr	r2, [r3]
 384 0008 0192     		str	r2, [sp, #4]
 385              		.loc 1 80 0
 386 000a 019A     		ldr	r2, [sp, #4]
 387 000c 1B68     		ldr	r3, [r3]
 388 000e 9A42     		cmp	r2, r3
 389 0010 02D1     		bne	.L30
 390 0012 03B0     		add	sp, sp, #12
 391              		.cfi_remember_state
 392              		.cfi_def_cfa_offset 4
 393              		@ sp needed
 394 0014 5DF804FB 		ldr	pc, [sp], #4
 395              	.L30:
 396              		.cfi_restore_state
 397 0018 FFF7FEFF 		bl	__stack_chk_fail
 398              	.LVL15:
 399              	.L32:
ARM GAS  C:\Users\ARNAUD~1\AppData\Local\Temp\ccq48BeX.s 			page 8


 400              		.align	2
 401              	.L31:
 402 001c 00000000 		.word	__stack_chk_guard
 403              		.cfi_endproc
 404              	.LFE261:
 405              		.size	debug_detection, .-debug_detection
 406              		.section	.bss.waThdDetection,"aw",%nobits
 407              		.align	3
 408              		.set	.LANCHOR2,. + 0
 409              		.type	waThdDetection, %object
 410              		.size	waThdDetection, 504
 411              	waThdDetection:
 412 0000 00000000 		.space	504
 412      00000000 
 412      00000000 
 412      00000000 
 412      00000000 
 413              		.section	.rodata.__FUNCTION__.9880,"a",%progbits
 414              		.align	2
 415              		.set	.LANCHOR0,. + 0
 416              		.type	__FUNCTION__.9880, %object
 417              		.size	__FUNCTION__.9880, 13
 418              	__FUNCTION__.9880:
 419 0000 54686444 		.ascii	"ThdDetection\000"
 419      65746563 
 419      74696F6E 
 419      00
 420              		.section	.rodata.__func__.7153,"a",%progbits
 421              		.align	2
 422              		.set	.LANCHOR1,. + 0
 423              		.type	__func__.7153, %object
 424              		.size	__func__.7153, 12
 425              	__func__.7153:
 426 0000 63685379 		.ascii	"chSysUnlock\000"
 426      73556E6C 
 426      6F636B00 
 427              		.text
 428              	.Letext0:
 429              		.file 6 "c:\\users\\arnaud wist\\projet\\robotique_mondada\\eclipse_e-puck2\\tools\\gcc-arm-none-e
 430              		.file 7 "c:\\users\\arnaud wist\\projet\\robotique_mondada\\eclipse_e-puck2\\tools\\gcc-arm-none-e
 431              		.file 8 "c:\\users\\arnaud wist\\projet\\robotique_mondada\\eclipse_e-puck2\\tools\\gcc-arm-none-e
 432              		.file 9 "../../lib/e-puck2_main-processor/ChibiOS//os/rt/ports/ARMCMx/compilers/GCC/chtypes.h"
 433              		.file 10 "../../lib/e-puck2_main-processor/ChibiOS//os/rt/include/chsystypes.h"
 434              		.file 11 "../../lib/e-puck2_main-processor/ChibiOS//os/rt/include/chschd.h"
 435              		.file 12 "../../lib/e-puck2_main-processor/ChibiOS//os/ext/CMSIS/include/core_cm4.h"
 436              		.file 13 "../../lib/e-puck2_main-processor/ChibiOS//os/ext/CMSIS/ST/system_stm32f4xx.h"
 437              		.file 14 "../../lib/e-puck2_main-processor/ChibiOS//os/ext/CMSIS/ST/stm32f407xx.h"
 438              		.file 15 "../../lib/e-puck2_main-processor/ChibiOS//os/rt/ports/ARMCMx/chcore.h"
 439              		.file 16 "../../lib/e-puck2_main-processor/ChibiOS//os/rt/ports/ARMCMx/chcore_v7m.h"
 440              		.file 17 "../../lib/e-puck2_main-processor/ChibiOS//os/rt/include/chdebug.h"
 441              		.file 18 "../../lib/e-puck2_main-processor/ChibiOS//os/rt/include/chtm.h"
 442              		.file 19 "../../lib/e-puck2_main-processor/ChibiOS//os/rt/include/chstats.h"
 443              		.file 20 "../../lib/e-puck2_main-processor/ChibiOS//os/rt/include/chsem.h"
 444              		.file 21 "../../lib/e-puck2_main-processor/ChibiOS//os/rt/include/chmtx.h"
 445              		.file 22 "../../lib/e-puck2_main-processor/ChibiOS//os/rt/include/chevents.h"
 446              		.file 23 "../../lib/e-puck2_main-processor/ChibiOS//os/rt/include/chqueues.h"
 447              		.file 24 "../../lib/e-puck2_main-processor/ChibiOS//os/hal/ports/STM32/STM32F4xx/stm32_dma.h"
ARM GAS  C:\Users\ARNAUD~1\AppData\Local\Temp\ccq48BeX.s 			page 9


 448              		.file 25 "../../lib/e-puck2_main-processor/ChibiOS//os/hal/include/hal_ioblock.h"
 449              		.file 26 "../../lib/e-puck2_main-processor/ChibiOS//os/hal/ports/STM32/LLD/GPIOv2/pal_lld.h"
 450              		.file 27 "../../lib/e-puck2_main-processor/ChibiOS//os/hal/include/adc.h"
 451              		.file 28 "../../lib/e-puck2_main-processor/ChibiOS//os/hal/ports/STM32/STM32F4xx/adc_lld.h"
 452              		.file 29 "../../lib/e-puck2_main-processor/ChibiOS//os/hal/include/can.h"
 453              		.file 30 "../../lib/e-puck2_main-processor/ChibiOS//os/hal/ports/STM32/LLD/can_lld.h"
 454              		.file 31 "../../lib/e-puck2_main-processor/ChibiOS//os/hal/include/dac.h"
 455              		.file 32 "../../lib/e-puck2_main-processor/ChibiOS//os/hal/ports/STM32/LLD/DACv1/dac_lld.h"
 456              		.file 33 "../../lib/e-puck2_main-processor/ChibiOS//os/hal/include/ext.h"
 457              		.file 34 "../../lib/e-puck2_main-processor/ChibiOS//os/hal/ports/STM32/LLD/ext_lld.h"
 458              		.file 35 "../../lib/e-puck2_main-processor/ChibiOS//os/hal/include/gpt.h"
 459              		.file 36 "../../lib/e-puck2_main-processor/ChibiOS//os/hal/ports/STM32/LLD/TIMv1/gpt_lld.h"
 460              		.file 37 "../../lib/e-puck2_main-processor/ChibiOS//os/hal/ports/STM32/LLD/TIMv1/stm32_tim.h"
 461              		.file 38 "../../lib/e-puck2_main-processor/ChibiOS//os/hal/include/i2c.h"
 462              		.file 39 "../../lib/e-puck2_main-processor/ChibiOS//os/hal/ports/STM32/LLD/I2Cv1/i2c_lld.h"
 463              		.file 40 "../../lib/e-puck2_main-processor/ChibiOS//os/hal/include/i2s.h"
 464              		.file 41 "../../lib/e-puck2_main-processor/ChibiOS//os/hal/ports/STM32/LLD/SPIv1/i2s_lld.h"
 465              		.file 42 "../../lib/e-puck2_main-processor/ChibiOS//os/hal/include/pwm.h"
 466              		.file 43 "../../lib/e-puck2_main-processor/ChibiOS//os/hal/ports/STM32/LLD/TIMv1/pwm_lld.h"
 467              		.file 44 "../../lib/e-puck2_main-processor/ChibiOS//os/hal/include/serial.h"
 468              		.file 45 "../../lib/e-puck2_main-processor/ChibiOS//os/hal/ports/STM32/LLD/USARTv1/serial_lld.h"
 469              		.file 46 "../../lib/e-puck2_main-processor/ChibiOS//os/hal/include/sdc.h"
 470              		.file 47 "../../lib/e-puck2_main-processor/ChibiOS//os/hal/ports/STM32/LLD/sdc_lld.h"
 471              		.file 48 "../../lib/e-puck2_main-processor/ChibiOS//os/hal/include/spi.h"
 472              		.file 49 "../../lib/e-puck2_main-processor/ChibiOS//os/hal/ports/STM32/LLD/SPIv1/spi_lld.h"
 473              		.file 50 "../../lib/e-puck2_main-processor/ChibiOS//os/hal/include/usb.h"
 474              		.file 51 "../../lib/e-puck2_main-processor/ChibiOS//os/hal/ports/STM32/LLD/OTGv1/usb_lld.h"
 475              		.file 52 "../../lib/e-puck2_main-processor/ChibiOS//os/hal/ports/STM32/LLD/OTGv1/stm32_otg.h"
 476              		.file 53 "../../lib/e-puck2_main-processor/ChibiOS//os/rt/include/chthreads.h"