ARM GAS  C:\Users\ARNAUD~1\AppData\Local\Temp\ccNUFiOh.s 			page 1


   1              		.cpu cortex-m4
   2              		.eabi_attribute 27, 1
   3              		.eabi_attribute 28, 1
   4              		.eabi_attribute 20, 1
   5              		.eabi_attribute 21, 1
   6              		.eabi_attribute 23, 3
   7              		.eabi_attribute 24, 1
   8              		.eabi_attribute 25, 1
   9              		.eabi_attribute 26, 1
  10              		.eabi_attribute 30, 2
  11              		.eabi_attribute 34, 1
  12              		.eabi_attribute 18, 4
  13              		.file	"pi_regulator.c"
  14              		.text
  15              	.Ltext0:
  16              		.cfi_sections	.debug_frame
  17              		.section	.text.chprintf.constprop.0,"ax",%progbits
  18              		.align	1
  19              		.p2align 4,,15
  20              		.syntax unified
  21              		.thumb
  22              		.thumb_func
  23              		.fpu fpv4-sp-d16
  24              		.type	chprintf.constprop.0, %function
  25              	chprintf.constprop.0:
  26              	.LFB259:
  27              		.file 1 "../../lib/e-puck2_main-processor/ChibiOS//os/hal/lib/streams/chprintf.h"
  28              		.loc 1 69 0
  29              		.cfi_startproc
  30              		@ args = 4, pretend = 12, frame = 8
  31              		@ frame_needed = 0, uses_anonymous_args = 1
  32              	.LVL0:
  33 0000 0EB4     		push	{r1, r2, r3}
  34              		.cfi_def_cfa_offset 12
  35              		.cfi_offset 1, -12
  36              		.cfi_offset 2, -8
  37              		.cfi_offset 3, -4
  38 0002 10B5     		push	{r4, lr}
  39              		.cfi_def_cfa_offset 20
  40              		.cfi_offset 4, -20
  41              		.cfi_offset 14, -16
  42 0004 0A4C     		ldr	r4, .L6
  43              		.loc 1 74 0
  44 0006 0B49     		ldr	r1, .L6+4
  45              		.loc 1 69 0
  46 0008 2368     		ldr	r3, [r4]
  47              		.loc 1 74 0
  48 000a 0B48     		ldr	r0, .L6+8
  49              	.LVL1:
  50              		.loc 1 69 0
  51 000c 83B0     		sub	sp, sp, #12
  52              		.cfi_def_cfa_offset 32
  53              		.loc 1 69 0
  54 000e 0193     		str	r3, [sp, #4]
  55              	.LVL2:
  56              		.loc 1 73 0
  57 0010 06AB     		add	r3, sp, #24
ARM GAS  C:\Users\ARNAUD~1\AppData\Local\Temp\ccNUFiOh.s 			page 2


  58              		.loc 1 74 0
  59 0012 1A46     		mov	r2, r3
  60              		.loc 1 73 0
  61 0014 0093     		str	r3, [sp]
  62              		.loc 1 74 0
  63 0016 FFF7FEFF 		bl	chvprintf
  64              	.LVL3:
  65              		.loc 1 78 0
  66 001a 019A     		ldr	r2, [sp, #4]
  67 001c 2368     		ldr	r3, [r4]
  68 001e 9A42     		cmp	r2, r3
  69 0020 04D1     		bne	.L5
  70 0022 03B0     		add	sp, sp, #12
  71              		.cfi_remember_state
  72              		.cfi_def_cfa_offset 20
  73              		@ sp needed
  74 0024 BDE81040 		pop	{r4, lr}
  75              		.cfi_restore 14
  76              		.cfi_restore 4
  77              		.cfi_def_cfa_offset 12
  78 0028 03B0     		add	sp, sp, #12
  79              		.cfi_restore 3
  80              		.cfi_restore 2
  81              		.cfi_restore 1
  82              		.cfi_def_cfa_offset 0
  83 002a 7047     		bx	lr
  84              	.L5:
  85              		.cfi_restore_state
  86 002c FFF7FEFF 		bl	__stack_chk_fail
  87              	.LVL4:
  88              	.L7:
  89              		.align	2
  90              	.L6:
  91 0030 00000000 		.word	__stack_chk_guard
  92 0034 00000000 		.word	.LC0
  93 0038 00000000 		.word	SD3
  94              		.cfi_endproc
  95              	.LFE259:
  96              		.size	chprintf.constprop.0, .-chprintf.constprop.0
  97              		.global	__aeabi_f2d
  98              		.section	.text.PiRegulator,"ax",%progbits
  99              		.align	1
 100              		.p2align 4,,15
 101              		.syntax unified
 102              		.thumb
 103              		.thumb_func
 104              		.fpu fpv4-sp-d16
 105              		.type	PiRegulator, %function
 106              	PiRegulator:
 107              	.LFB257:
 108              		.file 2 "pi_regulator.c"
 109              		.loc 2 14 0
 110              		.cfi_startproc
 111              		@ args = 0, pretend = 0, frame = 16
 112              		@ frame_needed = 0, uses_anonymous_args = 0
 113              	.LVL5:
 114 0000 2DE9F047 		push	{r4, r5, r6, r7, r8, r9, r10, lr}
ARM GAS  C:\Users\ARNAUD~1\AppData\Local\Temp\ccNUFiOh.s 			page 3


 115              		.cfi_def_cfa_offset 32
 116              		.cfi_offset 4, -32
 117              		.cfi_offset 5, -28
 118              		.cfi_offset 6, -24
 119              		.cfi_offset 7, -20
 120              		.cfi_offset 8, -16
 121              		.cfi_offset 9, -12
 122              		.cfi_offset 10, -8
 123              		.cfi_offset 14, -4
 124 0004 2DED0A8B 		vpush.64	{d8, d9, d10, d11, d12}
 125              		.cfi_def_cfa_offset 72
 126              		.cfi_offset 80, -72
 127              		.cfi_offset 81, -68
 128              		.cfi_offset 82, -64
 129              		.cfi_offset 83, -60
 130              		.cfi_offset 84, -56
 131              		.cfi_offset 85, -52
 132              		.cfi_offset 86, -48
 133              		.cfi_offset 87, -44
 134              		.cfi_offset 88, -40
 135              		.cfi_offset 89, -36
 136              	.LBB48:
 137              	.LBB49:
 138              		.file 3 "../../lib/e-puck2_main-processor/ChibiOS//os/rt/include/chregistry.h"
 139              		.loc 3 135 0
 140 0008 DFF8B4A1 		ldr	r10, .L23+80
 141              	.LBE49:
 142              	.LBE48:
 143              		.loc 2 14 0
 144 000c 5E4B     		ldr	r3, .L23+24
 145              		.loc 2 29 0
 146 000e 9FED5F9A 		vldr.32	s18, .L23+28
 147              	.LBB52:
 148              	.LBB50:
 149              		.loc 3 135 0
 150 0012 DAF81820 		ldr	r2, [r10, #24]
 151 0016 5E49     		ldr	r1, .L23+32
 152              	.LBE50:
 153              	.LBE52:
 154              		.loc 2 14 0
 155 0018 1B68     		ldr	r3, [r3]
 156              		.loc 2 45 0
 157 001a 9FED5EBA 		vldr.32	s22, .L23+36
 158              		.loc 2 47 0
 159 001e 9FED5ECA 		vldr.32	s24, .L23+40
 160              	.LBB53:
 161              	.LBB51:
 162              		.loc 3 135 0
 163 0022 9161     		str	r1, [r2, #24]
 164              	.LBE51:
 165              	.LBE53:
 166              		.loc 2 14 0
 167 0024 88B0     		sub	sp, sp, #32
 168              		.cfi_def_cfa_offset 104
 169 0026 52A5     		adr	r5, .L23
 170 0028 D5E90045 		ldrd	r4, [r5]
 171              		.loc 2 56 0
ARM GAS  C:\Users\ARNAUD~1\AppData\Local\Temp\ccNUFiOh.s 			page 4


 172 002c 9FED52AB 		vldr.64	d10, .L23+8
 173 0030 F0EE49BA 		vmov.f32	s23, s18
 174              		.loc 2 14 0
 175 0034 0793     		str	r3, [sp, #28]
 176              	.LVL6:
 177 0036 42E0     		b	.L13
 178              	.LVL7:
 179              	.L22:
 180              		.loc 2 47 0
 181 0038 B4EECC9A 		vcmpe.f32	s18, s24
 182 003c F1EE10FA 		vmrs	APSR_nzcv, FPSCR
 183 0040 7AD4     		bmi	.L17
 184 0042 19EE100A 		vmov	r0, s18
 185 0046 FFF7FEFF 		bl	__aeabi_f2d
 186              	.LVL8:
 187 004a 69EE2B8A 		vmul.f32	s17, s18, s23
 188 004e 8046     		mov	r8, r0
 189 0050 8946     		mov	r9, r1
 190              	.LVL9:
 191              	.L10:
 192 0052 19EE900A 		vmov	r0, s19
 193 0056 FFF7FEFF 		bl	__aeabi_f2d
 194              	.LVL10:
 195              		.loc 2 52 0
 196 005a 68EE087A 		vmul.f32	s15, s16, s16
 197 005e 9FED4F7A 		vldr.32	s14, .L23+44
 198 0062 F4EEC77A 		vcmpe.f32	s15, s14
 199 0066 F1EE10FA 		vmrs	APSR_nzcv, FPSCR
 200 006a 0246     		mov	r2, r0
 201 006c 0B46     		mov	r3, r1
 202 006e 59D4     		bmi	.L11
 203              		.loc 2 50 0
 204 0070 DFED4B7A 		vldr.32	s15, .L23+48
 205 0074 E8EE278A 		vfma.f32	s17, s16, s15
 206              	.LVL11:
 207 0078 CDE90423 		strd	r2, [sp, #16]
 208              		.loc 2 56 0
 209 007c 18EE900A 		vmov	r0, s17
 210 0080 FFF7FEFF 		bl	__aeabi_f2d
 211              	.LVL12:
 212 0084 CDE90089 		strd	r8, [sp]
 213 0088 CDE90201 		strd	r0, [sp, #8]
 214 008c DDE90423 		ldrd	r2, [sp, #16]
 215 0090 4449     		ldr	r1, .L23+52
 216 0092 4548     		ldr	r0, .L23+56
 217 0094 FFF7FEFF 		bl	chprintf.constprop.0
 218              	.LVL13:
 219              		.loc 2 59 0
 220 0098 DFED447A 		vldr.32	s15, .L23+60
 221 009c F4EEE78A 		vcmpe.f32	s17, s15
 222 00a0 F1EE10FA 		vmrs	APSR_nzcv, FPSCR
 223 00a4 51DD     		ble	.L21
 224 00a6 424F     		ldr	r7, .L23+64
 225              	.L12:
 226              		.loc 2 67 0
 227 00a8 3846     		mov	r0, r7
 228 00aa FFF7FEFF 		bl	right_motor_set_speed
ARM GAS  C:\Users\ARNAUD~1\AppData\Local\Temp\ccNUFiOh.s 			page 5


 229              	.LVL14:
 230              		.loc 2 68 0
 231 00ae 3846     		mov	r0, r7
 232 00b0 FFF7FEFF 		bl	left_motor_set_speed
 233              	.LVL15:
 234              		.loc 2 70 0
 235 00b4 06F13201 		add	r1, r6, #50
 236 00b8 3046     		mov	r0, r6
 237 00ba FFF7FEFF 		bl	chThdSleepUntilWindowed
 238              	.LVL16:
 239              	.L13:
 240              	.LBB54:
 241              	.LBB55:
 242              	.LBB56:
 243              	.LBB57:
 244              	.LBB58:
 245              	.LBB59:
 246              	.LBB60:
 247              		.file 4 "../../lib/e-puck2_main-processor/ChibiOS//os/ext/CMSIS/include/core_cmFunc.h"
 248              		.loc 4 546 0
 249 00be 2023     		movs	r3, #32
 250              		.syntax unified
 251              	@ 546 "../../lib/e-puck2_main-processor/ChibiOS//os/ext/CMSIS/include/core_cmFunc.h" 1
 252 00c0 83F31188 		MSR basepri, r3
 253              	@ 0 "" 2
 254              	.LVL17:
 255              		.thumb
 256              		.syntax unified
 257              	.LBE60:
 258              	.LBE59:
 259              	.LBE58:
 260              		.file 5 "../../lib/e-puck2_main-processor/ChibiOS//os/rt/include/chsys.h"
 261              		.loc 5 349 0
 262 00c4 FFF7FEFF 		bl	_stats_start_measure_crit_thd
 263              	.LVL18:
 264              		.loc 5 350 0
 265 00c8 FFF7FEFF 		bl	_dbg_check_lock
 266              	.LVL19:
 267              	.LBE57:
 268              	.LBE56:
 269              	.LBB61:
 270              	.LBB62:
 271              		.file 6 "../../lib/e-puck2_main-processor/ChibiOS//os/rt/include/chvt.h"
 272              		.loc 6 231 0
 273 00cc DAF82860 		ldr	r6, [r10, #40]
 274              	.LBE62:
 275              	.LBE61:
 276              	.LBB63:
 277              	.LBB64:
 278              		.loc 5 360 0
 279 00d0 FFF7FEFF 		bl	_dbg_check_unlock
 280              	.LVL20:
 281              		.loc 5 361 0
 282 00d4 FFF7FEFF 		bl	_stats_stop_measure_crit_thd
 283              	.LVL21:
 284              		.loc 5 367 0
 285 00d8 DAF80030 		ldr	r3, [r10]
ARM GAS  C:\Users\ARNAUD~1\AppData\Local\Temp\ccNUFiOh.s 			page 6


 286 00dc 5345     		cmp	r3, r10
 287 00de 08D0     		beq	.L9
 288 00e0 DAF81820 		ldr	r2, [r10, #24]
 289 00e4 9B68     		ldr	r3, [r3, #8]
 290 00e6 9268     		ldr	r2, [r2, #8]
 291 00e8 9A42     		cmp	r2, r3
 292 00ea 02D2     		bcs	.L9
 293 00ec 3148     		ldr	r0, .L23+68
 294 00ee FFF7FEFF 		bl	chSysHalt
 295              	.LVL22:
 296              	.L9:
 297              	.LBB65:
 298              	.LBB66:
 299              	.LBB67:
 300              		.loc 4 546 0
 301 00f2 0023     		movs	r3, #0
 302              		.syntax unified
 303              	@ 546 "../../lib/e-puck2_main-processor/ChibiOS//os/ext/CMSIS/include/core_cmFunc.h" 1
 304 00f4 83F31188 		MSR basepri, r3
 305              	@ 0 "" 2
 306              	.LVL23:
 307              		.thumb
 308              		.syntax unified
 309              	.LBE67:
 310              	.LBE66:
 311              	.LBE65:
 312              	.LBE64:
 313              	.LBE63:
 314              	.LBE55:
 315              	.LBE54:
 316              		.loc 2 42 0
 317 00f8 FFF7FEFF 		bl	get_distance_cm
 318              	.LVL24:
 319              		.loc 2 43 0
 320 00fc B2EE048A 		vmov.f32	s16, #1.0e+1
 321 0100 38EE408A 		vsub.f32	s16, s16, s0
 322              		.loc 2 42 0
 323 0104 F0EE409A 		vmov.f32	s19, s0
 324              	.LVL25:
 325              		.loc 2 44 0
 326 0108 39EE089A 		vadd.f32	s18, s18, s16
 327              	.LVL26:
 328              		.loc 2 45 0
 329 010c B4EECB9A 		vcmpe.f32	s18, s22
 330 0110 F1EE10FA 		vmrs	APSR_nzcv, FPSCR
 331 0114 90DD     		ble	.L22
 332 0116 A046     		mov	r8, r4
 333 0118 A946     		mov	r9, r5
 334 011a F0EE6B8A 		vmov.f32	s17, s23
 335              		.loc 2 46 0
 336 011e 9FED1D9A 		vldr.32	s18, .L23+36
 337              	.LVL27:
 338 0122 96E7     		b	.L10
 339              	.LVL28:
 340              	.L11:
 341              		.loc 2 56 0
 342 0124 8DED02AB 		vstr.64	d10, [sp, #8]
ARM GAS  C:\Users\ARNAUD~1\AppData\Local\Temp\ccNUFiOh.s 			page 7


 343 0128 CDE90089 		strd	r8, [sp]
 344 012c 1D49     		ldr	r1, .L23+52
 345 012e 1E48     		ldr	r0, .L23+56
 346 0130 FFF7FEFF 		bl	chprintf.constprop.0
 347              	.LVL29:
 348 0134 0027     		movs	r7, #0
 349 0136 B7E7     		b	.L12
 350              	.LVL30:
 351              	.L17:
 352 0138 0FF24409 		adr	r9, .L23+16
 353 013c D9E90089 		ldrd	r8, [r9]
 354 0140 DFED1D8A 		vldr.32	s17, .L23+72
 355              		.loc 2 48 0
 356 0144 9FED149A 		vldr.32	s18, .L23+40
 357              	.LVL31:
 358 0148 83E7     		b	.L10
 359              	.LVL32:
 360              	.L21:
 361              		.loc 2 61 0
 362 014a DFED1C7A 		vldr.32	s15, .L23+76
 363 014e F4EEE78A 		vcmpe.f32	s17, s15
 364 0152 F1EE10FA 		vmrs	APSR_nzcv, FPSCR
 365 0156 48BF     		it	mi
 366 0158 40F24C47 		movwmi	r7, #1100
 367 015c A4D4     		bmi	.L12
 368 015e F1EE687A 		vneg.f32	s15, s17
 369 0162 FDEEE77A 		vcvt.s32.f32	s15, s15
 370 0166 17EE903A 		vmov	r3, s15	@ int
 371 016a 1FB2     		sxth	r7, r3
 372 016c 9CE7     		b	.L12
 373              	.L24:
 374 016e 00BF     		.align	3
 375              	.L23:
 376 0170 00000000 		.word	0
 377 0174 0088B340 		.word	1085507584
 378 0178 00000000 		.word	0
 379 017c 00000000 		.word	0
 380 0180 00000000 		.word	0
 381 0184 0088B3C0 		.word	-1061976064
 382 0188 00000000 		.word	__stack_chk_guard
 383 018c 00000000 		.word	0
 384 0190 00000000 		.word	.LANCHOR0
 385 0194 00409C45 		.word	1167867904
 386 0198 00409CC5 		.word	-979615744
 387 019c CDCC4C3E 		.word	1045220557
 388 01a0 0000C842 		.word	1120403456
 389 01a4 00000000 		.word	.LC0
 390 01a8 00000000 		.word	SD3
 391 01ac 00808944 		.word	1149861888
 392 01b0 B4FBFFFF 		.word	-1100
 393 01b4 00000000 		.word	.LANCHOR1
 394 01b8 00000080 		.word	-2147483648
 395 01bc 008089C4 		.word	-997621760
 396 01c0 00000000 		.word	ch
 397              		.cfi_endproc
 398              	.LFE257:
 399              		.size	PiRegulator, .-PiRegulator
ARM GAS  C:\Users\ARNAUD~1\AppData\Local\Temp\ccNUFiOh.s 			page 8


 400              		.section	.text.pi_regulator_start,"ax",%progbits
 401              		.align	1
 402              		.p2align 4,,15
 403              		.global	pi_regulator_start
 404              		.syntax unified
 405              		.thumb
 406              		.thumb_func
 407              		.fpu fpv4-sp-d16
 408              		.type	pi_regulator_start, %function
 409              	pi_regulator_start:
 410              	.LFB258:
 411              		.loc 2 74 0
 412              		.cfi_startproc
 413              		@ args = 0, pretend = 0, frame = 8
 414              		@ frame_needed = 0, uses_anonymous_args = 0
 415 0000 10B5     		push	{r4, lr}
 416              		.cfi_def_cfa_offset 8
 417              		.cfi_offset 4, -8
 418              		.cfi_offset 14, -4
 419 0002 0A4C     		ldr	r4, .L29
 420              		.loc 2 75 0
 421 0004 0A4B     		ldr	r3, .L29+4
 422              		.loc 2 74 0
 423 0006 2268     		ldr	r2, [r4]
 424              		.loc 2 75 0
 425 0008 0A48     		ldr	r0, .L29+8
 426              		.loc 2 74 0
 427 000a 84B0     		sub	sp, sp, #16
 428              		.cfi_def_cfa_offset 24
 429              		.loc 2 75 0
 430 000c 4FF41E71 		mov	r1, #632
 431              		.loc 2 74 0
 432 0010 0392     		str	r2, [sp, #12]
 433              		.loc 2 75 0
 434 0012 0022     		movs	r2, #0
 435 0014 0092     		str	r2, [sp]
 436 0016 4022     		movs	r2, #64
 437 0018 FFF7FEFF 		bl	chThdCreateStatic
 438              	.LVL33:
 439              		.loc 2 76 0
 440 001c 039A     		ldr	r2, [sp, #12]
 441 001e 2368     		ldr	r3, [r4]
 442 0020 9A42     		cmp	r2, r3
 443 0022 01D1     		bne	.L28
 444 0024 04B0     		add	sp, sp, #16
 445              		.cfi_remember_state
 446              		.cfi_def_cfa_offset 8
 447              		@ sp needed
 448 0026 10BD     		pop	{r4, pc}
 449              	.L28:
 450              		.cfi_restore_state
 451 0028 FFF7FEFF 		bl	__stack_chk_fail
 452              	.LVL34:
 453              	.L30:
 454              		.align	2
 455              	.L29:
 456 002c 00000000 		.word	__stack_chk_guard
ARM GAS  C:\Users\ARNAUD~1\AppData\Local\Temp\ccNUFiOh.s 			page 9


 457 0030 00000000 		.word	PiRegulator
 458 0034 00000000 		.word	.LANCHOR2
 459              		.cfi_endproc
 460              	.LFE258:
 461              		.size	pi_regulator_start, .-pi_regulator_start
 462              		.section	.bss.waPiRegulator,"aw",%nobits
 463              		.align	3
 464              		.set	.LANCHOR2,. + 0
 465              		.type	waPiRegulator, %object
 466              		.size	waPiRegulator, 632
 467              	waPiRegulator:
 468 0000 00000000 		.space	632
 468      00000000 
 468      00000000 
 468      00000000 
 468      00000000 
 469              		.section	.rodata.__FUNCTION__.11848,"a",%progbits
 470              		.align	2
 471              		.set	.LANCHOR0,. + 0
 472              		.type	__FUNCTION__.11848, %object
 473              		.size	__FUNCTION__.11848, 12
 474              	__FUNCTION__.11848:
 475 0000 50695265 		.ascii	"PiRegulator\000"
 475      67756C61 
 475      746F7200 
 476              		.section	.rodata.__func__.7153,"a",%progbits
 477              		.align	2
 478              		.set	.LANCHOR1,. + 0
 479              		.type	__func__.7153, %object
 480              		.size	__func__.7153, 12
 481              	__func__.7153:
 482 0000 63685379 		.ascii	"chSysUnlock\000"
 482      73556E6C 
 482      6F636B00 
 483              		.section	.rodata.chprintf.constprop.0.str1.4,"aMS",%progbits,1
 484              		.align	2
 485              	.LC0:
 486 0000 6D657375 		.ascii	"mesure= %.2f, somme des erreurs %.2f, commande %.2f"
 486      72653D20 
 486      252E3266 
 486      2C20736F 
 486      6D6D6520 
 487 0033 200A00   		.ascii	" \012\000"
 488              		.text
 489              	.Letext0:
 490              		.file 7 "c:\\users\\arnaud wist\\projet\\robotique_mondada\\eclipse_e-puck2\\tools\\gcc-arm-none-e
 491              		.file 8 "c:\\users\\arnaud wist\\projet\\robotique_mondada\\eclipse_e-puck2\\tools\\gcc-arm-none-e
 492              		.file 9 "c:\\users\\arnaud wist\\projet\\robotique_mondada\\eclipse_e-puck2\\tools\\gcc-arm-none-e
 493              		.file 10 "../../lib/e-puck2_main-processor/ChibiOS//os/rt/ports/ARMCMx/compilers/GCC/chtypes.h"
 494              		.file 11 "../../lib/e-puck2_main-processor/ChibiOS//os/rt/include/chsystypes.h"
 495              		.file 12 "../../lib/e-puck2_main-processor/ChibiOS//os/rt/include/chschd.h"
 496              		.file 13 "../../lib/e-puck2_main-processor/ChibiOS//os/ext/CMSIS/include/core_cm4.h"
 497              		.file 14 "../../lib/e-puck2_main-processor/ChibiOS//os/ext/CMSIS/ST/system_stm32f4xx.h"
 498              		.file 15 "../../lib/e-puck2_main-processor/ChibiOS//os/ext/CMSIS/ST/stm32f407xx.h"
 499              		.file 16 "../../lib/e-puck2_main-processor/ChibiOS//os/rt/ports/ARMCMx/chcore.h"
 500              		.file 17 "../../lib/e-puck2_main-processor/ChibiOS//os/rt/ports/ARMCMx/chcore_v7m.h"
 501              		.file 18 "../../lib/e-puck2_main-processor/ChibiOS//os/rt/include/chdebug.h"
ARM GAS  C:\Users\ARNAUD~1\AppData\Local\Temp\ccNUFiOh.s 			page 10


 502              		.file 19 "../../lib/e-puck2_main-processor/ChibiOS//os/rt/include/chtm.h"
 503              		.file 20 "../../lib/e-puck2_main-processor/ChibiOS//os/rt/include/chstats.h"
 504              		.file 21 "../../lib/e-puck2_main-processor/ChibiOS//os/rt/include/chsem.h"
 505              		.file 22 "../../lib/e-puck2_main-processor/ChibiOS//os/rt/include/chmtx.h"
 506              		.file 23 "../../lib/e-puck2_main-processor/ChibiOS//os/rt/include/chevents.h"
 507              		.file 24 "../../lib/e-puck2_main-processor/ChibiOS//os/rt/include/chqueues.h"
 508              		.file 25 "../../lib/e-puck2_main-processor/ChibiOS//os/rt/include/chstreams.h"
 509              		.file 26 "../../lib/e-puck2_main-processor/ChibiOS//os/hal/ports/STM32/STM32F4xx/stm32_dma.h"
 510              		.file 27 "../../lib/e-puck2_main-processor/ChibiOS//os/hal/include/hal_ioblock.h"
 511              		.file 28 "../../lib/e-puck2_main-processor/ChibiOS//os/hal/ports/STM32/LLD/GPIOv2/pal_lld.h"
 512              		.file 29 "../../lib/e-puck2_main-processor/ChibiOS//os/hal/include/adc.h"
 513              		.file 30 "../../lib/e-puck2_main-processor/ChibiOS//os/hal/ports/STM32/STM32F4xx/adc_lld.h"
 514              		.file 31 "../../lib/e-puck2_main-processor/ChibiOS//os/hal/include/can.h"
 515              		.file 32 "../../lib/e-puck2_main-processor/ChibiOS//os/hal/ports/STM32/LLD/can_lld.h"
 516              		.file 33 "../../lib/e-puck2_main-processor/ChibiOS//os/hal/include/dac.h"
 517              		.file 34 "../../lib/e-puck2_main-processor/ChibiOS//os/hal/ports/STM32/LLD/DACv1/dac_lld.h"
 518              		.file 35 "../../lib/e-puck2_main-processor/ChibiOS//os/hal/include/ext.h"
 519              		.file 36 "../../lib/e-puck2_main-processor/ChibiOS//os/hal/ports/STM32/LLD/ext_lld.h"
 520              		.file 37 "../../lib/e-puck2_main-processor/ChibiOS//os/hal/include/gpt.h"
 521              		.file 38 "../../lib/e-puck2_main-processor/ChibiOS//os/hal/ports/STM32/LLD/TIMv1/gpt_lld.h"
 522              		.file 39 "../../lib/e-puck2_main-processor/ChibiOS//os/hal/ports/STM32/LLD/TIMv1/stm32_tim.h"
 523              		.file 40 "../../lib/e-puck2_main-processor/ChibiOS//os/hal/include/i2c.h"
 524              		.file 41 "../../lib/e-puck2_main-processor/ChibiOS//os/hal/ports/STM32/LLD/I2Cv1/i2c_lld.h"
 525              		.file 42 "../../lib/e-puck2_main-processor/ChibiOS//os/hal/include/i2s.h"
 526              		.file 43 "../../lib/e-puck2_main-processor/ChibiOS//os/hal/ports/STM32/LLD/SPIv1/i2s_lld.h"
 527              		.file 44 "../../lib/e-puck2_main-processor/ChibiOS//os/hal/include/pwm.h"
 528              		.file 45 "../../lib/e-puck2_main-processor/ChibiOS//os/hal/ports/STM32/LLD/TIMv1/pwm_lld.h"
 529              		.file 46 "../../lib/e-puck2_main-processor/ChibiOS//os/hal/include/serial.h"
 530              		.file 47 "../../lib/e-puck2_main-processor/ChibiOS//os/hal/ports/STM32/LLD/USARTv1/serial_lld.h"
 531              		.file 48 "../../lib/e-puck2_main-processor/ChibiOS//os/hal/include/sdc.h"
 532              		.file 49 "../../lib/e-puck2_main-processor/ChibiOS//os/hal/ports/STM32/LLD/sdc_lld.h"
 533              		.file 50 "../../lib/e-puck2_main-processor/ChibiOS//os/hal/include/spi.h"
 534              		.file 51 "../../lib/e-puck2_main-processor/ChibiOS//os/hal/ports/STM32/LLD/SPIv1/spi_lld.h"
 535              		.file 52 "../../lib/e-puck2_main-processor/ChibiOS//os/hal/include/usb.h"
 536              		.file 53 "../../lib/e-puck2_main-processor/ChibiOS//os/hal/ports/STM32/LLD/OTGv1/usb_lld.h"
 537              		.file 54 "../../lib/e-puck2_main-processor/ChibiOS//os/hal/ports/STM32/LLD/OTGv1/stm32_otg.h"
 538              		.file 55 "../../lib/e-puck2_main-processor/ChibiOS//os/hal/include/serial_usb.h"
 539              		.file 56 "c:\\users\\arnaud wist\\projet\\robotique_mondada\\eclipse_e-puck2\\tools\\gcc-arm-none-
 540              		.file 57 "c:\\users\\arnaud wist\\projet\\robotique_mondada\\eclipse_e-puck2\\tools\\gcc-arm-none-
 541              		.file 58 "c:\\users\\arnaud wist\\projet\\robotique_mondada\\eclipse_e-puck2\\tools\\gcc-arm-none-
 542              		.file 59 "c:\\users\\arnaud wist\\projet\\robotique_mondada\\eclipse_e-puck2\\tools\\gcc-arm-none-
 543              		.file 60 "../../lib/e-puck2_main-processor/src/usbcfg.h"
 544              		.file 61 "c:\\users\\arnaud wist\\projet\\robotique_mondada\\eclipse_e-puck2\\tools\\gcc-arm-none-
 545              		.file 62 "<built-in>"
 546              		.file 63 "../../lib/e-puck2_main-processor/ChibiOS_ext/os/hal/include/../ports/STM32/STM32F4xx/dcm
 547              		.file 64 "c:\\users\\arnaud wist\\projet\\robotique_mondada\\eclipse_e-puck2\\tools\\gcc-arm-none-
 548              		.file 65 "../../lib/e-puck2_main-processor/src/msgbus/messagebus.h"
 549              		.file 66 "c:\\users\\arnaud wist\\projet\\robotique_mondada\\eclipse_e-puck2\\tools\\gcc-arm-none-
 550              		.file 67 "../../lib/e-puck2_main-processor/src/parameter/parameter.h"
 551              		.file 68 "./main.h"
 552              		.file 69 "../../lib/e-puck2_main-processor/ChibiOS//os/rt/include/chthreads.h"
 553              		.file 70 "../../lib/e-puck2_main-processor/src/motors.h"
 554              		.file 71 "./process_image.h"