ARM GAS  C:\Users\ARNAUD~1\AppData\Local\Temp\ccaSI0SF.s 			page 1


   1              		.cpu cortex-m4
   2              		.eabi_attribute 27, 1
   3              		.eabi_attribute 28, 1
   4              		.eabi_attribute 20, 1
   5              		.eabi_attribute 21, 1
   6              		.eabi_attribute 23, 3
   7              		.eabi_attribute 24, 1
   8              		.eabi_attribute 25, 1
   9              		.eabi_attribute 26, 1
  10              		.eabi_attribute 30, 2
  11              		.eabi_attribute 34, 1
  12              		.eabi_attribute 18, 4
  13              		.file	"process_image.c"
  14              		.text
  15              	.Ltext0:
  16              		.cfi_sections	.debug_frame
  17              		.section	.text.chprintf.constprop.0,"ax",%progbits
  18              		.align	1
  19              		.p2align 4,,15
  20              		.syntax unified
  21              		.thumb
  22              		.thumb_func
  23              		.fpu fpv4-sp-d16
  24              		.type	chprintf.constprop.0, %function
  25              	chprintf.constprop.0:
  26              	.LFB263:
  27              		.file 1 "../../lib/e-puck2_main-processor/ChibiOS//os/hal/lib/streams/chprintf.h"
  28              		.loc 1 69 0
  29              		.cfi_startproc
  30              		@ args = 4, pretend = 12, frame = 8
  31              		@ frame_needed = 0, uses_anonymous_args = 1
  32              	.LVL0:
  33 0000 0EB4     		push	{r1, r2, r3}
  34              		.cfi_def_cfa_offset 12
  35              		.cfi_offset 1, -12
  36              		.cfi_offset 2, -8
  37              		.cfi_offset 3, -4
  38 0002 10B5     		push	{r4, lr}
  39              		.cfi_def_cfa_offset 20
  40              		.cfi_offset 4, -20
  41              		.cfi_offset 14, -16
  42 0004 0A4C     		ldr	r4, .L6
  43              		.loc 1 74 0
  44 0006 0B49     		ldr	r1, .L6+4
  45              		.loc 1 69 0
  46 0008 2368     		ldr	r3, [r4]
  47              		.loc 1 74 0
  48 000a 0B48     		ldr	r0, .L6+8
  49              	.LVL1:
  50              		.loc 1 69 0
  51 000c 83B0     		sub	sp, sp, #12
  52              		.cfi_def_cfa_offset 32
  53              		.loc 1 69 0
  54 000e 0193     		str	r3, [sp, #4]
  55              	.LVL2:
  56              		.loc 1 73 0
  57 0010 06AB     		add	r3, sp, #24
ARM GAS  C:\Users\ARNAUD~1\AppData\Local\Temp\ccaSI0SF.s 			page 2


  58              		.loc 1 74 0
  59 0012 1A46     		mov	r2, r3
  60              		.loc 1 73 0
  61 0014 0093     		str	r3, [sp]
  62              		.loc 1 74 0
  63 0016 FFF7FEFF 		bl	chvprintf
  64              	.LVL3:
  65              		.loc 1 78 0
  66 001a 019A     		ldr	r2, [sp, #4]
  67 001c 2368     		ldr	r3, [r4]
  68 001e 9A42     		cmp	r2, r3
  69 0020 04D1     		bne	.L5
  70 0022 03B0     		add	sp, sp, #12
  71              		.cfi_remember_state
  72              		.cfi_def_cfa_offset 20
  73              		@ sp needed
  74 0024 BDE81040 		pop	{r4, lr}
  75              		.cfi_restore 14
  76              		.cfi_restore 4
  77              		.cfi_def_cfa_offset 12
  78 0028 03B0     		add	sp, sp, #12
  79              		.cfi_restore 3
  80              		.cfi_restore 2
  81              		.cfi_restore 1
  82              		.cfi_def_cfa_offset 0
  83 002a 7047     		bx	lr
  84              	.L5:
  85              		.cfi_restore_state
  86 002c FFF7FEFF 		bl	__stack_chk_fail
  87              	.LVL4:
  88              	.L7:
  89              		.align	2
  90              	.L6:
  91 0030 00000000 		.word	__stack_chk_guard
  92 0034 00000000 		.word	.LC0
  93 0038 00000000 		.word	SD3
  94              		.cfi_endproc
  95              	.LFE263:
  96              		.size	chprintf.constprop.0, .-chprintf.constprop.0
  97              		.section	.text.CaptureImage,"ax",%progbits
  98              		.align	1
  99              		.p2align 4,,15
 100              		.syntax unified
 101              		.thumb
 102              		.thumb_func
 103              		.fpu fpv4-sp-d16
 104              		.type	CaptureImage, %function
 105              	CaptureImage:
 106              	.LFB257:
 107              		.file 2 "process_image.c"
 108              		.loc 2 18 0
 109              		.cfi_startproc
 110              		@ args = 0, pretend = 0, frame = 8
 111              		@ frame_needed = 0, uses_anonymous_args = 0
 112              	.LVL5:
 113 0000 2DE9F041 		push	{r4, r5, r6, r7, r8, lr}
 114              		.cfi_def_cfa_offset 24
ARM GAS  C:\Users\ARNAUD~1\AppData\Local\Temp\ccaSI0SF.s 			page 3


 115              		.cfi_offset 4, -24
 116              		.cfi_offset 5, -20
 117              		.cfi_offset 6, -16
 118              		.cfi_offset 7, -12
 119              		.cfi_offset 8, -8
 120              		.cfi_offset 14, -4
 121              	.LBB105:
 122              	.LBB106:
 123              		.file 3 "../../lib/e-puck2_main-processor/ChibiOS//os/rt/include/chregistry.h"
 124              		.loc 3 135 0
 125 0004 3C4C     		ldr	r4, .L16
 126              	.LBE106:
 127              	.LBE105:
 128              		.loc 2 18 0
 129 0006 3D4A     		ldr	r2, .L16+4
 130              	.LBB108:
 131              	.LBB107:
 132              		.loc 3 135 0
 133 0008 A369     		ldr	r3, [r4, #24]
 134 000a 3D49     		ldr	r1, .L16+8
 135 000c 9961     		str	r1, [r3, #24]
 136              	.LBE107:
 137              	.LBE108:
 138              		.loc 2 18 0
 139 000e 86B0     		sub	sp, sp, #24
 140              		.cfi_def_cfa_offset 48
 141              		.loc 2 26 0
 142 0010 0223     		movs	r3, #2
 143 0012 2025     		movs	r5, #32
 144              		.loc 2 18 0
 145 0014 1668     		ldr	r6, [r2]
 146              		.loc 2 26 0
 147 0016 0093     		str	r3, [sp]
 148 0018 0A22     		movs	r2, #10
 149 001a 4FF42073 		mov	r3, #640
 150 001e 0021     		movs	r1, #0
 151 0020 CDE90155 		strd	r5, r5, [sp, #4]
 152 0024 3020     		movs	r0, #48
 153              	.LVL6:
 154              		.loc 2 18 0
 155 0026 0596     		str	r6, [sp, #20]
 156              		.loc 2 26 0
 157 0028 FFF7FEFF 		bl	po8030_advanced_config
 158              	.LVL7:
 159              		.loc 2 27 0
 160 002c FFF7FEFF 		bl	dcmi_enable_double_buffering
 161              	.LVL8:
 162              		.loc 2 28 0
 163 0030 0020     		movs	r0, #0
 164 0032 FFF7FEFF 		bl	dcmi_set_capture_mode
 165              	.LVL9:
 166 0036 334F     		ldr	r7, .L16+12
 167              	.LBB109:
 168              	.LBB110:
 169              	.LBB111:
 170              	.LBB112:
 171              		.file 4 "../../lib/e-puck2_main-processor/ChibiOS//os/rt/include/chsys.h"
ARM GAS  C:\Users\ARNAUD~1\AppData\Local\Temp\ccaSI0SF.s 			page 4


 172              		.loc 4 367 0
 173 0038 DFF8CC80 		ldr	r8, .L16+16
 174              	.LBE112:
 175              	.LBE111:
 176              	.LBE110:
 177              	.LBE109:
 178              		.loc 2 29 0
 179 003c FFF7FEFF 		bl	dcmi_prepare
 180              	.LVL10:
 181              	.LBB132:
 182              	.LBB130:
 183              	.LBB121:
 184              	.LBB119:
 185              	.LBB113:
 186              	.LBB114:
 187              	.LBB115:
 188              		.file 5 "../../lib/e-puck2_main-processor/ChibiOS//os/ext/CMSIS/include/core_cmFunc.h"
 189              		.loc 5 546 0
 190 0040 0026     		movs	r6, #0
 191 0042 2DE0     		b	.L13
 192              	.LVL11:
 193              	.L10:
 194              	.LBE115:
 195              	.LBE114:
 196              	.LBE113:
 197              	.LBE119:
 198              	.LBE121:
 199              	.LBE130:
 200              	.LBE132:
 201              	.LBB133:
 202              	.LBB134:
 203              		.file 6 "../../lib/e-puck2_main-processor/ChibiOS//os/rt/include/chbsem.h"
 204              		.loc 6 286 0
 205 0044 FFF7FEFF 		bl	chSchRescheduleS
 206              	.LVL12:
 207              	.LBB135:
 208              	.LBB136:
 209              		.loc 4 360 0
 210 0048 FFF7FEFF 		bl	_dbg_check_unlock
 211              	.LVL13:
 212              		.loc 4 361 0
 213 004c FFF7FEFF 		bl	_stats_stop_measure_crit_thd
 214              	.LVL14:
 215              		.loc 4 367 0
 216 0050 2368     		ldr	r3, [r4]
 217 0052 A342     		cmp	r3, r4
 218 0054 07D0     		beq	.L11
 219 0056 A269     		ldr	r2, [r4, #24]
 220 0058 9B68     		ldr	r3, [r3, #8]
 221 005a 9268     		ldr	r2, [r2, #8]
 222 005c 9A42     		cmp	r2, r3
 223 005e 02D2     		bcs	.L11
 224 0060 4046     		mov	r0, r8
 225 0062 FFF7FEFF 		bl	chSysHalt
 226              	.LVL15:
 227              	.L11:
 228              	.LBB137:
ARM GAS  C:\Users\ARNAUD~1\AppData\Local\Temp\ccaSI0SF.s 			page 5


 229              	.LBB138:
 230              	.LBB139:
 231              		.loc 5 546 0
 232              		.syntax unified
 233              	@ 546 "../../lib/e-puck2_main-processor/ChibiOS//os/ext/CMSIS/include/core_cmFunc.h" 1
 234 0066 86F31188 		MSR basepri, r6
 235              	@ 0 "" 2
 236              	.LVL16:
 237              		.thumb
 238              		.syntax unified
 239              	.LBE139:
 240              	.LBE138:
 241              	.LBE137:
 242              	.LBE136:
 243              	.LBE135:
 244              	.LBE134:
 245              	.LBE133:
 246              		.loc 2 40 0
 247 006a 0C20     		movs	r0, #12
 248 006c FFF7FEFF 		bl	chThdSleep
 249              	.LVL17:
 250              	.LBB148:
 251              	.LBB149:
 252              	.LBB150:
 253              	.LBB151:
 254              	.LBB152:
 255              	.LBB153:
 256              	.LBB154:
 257              		.loc 5 546 0
 258              		.syntax unified
 259              	@ 546 "../../lib/e-puck2_main-processor/ChibiOS//os/ext/CMSIS/include/core_cmFunc.h" 1
 260 0070 85F31188 		MSR basepri, r5
 261              	@ 0 "" 2
 262              	.LVL18:
 263              		.thumb
 264              		.syntax unified
 265              	.LBE154:
 266              	.LBE153:
 267              	.LBE152:
 268              		.loc 4 349 0
 269 0074 FFF7FEFF 		bl	_stats_start_measure_crit_thd
 270              	.LVL19:
 271              		.loc 4 350 0
 272 0078 FFF7FEFF 		bl	_dbg_check_lock
 273              	.LVL20:
 274              	.LBE151:
 275              	.LBE150:
 276              	.LBB155:
 277              	.LBB156:
 278              		.file 7 "../../lib/e-puck2_main-processor/ChibiOS//os/rt/include/chvt.h"
 279              		.loc 7 231 0
 280 007c A36A     		ldr	r3, [r4, #40]
 281              	.LBE156:
 282              	.LBE155:
 283              	.LBB157:
 284              	.LBB158:
 285              		.loc 4 360 0
ARM GAS  C:\Users\ARNAUD~1\AppData\Local\Temp\ccaSI0SF.s 			page 6


 286 007e FFF7FEFF 		bl	_dbg_check_unlock
 287              	.LVL21:
 288              		.loc 4 361 0
 289 0082 FFF7FEFF 		bl	_stats_stop_measure_crit_thd
 290              	.LVL22:
 291              		.loc 4 367 0
 292 0086 2368     		ldr	r3, [r4]
 293 0088 A342     		cmp	r3, r4
 294 008a 07D0     		beq	.L12
 295 008c A269     		ldr	r2, [r4, #24]
 296 008e 9B68     		ldr	r3, [r3, #8]
 297 0090 9268     		ldr	r2, [r2, #8]
 298 0092 9A42     		cmp	r2, r3
 299 0094 02D2     		bcs	.L12
 300 0096 4046     		mov	r0, r8
 301 0098 FFF7FEFF 		bl	chSysHalt
 302              	.LVL23:
 303              	.L12:
 304              	.LBB159:
 305              	.LBB160:
 306              	.LBB161:
 307              		.loc 5 546 0
 308              		.syntax unified
 309              	@ 546 "../../lib/e-puck2_main-processor/ChibiOS//os/ext/CMSIS/include/core_cmFunc.h" 1
 310 009c 86F31188 		MSR basepri, r6
 311              	@ 0 "" 2
 312              	.LVL24:
 313              		.thumb
 314              		.syntax unified
 315              	.L13:
 316              	.LBE161:
 317              	.LBE160:
 318              	.LBE159:
 319              	.LBE158:
 320              	.LBE157:
 321              	.LBE149:
 322              	.LBE148:
 323              	.LBB162:
 324              	.LBB131:
 325              	.LBB122:
 326              	.LBB123:
 327              	.LBB124:
 328              	.LBB125:
 329              	.LBB126:
 330              		.loc 5 546 0 is_stmt 0 discriminator 1
 331              		.syntax unified
 332              	@ 546 "../../lib/e-puck2_main-processor/ChibiOS//os/ext/CMSIS/include/core_cmFunc.h" 1
 333 00a0 85F31188 		MSR basepri, r5
 334              	@ 0 "" 2
 335              	.LVL25:
 336              		.thumb
 337              		.syntax unified
 338              	.LBE126:
 339              	.LBE125:
 340              	.LBE124:
 341              		.loc 4 349 0 is_stmt 1 discriminator 1
 342 00a4 FFF7FEFF 		bl	_stats_start_measure_crit_thd
ARM GAS  C:\Users\ARNAUD~1\AppData\Local\Temp\ccaSI0SF.s 			page 7


 343              	.LVL26:
 344              		.loc 4 350 0 discriminator 1
 345 00a8 FFF7FEFF 		bl	_dbg_check_lock
 346              	.LVL27:
 347              	.LBE123:
 348              	.LBE122:
 349              	.LBB127:
 350              	.LBB128:
 351              		.loc 7 231 0 discriminator 1
 352 00ac A36A     		ldr	r3, [r4, #40]
 353              	.LBE128:
 354              	.LBE127:
 355              	.LBB129:
 356              	.LBB120:
 357              		.loc 4 360 0 discriminator 1
 358 00ae FFF7FEFF 		bl	_dbg_check_unlock
 359              	.LVL28:
 360              		.loc 4 361 0 discriminator 1
 361 00b2 FFF7FEFF 		bl	_stats_stop_measure_crit_thd
 362              	.LVL29:
 363              		.loc 4 367 0 discriminator 1
 364 00b6 2368     		ldr	r3, [r4]
 365 00b8 A342     		cmp	r3, r4
 366 00ba 07D0     		beq	.L9
 367              		.loc 4 367 0 is_stmt 0
 368 00bc A269     		ldr	r2, [r4, #24]
 369 00be 9B68     		ldr	r3, [r3, #8]
 370 00c0 9268     		ldr	r2, [r2, #8]
 371 00c2 9A42     		cmp	r2, r3
 372 00c4 02D2     		bcs	.L9
 373 00c6 4046     		mov	r0, r8
 374 00c8 FFF7FEFF 		bl	chSysHalt
 375              	.LVL30:
 376              	.L9:
 377              	.LBB118:
 378              	.LBB117:
 379              	.LBB116:
 380              		.loc 5 546 0 is_stmt 1
 381              		.syntax unified
 382              	@ 546 "../../lib/e-puck2_main-processor/ChibiOS//os/ext/CMSIS/include/core_cmFunc.h" 1
 383 00cc 86F31188 		MSR basepri, r6
 384              	@ 0 "" 2
 385              	.LVL31:
 386              		.thumb
 387              		.syntax unified
 388              	.LBE116:
 389              	.LBE117:
 390              	.LBE118:
 391              	.LBE120:
 392              	.LBE129:
 393              	.LBE131:
 394              	.LBE162:
 395              		.loc 2 35 0
 396 00d0 FFF7FEFF 		bl	dcmi_capture_start
 397              	.LVL32:
 398              		.loc 2 37 0
 399 00d4 FFF7FEFF 		bl	wait_image_ready
ARM GAS  C:\Users\ARNAUD~1\AppData\Local\Temp\ccaSI0SF.s 			page 8


 400              	.LVL33:
 401              	.LBB163:
 402              	.LBB147:
 403              	.LBB140:
 404              	.LBB141:
 405              	.LBB142:
 406              	.LBB143:
 407              	.LBB144:
 408              		.loc 5 546 0
 409              		.syntax unified
 410              	@ 546 "../../lib/e-puck2_main-processor/ChibiOS//os/ext/CMSIS/include/core_cmFunc.h" 1
 411 00d8 85F31188 		MSR basepri, r5
 412              	@ 0 "" 2
 413              	.LVL34:
 414              		.thumb
 415              		.syntax unified
 416              	.LBE144:
 417              	.LBE143:
 418              	.LBE142:
 419              		.loc 4 349 0
 420 00dc FFF7FEFF 		bl	_stats_start_measure_crit_thd
 421              	.LVL35:
 422              		.loc 4 350 0
 423 00e0 FFF7FEFF 		bl	_dbg_check_lock
 424              	.LVL36:
 425              	.LBE141:
 426              	.LBE140:
 427              	.LBB145:
 428              	.LBB146:
 429              		.loc 6 268 0
 430 00e4 FFF7FEFF 		bl	chDbgCheckClassI
 431              	.LVL37:
 432              		.loc 6 270 0
 433 00e8 BB68     		ldr	r3, [r7, #8]
 434 00ea 002B     		cmp	r3, #0
 435 00ec AADC     		bgt	.L10
 436              		.loc 6 271 0
 437 00ee 0548     		ldr	r0, .L16+12
 438 00f0 FFF7FEFF 		bl	chSemSignalI
 439              	.LVL38:
 440 00f4 A6E7     		b	.L10
 441              	.L17:
 442 00f6 00BF     		.align	2
 443              	.L16:
 444 00f8 00000000 		.word	ch
 445 00fc 00000000 		.word	__stack_chk_guard
 446 0100 00000000 		.word	.LANCHOR0
 447 0104 00000000 		.word	.LANCHOR2
 448 0108 00000000 		.word	.LANCHOR1
 449              	.LBE146:
 450              	.LBE145:
 451              	.LBE147:
 452              	.LBE163:
 453              		.cfi_endproc
 454              	.LFE257:
 455              		.size	CaptureImage, .-CaptureImage
 456              		.section	.text.line_detection,"ax",%progbits
ARM GAS  C:\Users\ARNAUD~1\AppData\Local\Temp\ccaSI0SF.s 			page 9


 457              		.align	1
 458              		.p2align 4,,15
 459              		.global	line_detection
 460              		.syntax unified
 461              		.thumb
 462              		.thumb_func
 463              		.fpu fpv4-sp-d16
 464              		.type	line_detection, %function
 465              	line_detection:
 466              	.LFB259:
 467              		.loc 2 81 0
 468              		.cfi_startproc
 469              		@ args = 0, pretend = 0, frame = 16
 470              		@ frame_needed = 0, uses_anonymous_args = 0
 471              	.LVL39:
 472 0000 30B5     		push	{r4, r5, lr}
 473              		.cfi_def_cfa_offset 12
 474              		.cfi_offset 4, -12
 475              		.cfi_offset 5, -8
 476              		.cfi_offset 14, -4
 477 0002 244C     		ldr	r4, .L34
 478 0004 87B0     		sub	sp, sp, #28
 479              		.cfi_def_cfa_offset 40
 480 0006 451E     		subs	r5, r0, #1
 481              		.loc 2 81 0
 482 0008 2368     		ldr	r3, [r4]
 483 000a 0593     		str	r3, [sp, #20]
 484              	.LVL40:
 485 000c 00F27F20 		addw	r0, r0, #639
 486              	.LVL41:
 487 0010 2A46     		mov	r2, r5
 488              		.loc 2 86 0
 489 0012 0023     		movs	r3, #0
 490              	.LVL42:
 491              	.L19:
 492              	.LBB164:
 493              		.loc 2 90 0 discriminator 3
 494 0014 12F8011F 		ldrb	r1, [r2, #1]!	@ zero_extendqisi2
 495              	.LVL43:
 496 0018 0B44     		add	r3, r3, r1
 497              	.LVL44:
 498              		.loc 2 89 0 discriminator 3
 499 001a 8242     		cmp	r2, r0
 500              		.loc 2 90 0 discriminator 3
 501 001c 9BB2     		uxth	r3, r3
 502              	.LVL45:
 503              		.loc 2 89 0 discriminator 3
 504 001e F9D1     		bne	.L19
 505              	.LVL46:
 506              	.LBE164:
 507              		.loc 2 92 0
 508 0020 1D4A     		ldr	r2, .L34+4
 509              	.LVL47:
 510              		.loc 2 94 0
 511 0022 9FED1E7A 		vldr.32	s14, .L34+8
 512              		.loc 2 92 0
 513 0026 A2FB0323 		umull	r2, r3, r2, r3
ARM GAS  C:\Users\ARNAUD~1\AppData\Local\Temp\ccaSI0SF.s 			page 10


 514              	.LVL48:
 515              		.loc 2 94 0
 516 002a C3F34F23 		ubfx	r3, r3, #9, #16
 517 002e 07EE903A 		vmov	s15, r3	@ int
 518 0032 F8EEE77A 		vcvt.f32.s32	s15, s15
 519              	.LBB165:
 520              		.loc 2 99 0
 521 0036 0021     		movs	r1, #0
 522              	.LBE165:
 523              		.loc 2 94 0
 524 0038 E7EEC77A 		vfms.f32	s15, s15, s14
 525              		.loc 2 82 0
 526 003c 4FF0FF33 		mov	r3, #-1
 527              		.loc 2 94 0
 528 0040 FCEEE77A 		vcvt.u32.f32	s15, s15
 529 0044 CDED037A 		vstr.32	s15, [sp, #12]	@ int
 530 0048 9DF80C20 		ldrb	r2, [sp, #12]	@ zero_extendqisi2
 531              	.LVL49:
 532 004c 07E0     		b	.L24
 533              	.LVL50:
 534              	.L32:
 535              	.LBB166:
 536 004e B3F1FF3F 		cmp	r3, #-1
 537 0052 08BF     		it	eq
 538 0054 0B46     		moveq	r3, r1
 539              	.LVL51:
 540              	.L21:
 541              		.loc 2 99 0 discriminator 2
 542 0056 0131     		adds	r1, r1, #1
 543              	.LVL52:
 544 0058 B1F5207F 		cmp	r1, #640
 545 005c 14D0     		beq	.L31
 546              	.LVL53:
 547              	.L24:
 548              		.loc 2 101 0
 549 005e 15F8010F 		ldrb	r0, [r5, #1]!	@ zero_extendqisi2
 550 0062 9042     		cmp	r0, r2
 551 0064 F3D3     		bcc	.L32
 552              		.loc 2 103 0
 553 0066 F6D9     		bls	.L21
 554              		.loc 2 103 0 is_stmt 0 discriminator 1
 555 0068 581C     		adds	r0, r3, #1
 556 006a F4D0     		beq	.L21
 557              	.LVL54:
 558              	.LBE166:
 559              		.loc 2 109 0 is_stmt 1
 560 006c CD1A     		subs	r5, r1, r3
 561              	.LVL55:
 562              	.L25:
 563              		.loc 2 111 0
 564 006e CDE90015 		strd	r1, r5, [sp]
 565 0072 0B48     		ldr	r0, .L34+12
 566 0074 0B49     		ldr	r1, .L34+16
 567 0076 FFF7FEFF 		bl	chprintf.constprop.0
 568              	.LVL56:
 569              		.loc 2 113 0
 570 007a 059A     		ldr	r2, [sp, #20]
ARM GAS  C:\Users\ARNAUD~1\AppData\Local\Temp\ccaSI0SF.s 			page 11


 571 007c 2368     		ldr	r3, [r4]
 572 007e 9A42     		cmp	r2, r3
 573 0080 2846     		mov	r0, r5
 574 0082 05D1     		bne	.L33
 575 0084 07B0     		add	sp, sp, #28
 576              		.cfi_remember_state
 577              		.cfi_def_cfa_offset 12
 578              		@ sp needed
 579 0086 30BD     		pop	{r4, r5, pc}
 580              	.LVL57:
 581              	.L31:
 582              		.cfi_restore_state
 583              		.loc 2 83 0
 584 0088 4FF0FF31 		mov	r1, #-1
 585              	.LVL58:
 586              		.loc 2 84 0
 587 008c 0025     		movs	r5, #0
 588 008e EEE7     		b	.L25
 589              	.LVL59:
 590              	.L33:
 591              		.loc 2 113 0
 592 0090 FFF7FEFF 		bl	__stack_chk_fail
 593              	.LVL60:
 594              	.L35:
 595              		.align	2
 596              	.L34:
 597 0094 00000000 		.word	__stack_chk_guard
 598 0098 CDCCCCCC 		.word	-858993459
 599 009c 3D0AD73E 		.word	1054280253
 600 00a0 00000000 		.word	SD3
 601 00a4 00000000 		.word	.LC0
 602              		.cfi_endproc
 603              	.LFE259:
 604              		.size	line_detection, .-line_detection
 605              		.section	.text.ProcessImage,"ax",%progbits
 606              		.align	1
 607              		.p2align 4,,15
 608              		.syntax unified
 609              		.thumb
 610              		.thumb_func
 611              		.fpu fpv4-sp-d16
 612              		.type	ProcessImage, %function
 613              	ProcessImage:
 614              	.LFB258:
 615              		.loc 2 48 0
 616              		.cfi_startproc
 617              		@ args = 0, pretend = 0, frame = 648
 618              		@ frame_needed = 0, uses_anonymous_args = 0
 619              	.LVL61:
 620 0000 70B5     		push	{r4, r5, r6, lr}
 621              		.cfi_def_cfa_offset 16
 622              		.cfi_offset 4, -16
 623              		.cfi_offset 5, -12
 624              		.cfi_offset 6, -8
 625              		.cfi_offset 14, -4
 626 0002 2DED028B 		vpush.64	{d8}
 627              		.cfi_def_cfa_offset 24
ARM GAS  C:\Users\ARNAUD~1\AppData\Local\Temp\ccaSI0SF.s 			page 12


 628              		.cfi_offset 80, -24
 629              		.cfi_offset 81, -20
 630              	.LBB167:
 631              	.LBB168:
 632              		.loc 3 135 0
 633 0006 1F4A     		ldr	r2, .L44
 634              	.LBE168:
 635              	.LBE167:
 636              		.loc 2 48 0
 637 0008 1F4B     		ldr	r3, .L44+4
 638              	.LBB170:
 639              	.LBB169:
 640              		.loc 3 135 0
 641 000a 9269     		ldr	r2, [r2, #24]
 642 000c 1F49     		ldr	r1, .L44+8
 643 000e 9161     		str	r1, [r2, #24]
 644              	.LBE169:
 645              	.LBE170:
 646              		.loc 2 48 0
 647 0010 ADF5227D 		sub	sp, sp, #648
 648              		.cfi_def_cfa_offset 672
 649              		.loc 2 48 0
 650 0014 1B68     		ldr	r3, [r3]
 651 0016 A193     		str	r3, [sp, #644]
 652              		.loc 2 54 0
 653 0018 01A8     		add	r0, sp, #4
 654              	.LVL62:
 655 001a 4FF42072 		mov	r2, #640
 656 001e 0021     		movs	r1, #0
 657 0020 FFF7FEFF 		bl	memset
 658              	.LVL63:
 659 0024 1A4E     		ldr	r6, .L44+12
 660              	.LBB171:
 661              	.LBB172:
 662              		.loc 6 143 0
 663 0026 1B4D     		ldr	r5, .L44+16
 664              	.LBE172:
 665              	.LBE171:
 666              	.LBB174:
 667              		.loc 2 74 0
 668 0028 DFED1B8A 		vldr.32	s17, .L44+20
 669 002c 9FED1B8A 		vldr.32	s16, .L44+24
 670              	.LBE174:
 671              		.loc 2 56 0
 672 0030 0024     		movs	r4, #0
 673              	.LVL64:
 674              	.L40:
 675              	.LBB175:
 676              	.LBB173:
 677              		.loc 6 143 0
 678 0032 2846     		mov	r0, r5
 679 0034 FFF7FEFF 		bl	chSemWait
 680              	.LVL65:
 681              	.LBE173:
 682              	.LBE175:
 683              		.loc 2 63 0
 684 0038 FFF7FEFF 		bl	dcmi_get_last_image_ptr
ARM GAS  C:\Users\ARNAUD~1\AppData\Local\Temp\ccaSI0SF.s 			page 13


 685              	.LVL66:
 686 003c 0DF10301 		add	r1, sp, #3
 687              	.LBB176:
 688              		.loc 2 67 0
 689 0040 0023     		movs	r3, #0
 690              	.LVL67:
 691              	.L37:
 692              		.loc 2 69 0 discriminator 3
 693 0042 10F81320 		ldrb	r2, [r0, r3, lsl #1]	@ zero_extendqisi2
 694              		.loc 2 67 0 discriminator 3
 695 0046 0133     		adds	r3, r3, #1
 696              	.LVL68:
 697              		.loc 2 69 0 discriminator 3
 698 0048 22F00702 		bic	r2, r2, #7
 699              		.loc 2 67 0 discriminator 3
 700 004c B3F5207F 		cmp	r3, #640
 701              		.loc 2 69 0 discriminator 3
 702 0050 01F8012F 		strb	r2, [r1, #1]!
 703              		.loc 2 67 0 discriminator 3
 704 0054 F5D1     		bne	.L37
 705              	.LBE176:
 706              		.loc 2 71 0
 707 0056 042C     		cmp	r4, #4
 708 0058 01D0     		beq	.L38
 709 005a 0134     		adds	r4, r4, #1
 710              	.LVL69:
 711 005c E9E7     		b	.L40
 712              	.LVL70:
 713              	.L38:
 714              	.LBB177:
 715              		.loc 2 73 0
 716 005e 01A8     		add	r0, sp, #4
 717              	.LVL71:
 718 0060 FFF7FEFF 		bl	line_detection
 719              	.LVL72:
 720              		.loc 2 74 0
 721 0064 07EE900A 		vmov	s15, r0	@ int
 722 0068 B8EEE77A 		vcvt.f32.s32	s14, s15
 723 006c F7EE006A 		vmov.f32	s13, #1.0e+0
 724 0070 C6EE877A 		vdiv.f32	s15, s13, s14
 725 0074 0124     		movs	r4, #1
 726              	.LVL73:
 727 0076 77EEE87A 		vsub.f32	s15, s15, s17
 728 007a 87EE887A 		vdiv.f32	s14, s15, s16
 729 007e 86ED007A 		vstr.32	s14, [r6]
 730              	.LBE177:
 731              		.loc 2 61 0
 732 0082 D6E7     		b	.L40
 733              	.L45:
 734              		.align	2
 735              	.L44:
 736 0084 00000000 		.word	ch
 737 0088 00000000 		.word	__stack_chk_guard
 738 008c 00000000 		.word	.LANCHOR3
 739 0090 00000000 		.word	.LANCHOR4
 740 0094 00000000 		.word	.LANCHOR2
 741 0098 BEF06F3A 		.word	980414654
ARM GAS  C:\Users\ARNAUD~1\AppData\Local\Temp\ccaSI0SF.s 			page 14


 742 009c DA032D3A 		.word	976028634
 743              		.cfi_endproc
 744              	.LFE258:
 745              		.size	ProcessImage, .-ProcessImage
 746              		.section	.text.get_distance_cm,"ax",%progbits
 747              		.align	1
 748              		.p2align 4,,15
 749              		.global	get_distance_cm
 750              		.syntax unified
 751              		.thumb
 752              		.thumb_func
 753              		.fpu fpv4-sp-d16
 754              		.type	get_distance_cm, %function
 755              	get_distance_cm:
 756              	.LFB260:
 757              		.loc 2 115 0
 758              		.cfi_startproc
 759              		@ args = 0, pretend = 0, frame = 8
 760              		@ frame_needed = 0, uses_anonymous_args = 0
 761 0000 00B5     		push	{lr}
 762              		.cfi_def_cfa_offset 4
 763              		.cfi_offset 14, -4
 764 0002 084B     		ldr	r3, .L50
 765              		.loc 2 117 0
 766 0004 0849     		ldr	r1, .L50+4
 767              		.loc 2 115 0
 768 0006 1A68     		ldr	r2, [r3]
 769              		.loc 2 118 0
 770 0008 91ED000A 		vldr.32	s0, [r1]
 771              		.loc 2 115 0
 772 000c 83B0     		sub	sp, sp, #12
 773              		.cfi_def_cfa_offset 16
 774              		.loc 2 115 0
 775 000e 0192     		str	r2, [sp, #4]
 776              		.loc 2 118 0
 777 0010 019A     		ldr	r2, [sp, #4]
 778 0012 1B68     		ldr	r3, [r3]
 779 0014 9A42     		cmp	r2, r3
 780 0016 02D1     		bne	.L49
 781 0018 03B0     		add	sp, sp, #12
 782              		.cfi_remember_state
 783              		.cfi_def_cfa_offset 4
 784              		@ sp needed
 785 001a 5DF804FB 		ldr	pc, [sp], #4
 786              	.L49:
 787              		.cfi_restore_state
 788 001e FFF7FEFF 		bl	__stack_chk_fail
 789              	.LVL74:
 790              	.L51:
 791 0022 00BF     		.align	2
 792              	.L50:
 793 0024 00000000 		.word	__stack_chk_guard
 794 0028 00000000 		.word	.LANCHOR4
 795              		.cfi_endproc
 796              	.LFE260:
 797              		.size	get_distance_cm, .-get_distance_cm
 798              		.section	.text.process_image_start,"ax",%progbits
ARM GAS  C:\Users\ARNAUD~1\AppData\Local\Temp\ccaSI0SF.s 			page 15


 799              		.align	1
 800              		.p2align 4,,15
 801              		.global	process_image_start
 802              		.syntax unified
 803              		.thumb
 804              		.thumb_func
 805              		.fpu fpv4-sp-d16
 806              		.type	process_image_start, %function
 807              	process_image_start:
 808              	.LFB261:
 809              		.loc 2 120 0
 810              		.cfi_startproc
 811              		@ args = 0, pretend = 0, frame = 8
 812              		@ frame_needed = 0, uses_anonymous_args = 0
 813 0000 30B5     		push	{r4, r5, lr}
 814              		.cfi_def_cfa_offset 12
 815              		.cfi_offset 4, -12
 816              		.cfi_offset 5, -8
 817              		.cfi_offset 14, -4
 818 0002 0E4C     		ldr	r4, .L56
 819              		.loc 2 121 0
 820 0004 0E4B     		ldr	r3, .L56+4
 821              		.loc 2 120 0
 822 0006 2268     		ldr	r2, [r4]
 823              		.loc 2 121 0
 824 0008 0E48     		ldr	r0, .L56+8
 825              		.loc 2 120 0
 826 000a 85B0     		sub	sp, sp, #20
 827              		.cfi_def_cfa_offset 32
 828              		.loc 2 121 0
 829 000c 0025     		movs	r5, #0
 830              		.loc 2 120 0
 831 000e 0392     		str	r2, [sp, #12]
 832              		.loc 2 121 0
 833 0010 4FF4AF61 		mov	r1, #1400
 834 0014 4022     		movs	r2, #64
 835 0016 0095     		str	r5, [sp]
 836 0018 FFF7FEFF 		bl	chThdCreateStatic
 837              	.LVL75:
 838              		.loc 2 122 0
 839 001c 0A4B     		ldr	r3, .L56+12
 840 001e 0095     		str	r5, [sp]
 841 0020 4022     		movs	r2, #64
 842 0022 0A48     		ldr	r0, .L56+16
 843 0024 4FF41E71 		mov	r1, #632
 844 0028 FFF7FEFF 		bl	chThdCreateStatic
 845              	.LVL76:
 846              		.loc 2 123 0
 847 002c 039A     		ldr	r2, [sp, #12]
 848 002e 2368     		ldr	r3, [r4]
 849 0030 9A42     		cmp	r2, r3
 850 0032 01D1     		bne	.L55
 851 0034 05B0     		add	sp, sp, #20
 852              		.cfi_remember_state
 853              		.cfi_def_cfa_offset 12
 854              		@ sp needed
 855 0036 30BD     		pop	{r4, r5, pc}
ARM GAS  C:\Users\ARNAUD~1\AppData\Local\Temp\ccaSI0SF.s 			page 16


 856              	.L55:
 857              		.cfi_restore_state
 858 0038 FFF7FEFF 		bl	__stack_chk_fail
 859              	.LVL77:
 860              	.L57:
 861              		.align	2
 862              	.L56:
 863 003c 00000000 		.word	__stack_chk_guard
 864 0040 00000000 		.word	ProcessImage
 865 0044 00000000 		.word	.LANCHOR5
 866 0048 00000000 		.word	CaptureImage
 867 004c 00000000 		.word	.LANCHOR6
 868              		.cfi_endproc
 869              	.LFE261:
 870              		.size	process_image_start, .-process_image_start
 871              		.section	.bss.distance_cm,"aw",%nobits
 872              		.align	2
 873              		.set	.LANCHOR4,. + 0
 874              		.type	distance_cm, %object
 875              		.size	distance_cm, 4
 876              	distance_cm:
 877 0000 00000000 		.space	4
 878              		.section	.bss.waCaptureImage,"aw",%nobits
 879              		.align	3
 880              		.set	.LANCHOR6,. + 0
 881              		.type	waCaptureImage, %object
 882              		.size	waCaptureImage, 632
 883              	waCaptureImage:
 884 0000 00000000 		.space	632
 884      00000000 
 884      00000000 
 884      00000000 
 884      00000000 
 885              		.section	.bss.waProcessImage,"aw",%nobits
 886              		.align	3
 887              		.set	.LANCHOR5,. + 0
 888              		.type	waProcessImage, %object
 889              		.size	waProcessImage, 1400
 890              	waProcessImage:
 891 0000 00000000 		.space	1400
 891      00000000 
 891      00000000 
 891      00000000 
 891      00000000 
 892              		.section	.data.image_ready_sem,"aw",%progbits
 893              		.align	2
 894              		.set	.LANCHOR2,. + 0
 895              		.type	image_ready_sem, %object
 896              		.size	image_ready_sem, 12
 897              	image_ready_sem:
 898 0000 00000000 		.word	image_ready_sem
 899 0004 00000000 		.word	image_ready_sem
 900 0008 00000000 		.word	0
 901              		.section	.rodata.__FUNCTION__.11329,"a",%progbits
 902              		.align	2
 903              		.set	.LANCHOR0,. + 0
 904              		.type	__FUNCTION__.11329, %object
ARM GAS  C:\Users\ARNAUD~1\AppData\Local\Temp\ccaSI0SF.s 			page 17


 905              		.size	__FUNCTION__.11329, 13
 906              	__FUNCTION__.11329:
 907 0000 43617074 		.ascii	"CaptureImage\000"
 907      75726549 
 907      6D616765 
 907      00
 908              		.section	.rodata.__FUNCTION__.11336,"a",%progbits
 909              		.align	2
 910              		.set	.LANCHOR3,. + 0
 911              		.type	__FUNCTION__.11336, %object
 912              		.size	__FUNCTION__.11336, 13
 913              	__FUNCTION__.11336:
 914 0000 50726F63 		.ascii	"ProcessImage\000"
 914      65737349 
 914      6D616765 
 914      00
 915              		.section	.rodata.__func__.7153,"a",%progbits
 916              		.align	2
 917              		.set	.LANCHOR1,. + 0
 918              		.type	__func__.7153, %object
 919              		.size	__func__.7153, 12
 920              	__func__.7153:
 921 0000 63685379 		.ascii	"chSysUnlock\000"
 921      73556E6C 
 921      6F636B00 
 922              		.section	.rodata.chprintf.constprop.0.str1.4,"aMS",%progbits,1
 923              		.align	2
 924              	.LC0:
 925 0000 0A207468 		.ascii	"\012 threshold= %u, x0= %d, x1= %d, length= %d\012\000"
 925      72657368 
 925      6F6C643D 
 925      2025752C 
 925      2078303D 
 926              		.text
 927              	.Letext0:
 928              		.file 8 "c:\\users\\arnaud wist\\projet\\robotique_mondada\\eclipse_e-puck2\\tools\\gcc-arm-none-e
 929              		.file 9 "c:\\users\\arnaud wist\\projet\\robotique_mondada\\eclipse_e-puck2\\tools\\gcc-arm-none-e
 930              		.file 10 "c:\\users\\arnaud wist\\projet\\robotique_mondada\\eclipse_e-puck2\\tools\\gcc-arm-none-
 931              		.file 11 "../../lib/e-puck2_main-processor/ChibiOS//os/rt/ports/ARMCMx/compilers/GCC/chtypes.h"
 932              		.file 12 "../../lib/e-puck2_main-processor/ChibiOS//os/rt/include/chsystypes.h"
 933              		.file 13 "../../lib/e-puck2_main-processor/ChibiOS//os/rt/include/chschd.h"
 934              		.file 14 "../../lib/e-puck2_main-processor/ChibiOS//os/ext/CMSIS/include/core_cm4.h"
 935              		.file 15 "../../lib/e-puck2_main-processor/ChibiOS//os/ext/CMSIS/ST/system_stm32f4xx.h"
 936              		.file 16 "../../lib/e-puck2_main-processor/ChibiOS//os/ext/CMSIS/ST/stm32f407xx.h"
 937              		.file 17 "../../lib/e-puck2_main-processor/ChibiOS//os/rt/ports/ARMCMx/chcore.h"
 938              		.file 18 "../../lib/e-puck2_main-processor/ChibiOS//os/rt/ports/ARMCMx/chcore_v7m.h"
 939              		.file 19 "../../lib/e-puck2_main-processor/ChibiOS//os/rt/include/chdebug.h"
 940              		.file 20 "../../lib/e-puck2_main-processor/ChibiOS//os/rt/include/chtm.h"
 941              		.file 21 "../../lib/e-puck2_main-processor/ChibiOS//os/rt/include/chstats.h"
 942              		.file 22 "../../lib/e-puck2_main-processor/ChibiOS//os/rt/include/chsem.h"
 943              		.file 23 "../../lib/e-puck2_main-processor/ChibiOS//os/rt/include/chmtx.h"
 944              		.file 24 "../../lib/e-puck2_main-processor/ChibiOS//os/rt/include/chevents.h"
 945              		.file 25 "../../lib/e-puck2_main-processor/ChibiOS//os/rt/include/chqueues.h"
 946              		.file 26 "../../lib/e-puck2_main-processor/ChibiOS//os/rt/include/chstreams.h"
 947              		.file 27 "../../lib/e-puck2_main-processor/ChibiOS//os/hal/ports/STM32/STM32F4xx/stm32_dma.h"
 948              		.file 28 "../../lib/e-puck2_main-processor/ChibiOS//os/hal/include/hal_ioblock.h"
 949              		.file 29 "../../lib/e-puck2_main-processor/ChibiOS//os/hal/ports/STM32/LLD/GPIOv2/pal_lld.h"
ARM GAS  C:\Users\ARNAUD~1\AppData\Local\Temp\ccaSI0SF.s 			page 18


 950              		.file 30 "../../lib/e-puck2_main-processor/ChibiOS//os/hal/include/adc.h"
 951              		.file 31 "../../lib/e-puck2_main-processor/ChibiOS//os/hal/ports/STM32/STM32F4xx/adc_lld.h"
 952              		.file 32 "../../lib/e-puck2_main-processor/ChibiOS//os/hal/include/can.h"
 953              		.file 33 "../../lib/e-puck2_main-processor/ChibiOS//os/hal/ports/STM32/LLD/can_lld.h"
 954              		.file 34 "../../lib/e-puck2_main-processor/ChibiOS//os/hal/include/dac.h"
 955              		.file 35 "../../lib/e-puck2_main-processor/ChibiOS//os/hal/ports/STM32/LLD/DACv1/dac_lld.h"
 956              		.file 36 "../../lib/e-puck2_main-processor/ChibiOS//os/hal/include/ext.h"
 957              		.file 37 "../../lib/e-puck2_main-processor/ChibiOS//os/hal/ports/STM32/LLD/ext_lld.h"
 958              		.file 38 "../../lib/e-puck2_main-processor/ChibiOS//os/hal/include/gpt.h"
 959              		.file 39 "../../lib/e-puck2_main-processor/ChibiOS//os/hal/ports/STM32/LLD/TIMv1/gpt_lld.h"
 960              		.file 40 "../../lib/e-puck2_main-processor/ChibiOS//os/hal/ports/STM32/LLD/TIMv1/stm32_tim.h"
 961              		.file 41 "../../lib/e-puck2_main-processor/ChibiOS//os/hal/include/i2c.h"
 962              		.file 42 "../../lib/e-puck2_main-processor/ChibiOS//os/hal/ports/STM32/LLD/I2Cv1/i2c_lld.h"
 963              		.file 43 "../../lib/e-puck2_main-processor/ChibiOS//os/hal/include/i2s.h"
 964              		.file 44 "../../lib/e-puck2_main-processor/ChibiOS//os/hal/ports/STM32/LLD/SPIv1/i2s_lld.h"
 965              		.file 45 "../../lib/e-puck2_main-processor/ChibiOS//os/hal/include/pwm.h"
 966              		.file 46 "../../lib/e-puck2_main-processor/ChibiOS//os/hal/ports/STM32/LLD/TIMv1/pwm_lld.h"
 967              		.file 47 "../../lib/e-puck2_main-processor/ChibiOS//os/hal/include/serial.h"
 968              		.file 48 "../../lib/e-puck2_main-processor/ChibiOS//os/hal/ports/STM32/LLD/USARTv1/serial_lld.h"
 969              		.file 49 "../../lib/e-puck2_main-processor/ChibiOS//os/hal/include/sdc.h"
 970              		.file 50 "../../lib/e-puck2_main-processor/ChibiOS//os/hal/ports/STM32/LLD/sdc_lld.h"
 971              		.file 51 "../../lib/e-puck2_main-processor/ChibiOS//os/hal/include/spi.h"
 972              		.file 52 "../../lib/e-puck2_main-processor/ChibiOS//os/hal/ports/STM32/LLD/SPIv1/spi_lld.h"
 973              		.file 53 "../../lib/e-puck2_main-processor/ChibiOS//os/hal/include/usb.h"
 974              		.file 54 "../../lib/e-puck2_main-processor/ChibiOS//os/hal/ports/STM32/LLD/OTGv1/usb_lld.h"
 975              		.file 55 "../../lib/e-puck2_main-processor/ChibiOS//os/hal/ports/STM32/LLD/OTGv1/stm32_otg.h"
 976              		.file 56 "../../lib/e-puck2_main-processor/ChibiOS//os/hal/include/serial_usb.h"
 977              		.file 57 "c:\\users\\arnaud wist\\projet\\robotique_mondada\\eclipse_e-puck2\\tools\\gcc-arm-none-
 978              		.file 58 "<built-in>"
 979              		.file 59 "../../lib/e-puck2_main-processor/src/usbcfg.h"
 980              		.file 60 "../../lib/e-puck2_main-processor/ChibiOS_ext/os/hal/include/../ports/STM32/STM32F4xx/dcm
 981              		.file 61 "../../lib/e-puck2_main-processor/src/camera/po8030.h"
 982              		.file 62 "../../lib/e-puck2_main-processor/src/camera/dcmi_camera.h"
 983              		.file 63 "c:\\users\\arnaud wist\\projet\\robotique_mondada\\eclipse_e-puck2\\tools\\gcc-arm-none-
 984              		.file 64 "c:\\users\\arnaud wist\\projet\\robotique_mondada\\eclipse_e-puck2\\tools\\gcc-arm-none-
 985              		.file 65 "c:\\users\\arnaud wist\\projet\\robotique_mondada\\eclipse_e-puck2\\tools\\gcc-arm-none-
 986              		.file 66 "../../lib/e-puck2_main-processor/src/msgbus/messagebus.h"
 987              		.file 67 "c:\\users\\arnaud wist\\projet\\robotique_mondada\\eclipse_e-puck2\\tools\\gcc-arm-none-
 988              		.file 68 "c:\\users\\arnaud wist\\projet\\robotique_mondada\\eclipse_e-puck2\\tools\\gcc-arm-none-
 989              		.file 69 "../../lib/e-puck2_main-processor/src/parameter/parameter.h"
 990              		.file 70 "./main.h"
 991              		.file 71 "../../lib/e-puck2_main-processor/ChibiOS//os/rt/include/chthreads.h"