ARM GAS  C:\Users\ARNAUD~1\AppData\Local\Temp\cctaZKDT.s 			page 1


   1              		.cpu cortex-m4
   2              		.eabi_attribute 27, 1
   3              		.eabi_attribute 28, 1
   4              		.eabi_attribute 20, 1
   5              		.eabi_attribute 21, 1
   6              		.eabi_attribute 23, 3
   7              		.eabi_attribute 24, 1
   8              		.eabi_attribute 25, 1
   9              		.eabi_attribute 26, 1
  10              		.eabi_attribute 30, 2
  11              		.eabi_attribute 34, 1
  12              		.eabi_attribute 18, 4
  13              		.file	"signals_processing.c"
  14              		.text
  15              	.Ltext0:
  16              		.cfi_sections	.debug_frame
  17              		.section	.text.get_music_tempo,"ax",%progbits
  18              		.align	1
  19              		.p2align 4,,15
  20              		.global	get_music_tempo
  21              		.syntax unified
  22              		.thumb
  23              		.thumb_func
  24              		.fpu fpv4-sp-d16
  25              		.type	get_music_tempo, %function
  26              	get_music_tempo:
  27              	.LFB220:
  28              		.file 1 "signals_processing.c"
  29              		.loc 1 22 0
  30              		.cfi_startproc
  31              		@ args = 0, pretend = 0, frame = 8
  32              		@ frame_needed = 0, uses_anonymous_args = 0
  33 0000 00B5     		push	{lr}
  34              		.cfi_def_cfa_offset 4
  35              		.cfi_offset 14, -4
  36 0002 064B     		ldr	r3, .L6
  37 0004 83B0     		sub	sp, sp, #12
  38              		.cfi_def_cfa_offset 16
  39              		.loc 1 22 0
  40 0006 1A68     		ldr	r2, [r3]
  41 0008 0192     		str	r2, [sp, #4]
  42              		.loc 1 24 0
  43 000a 019A     		ldr	r2, [sp, #4]
  44 000c 1B68     		ldr	r3, [r3]
  45 000e 9A42     		cmp	r2, r3
  46 0010 02D1     		bne	.L5
  47 0012 03B0     		add	sp, sp, #12
  48              		.cfi_remember_state
  49              		.cfi_def_cfa_offset 4
  50              		@ sp needed
  51 0014 5DF804FB 		ldr	pc, [sp], #4
  52              	.L5:
  53              		.cfi_restore_state
  54 0018 FFF7FEFF 		bl	__stack_chk_fail
  55              	.LVL0:
  56              	.L7:
  57              		.align	2
ARM GAS  C:\Users\ARNAUD~1\AppData\Local\Temp\cctaZKDT.s 			page 2


  58              	.L6:
  59 001c 00000000 		.word	__stack_chk_guard
  60              		.cfi_endproc
  61              	.LFE220:
  62              		.size	get_music_tempo, .-get_music_tempo
  63              		.section	.text.get_music_pitch,"ax",%progbits
  64              		.align	1
  65              		.p2align 4,,15
  66              		.global	get_music_pitch
  67              		.syntax unified
  68              		.thumb
  69              		.thumb_func
  70              		.fpu fpv4-sp-d16
  71              		.type	get_music_pitch, %function
  72              	get_music_pitch:
  73              	.LFB223:
  74              		.cfi_startproc
  75              		@ args = 0, pretend = 0, frame = 8
  76              		@ frame_needed = 0, uses_anonymous_args = 0
  77 0000 00B5     		push	{lr}
  78              		.cfi_def_cfa_offset 4
  79              		.cfi_offset 14, -4
  80 0002 074B     		ldr	r3, .L12
  81 0004 83B0     		sub	sp, sp, #12
  82              		.cfi_def_cfa_offset 16
  83 0006 1A68     		ldr	r2, [r3]
  84 0008 0192     		str	r2, [sp, #4]
  85 000a 019A     		ldr	r2, [sp, #4]
  86 000c 1B68     		ldr	r3, [r3]
  87 000e 9A42     		cmp	r2, r3
  88 0010 03D1     		bne	.L11
  89 0012 0020     		movs	r0, #0
  90 0014 03B0     		add	sp, sp, #12
  91              		.cfi_remember_state
  92              		.cfi_def_cfa_offset 4
  93              		@ sp needed
  94 0016 5DF804FB 		ldr	pc, [sp], #4
  95              	.L11:
  96              		.cfi_restore_state
  97 001a FFF7FEFF 		bl	__stack_chk_fail
  98              	.L13:
  99 001e 00BF     		.align	2
 100              	.L12:
 101 0020 00000000 		.word	__stack_chk_guard
 102              		.cfi_endproc
 103              	.LFE223:
 104              		.size	get_music_pitch, .-get_music_pitch
 105              		.text
 106              	.Letext0:
 107              		.file 2 "c:\\users\\arnaud wist\\projet\\robotique_mondada\\eclipse_e-puck2\\tools\\gcc-arm-none-e
 108              		.file 3 "c:\\users\\arnaud wist\\projet\\robotique_mondada\\eclipse_e-puck2\\tools\\gcc-arm-none-e
 109              		.file 4 "../../lib/e-puck2_main-processor/ChibiOS//os/rt/ports/ARMCMx/compilers/GCC/chtypes.h"
 110              		.file 5 "../../lib/e-puck2_main-processor/ChibiOS//os/rt/include/chsystypes.h"
 111              		.file 6 "../../lib/e-puck2_main-processor/ChibiOS//os/rt/include/chschd.h"
 112              		.file 7 "../../lib/e-puck2_main-processor/ChibiOS//os/ext/CMSIS/include/core_cm4.h"
 113              		.file 8 "../../lib/e-puck2_main-processor/ChibiOS//os/ext/CMSIS/ST/system_stm32f4xx.h"
 114              		.file 9 "../../lib/e-puck2_main-processor/ChibiOS//os/rt/ports/ARMCMx/chcore.h"
ARM GAS  C:\Users\ARNAUD~1\AppData\Local\Temp\cctaZKDT.s 			page 3


 115              		.file 10 "../../lib/e-puck2_main-processor/ChibiOS//os/rt/ports/ARMCMx/chcore_v7m.h"
 116              		.file 11 "../../lib/e-puck2_main-processor/ChibiOS//os/rt/include/chdebug.h"
 117              		.file 12 "../../lib/e-puck2_main-processor/ChibiOS//os/rt/include/chtm.h"
 118              		.file 13 "../../lib/e-puck2_main-processor/ChibiOS//os/rt/include/chstats.h"
 119              		.file 14 "../../lib/e-puck2_main-processor/ChibiOS//os/rt/include/chsem.h"
 120              		.file 15 "../../lib/e-puck2_main-processor/ChibiOS//os/rt/include/chmtx.h"
 121              		.file 16 "../../lib/e-puck2_main-processor/ChibiOS//os/rt/include/chregistry.h"