
build/robot_dance.elf:     file format elf32-littlearm


Disassembly of section .text:

080001c0 <Reset_Handler>:
 80001c0:	b672      	cpsid	i
 80001c2:	482e      	ldr	r0, [pc, #184]	; (800027c <endfiniloop+0x4>)
 80001c4:	f380 8809 	msr	PSP, r0
 80001c8:	f240 0000 	movw	r0, #0
 80001cc:	f2cc 0000 	movt	r0, #49152	; 0xc000
 80001d0:	f64e 7134 	movw	r1, #61236	; 0xef34
 80001d4:	f2ce 0100 	movt	r1, #57344	; 0xe000
 80001d8:	6008      	str	r0, [r1, #0]
 80001da:	f240 0000 	movw	r0, #0
 80001de:	f2c0 00f0 	movt	r0, #240	; 0xf0
 80001e2:	f64e 5188 	movw	r1, #60808	; 0xed88
 80001e6:	f2ce 0100 	movt	r1, #57344	; 0xe000
 80001ea:	6008      	str	r0, [r1, #0]
 80001ec:	f04f 0000 	mov.w	r0, #0
 80001f0:	eee1 0a10 	vmsr	fpscr, r0
 80001f4:	f64e 713c 	movw	r1, #61244	; 0xef3c
 80001f8:	f2ce 0100 	movt	r1, #57344	; 0xe000
 80001fc:	6008      	str	r0, [r1, #0]
 80001fe:	2006      	movs	r0, #6
 8000200:	f380 8814 	msr	CONTROL, r0
 8000204:	f3bf 8f6f 	isb	sy
 8000208:	f004 feda 	bl	8004fc0 <__early_init>
 800020c:	f04f 3055 	mov.w	r0, #1431655765	; 0x55555555
 8000210:	491b      	ldr	r1, [pc, #108]	; (8000280 <endfiniloop+0x8>)
 8000212:	4a1c      	ldr	r2, [pc, #112]	; (8000284 <endfiniloop+0xc>)

08000214 <msloop>:
 8000214:	4291      	cmp	r1, r2
 8000216:	bf3c      	itt	cc
 8000218:	f841 0b04 	strcc.w	r0, [r1], #4
 800021c:	e7fa      	bcc.n	8000214 <msloop>
 800021e:	491a      	ldr	r1, [pc, #104]	; (8000288 <endfiniloop+0x10>)
 8000220:	4a16      	ldr	r2, [pc, #88]	; (800027c <endfiniloop+0x4>)

08000222 <psloop>:
 8000222:	4291      	cmp	r1, r2
 8000224:	bf3c      	itt	cc
 8000226:	f841 0b04 	strcc.w	r0, [r1], #4
 800022a:	e7fa      	bcc.n	8000222 <psloop>
 800022c:	4917      	ldr	r1, [pc, #92]	; (800028c <endfiniloop+0x14>)
 800022e:	4a18      	ldr	r2, [pc, #96]	; (8000290 <endfiniloop+0x18>)
 8000230:	4b18      	ldr	r3, [pc, #96]	; (8000294 <endfiniloop+0x1c>)

08000232 <dloop>:
 8000232:	429a      	cmp	r2, r3
 8000234:	bf3e      	ittt	cc
 8000236:	f851 0b04 	ldrcc.w	r0, [r1], #4
 800023a:	f842 0b04 	strcc.w	r0, [r2], #4
 800023e:	e7f8      	bcc.n	8000232 <dloop>
 8000240:	2000      	movs	r0, #0
 8000242:	4915      	ldr	r1, [pc, #84]	; (8000298 <endfiniloop+0x20>)
 8000244:	4a15      	ldr	r2, [pc, #84]	; (800029c <endfiniloop+0x24>)

08000246 <bloop>:
 8000246:	4291      	cmp	r1, r2
 8000248:	bf3c      	itt	cc
 800024a:	f841 0b04 	strcc.w	r0, [r1], #4
 800024e:	e7fa      	bcc.n	8000246 <bloop>
 8000250:	f001 f9a6 	bl	80015a0 <__late_init>
 8000254:	4c12      	ldr	r4, [pc, #72]	; (80002a0 <endfiniloop+0x28>)
 8000256:	4d13      	ldr	r5, [pc, #76]	; (80002a4 <endfiniloop+0x2c>)

08000258 <initloop>:
 8000258:	42ac      	cmp	r4, r5
 800025a:	da03      	bge.n	8000264 <endinitloop>
 800025c:	f854 1b04 	ldr.w	r1, [r4], #4
 8000260:	4788      	blx	r1
 8000262:	e7f9      	b.n	8000258 <initloop>

08000264 <endinitloop>:
 8000264:	f000 ffd4 	bl	8001210 <main>
 8000268:	4c0f      	ldr	r4, [pc, #60]	; (80002a8 <endfiniloop+0x30>)
 800026a:	4d10      	ldr	r5, [pc, #64]	; (80002ac <endfiniloop+0x34>)

0800026c <finiloop>:
 800026c:	42ac      	cmp	r4, r5
 800026e:	da03      	bge.n	8000278 <endfiniloop>
 8000270:	f854 1b04 	ldr.w	r1, [r4], #4
 8000274:	4788      	blx	r1
 8000276:	e7f9      	b.n	800026c <finiloop>

08000278 <endfiniloop>:
 8000278:	f001 b9a2 	b.w	80015c0 <__default_exit>
 800027c:	20000800 	.word	0x20000800
 8000280:	20000000 	.word	0x20000000
 8000284:	20000400 	.word	0x20000400
 8000288:	20000400 	.word	0x20000400
 800028c:	08008f18 	.word	0x08008f18
 8000290:	20000800 	.word	0x20000800
 8000294:	200011c4 	.word	0x200011c4
 8000298:	200011c8 	.word	0x200011c8
 800029c:	20002070 	.word	0x20002070
 80002a0:	080001c0 	.word	0x080001c0
 80002a4:	080001c0 	.word	0x080001c0
 80002a8:	080001c0 	.word	0x080001c0
 80002ac:	080001c0 	.word	0x080001c0

080002b0 <_port_switch>:
 80002b0:	e92d 4ff0 	stmdb	sp!, {r4, r5, r6, r7, r8, r9, sl, fp, lr}
 80002b4:	ed2d 8a10 	vpush	{s16-s31}
 80002b8:	f8c1 d00c 	str.w	sp, [r1, #12]
 80002bc:	f8d0 d00c 	ldr.w	sp, [r0, #12]
 80002c0:	ecbd 8a10 	vpop	{s16-s31}
 80002c4:	e8bd 8ff0 	ldmia.w	sp!, {r4, r5, r6, r7, r8, r9, sl, fp, pc}

080002c8 <_port_thread_start>:
 80002c8:	f001 fa2a 	bl	8001720 <_dbg_check_unlock>
 80002cc:	f002 f900 	bl	80024d0 <_stats_stop_measure_crit_thd>
 80002d0:	2300      	movs	r3, #0
 80002d2:	f383 8811 	msr	BASEPRI, r3
 80002d6:	4628      	mov	r0, r5
 80002d8:	47a0      	blx	r4
 80002da:	2000      	movs	r0, #0
 80002dc:	f001 ff60 	bl	80021a0 <chThdExit>

080002e0 <_port_switch_from_isr>:
 80002e0:	f002 f8de 	bl	80024a0 <_stats_start_measure_crit_thd>
 80002e4:	f001 f9fc 	bl	80016e0 <_dbg_check_lock>
 80002e8:	f001 fd9a 	bl	8001e20 <chSchDoReschedule>
 80002ec:	f001 fa18 	bl	8001720 <_dbg_check_unlock>
 80002f0:	f002 f8ee 	bl	80024d0 <_stats_stop_measure_crit_thd>

080002f4 <_port_exit_from_isr>:
 80002f4:	df00      	svc	0
 80002f6:	e7fe      	b.n	80002f6 <_port_exit_from_isr+0x2>
	...

08000300 <__aeabi_drsub>:
 8000300:	f081 4100 	eor.w	r1, r1, #2147483648	; 0x80000000
 8000304:	e002      	b.n	800030c <__adddf3>
 8000306:	bf00      	nop

08000308 <__aeabi_dsub>:
 8000308:	f083 4300 	eor.w	r3, r3, #2147483648	; 0x80000000

0800030c <__adddf3>:
 800030c:	b530      	push	{r4, r5, lr}
 800030e:	ea4f 0441 	mov.w	r4, r1, lsl #1
 8000312:	ea4f 0543 	mov.w	r5, r3, lsl #1
 8000316:	ea94 0f05 	teq	r4, r5
 800031a:	bf08      	it	eq
 800031c:	ea90 0f02 	teqeq	r0, r2
 8000320:	bf1f      	itttt	ne
 8000322:	ea54 0c00 	orrsne.w	ip, r4, r0
 8000326:	ea55 0c02 	orrsne.w	ip, r5, r2
 800032a:	ea7f 5c64 	mvnsne.w	ip, r4, asr #21
 800032e:	ea7f 5c65 	mvnsne.w	ip, r5, asr #21
 8000332:	f000 80e2 	beq.w	80004fa <__adddf3+0x1ee>
 8000336:	ea4f 5454 	mov.w	r4, r4, lsr #21
 800033a:	ebd4 5555 	rsbs	r5, r4, r5, lsr #21
 800033e:	bfb8      	it	lt
 8000340:	426d      	neglt	r5, r5
 8000342:	dd0c      	ble.n	800035e <__adddf3+0x52>
 8000344:	442c      	add	r4, r5
 8000346:	ea80 0202 	eor.w	r2, r0, r2
 800034a:	ea81 0303 	eor.w	r3, r1, r3
 800034e:	ea82 0000 	eor.w	r0, r2, r0
 8000352:	ea83 0101 	eor.w	r1, r3, r1
 8000356:	ea80 0202 	eor.w	r2, r0, r2
 800035a:	ea81 0303 	eor.w	r3, r1, r3
 800035e:	2d36      	cmp	r5, #54	; 0x36
 8000360:	bf88      	it	hi
 8000362:	bd30      	pophi	{r4, r5, pc}
 8000364:	f011 4f00 	tst.w	r1, #2147483648	; 0x80000000
 8000368:	ea4f 3101 	mov.w	r1, r1, lsl #12
 800036c:	f44f 1c80 	mov.w	ip, #1048576	; 0x100000
 8000370:	ea4c 3111 	orr.w	r1, ip, r1, lsr #12
 8000374:	d002      	beq.n	800037c <__adddf3+0x70>
 8000376:	4240      	negs	r0, r0
 8000378:	eb61 0141 	sbc.w	r1, r1, r1, lsl #1
 800037c:	f013 4f00 	tst.w	r3, #2147483648	; 0x80000000
 8000380:	ea4f 3303 	mov.w	r3, r3, lsl #12
 8000384:	ea4c 3313 	orr.w	r3, ip, r3, lsr #12
 8000388:	d002      	beq.n	8000390 <__adddf3+0x84>
 800038a:	4252      	negs	r2, r2
 800038c:	eb63 0343 	sbc.w	r3, r3, r3, lsl #1
 8000390:	ea94 0f05 	teq	r4, r5
 8000394:	f000 80a7 	beq.w	80004e6 <__adddf3+0x1da>
 8000398:	f1a4 0401 	sub.w	r4, r4, #1
 800039c:	f1d5 0e20 	rsbs	lr, r5, #32
 80003a0:	db0d      	blt.n	80003be <__adddf3+0xb2>
 80003a2:	fa02 fc0e 	lsl.w	ip, r2, lr
 80003a6:	fa22 f205 	lsr.w	r2, r2, r5
 80003aa:	1880      	adds	r0, r0, r2
 80003ac:	f141 0100 	adc.w	r1, r1, #0
 80003b0:	fa03 f20e 	lsl.w	r2, r3, lr
 80003b4:	1880      	adds	r0, r0, r2
 80003b6:	fa43 f305 	asr.w	r3, r3, r5
 80003ba:	4159      	adcs	r1, r3
 80003bc:	e00e      	b.n	80003dc <__adddf3+0xd0>
 80003be:	f1a5 0520 	sub.w	r5, r5, #32
 80003c2:	f10e 0e20 	add.w	lr, lr, #32
 80003c6:	2a01      	cmp	r2, #1
 80003c8:	fa03 fc0e 	lsl.w	ip, r3, lr
 80003cc:	bf28      	it	cs
 80003ce:	f04c 0c02 	orrcs.w	ip, ip, #2
 80003d2:	fa43 f305 	asr.w	r3, r3, r5
 80003d6:	18c0      	adds	r0, r0, r3
 80003d8:	eb51 71e3 	adcs.w	r1, r1, r3, asr #31
 80003dc:	f001 4500 	and.w	r5, r1, #2147483648	; 0x80000000
 80003e0:	d507      	bpl.n	80003f2 <__adddf3+0xe6>
 80003e2:	f04f 0e00 	mov.w	lr, #0
 80003e6:	f1dc 0c00 	rsbs	ip, ip, #0
 80003ea:	eb7e 0000 	sbcs.w	r0, lr, r0
 80003ee:	eb6e 0101 	sbc.w	r1, lr, r1
 80003f2:	f5b1 1f80 	cmp.w	r1, #1048576	; 0x100000
 80003f6:	d31b      	bcc.n	8000430 <__adddf3+0x124>
 80003f8:	f5b1 1f00 	cmp.w	r1, #2097152	; 0x200000
 80003fc:	d30c      	bcc.n	8000418 <__adddf3+0x10c>
 80003fe:	0849      	lsrs	r1, r1, #1
 8000400:	ea5f 0030 	movs.w	r0, r0, rrx
 8000404:	ea4f 0c3c 	mov.w	ip, ip, rrx
 8000408:	f104 0401 	add.w	r4, r4, #1
 800040c:	ea4f 5244 	mov.w	r2, r4, lsl #21
 8000410:	f512 0f80 	cmn.w	r2, #4194304	; 0x400000
 8000414:	f080 809a 	bcs.w	800054c <__adddf3+0x240>
 8000418:	f1bc 4f00 	cmp.w	ip, #2147483648	; 0x80000000
 800041c:	bf08      	it	eq
 800041e:	ea5f 0c50 	movseq.w	ip, r0, lsr #1
 8000422:	f150 0000 	adcs.w	r0, r0, #0
 8000426:	eb41 5104 	adc.w	r1, r1, r4, lsl #20
 800042a:	ea41 0105 	orr.w	r1, r1, r5
 800042e:	bd30      	pop	{r4, r5, pc}
 8000430:	ea5f 0c4c 	movs.w	ip, ip, lsl #1
 8000434:	4140      	adcs	r0, r0
 8000436:	eb41 0101 	adc.w	r1, r1, r1
 800043a:	f411 1f80 	tst.w	r1, #1048576	; 0x100000
 800043e:	f1a4 0401 	sub.w	r4, r4, #1
 8000442:	d1e9      	bne.n	8000418 <__adddf3+0x10c>
 8000444:	f091 0f00 	teq	r1, #0
 8000448:	bf04      	itt	eq
 800044a:	4601      	moveq	r1, r0
 800044c:	2000      	moveq	r0, #0
 800044e:	fab1 f381 	clz	r3, r1
 8000452:	bf08      	it	eq
 8000454:	3320      	addeq	r3, #32
 8000456:	f1a3 030b 	sub.w	r3, r3, #11
 800045a:	f1b3 0220 	subs.w	r2, r3, #32
 800045e:	da0c      	bge.n	800047a <__adddf3+0x16e>
 8000460:	320c      	adds	r2, #12
 8000462:	dd08      	ble.n	8000476 <__adddf3+0x16a>
 8000464:	f102 0c14 	add.w	ip, r2, #20
 8000468:	f1c2 020c 	rsb	r2, r2, #12
 800046c:	fa01 f00c 	lsl.w	r0, r1, ip
 8000470:	fa21 f102 	lsr.w	r1, r1, r2
 8000474:	e00c      	b.n	8000490 <__adddf3+0x184>
 8000476:	f102 0214 	add.w	r2, r2, #20
 800047a:	bfd8      	it	le
 800047c:	f1c2 0c20 	rsble	ip, r2, #32
 8000480:	fa01 f102 	lsl.w	r1, r1, r2
 8000484:	fa20 fc0c 	lsr.w	ip, r0, ip
 8000488:	bfdc      	itt	le
 800048a:	ea41 010c 	orrle.w	r1, r1, ip
 800048e:	4090      	lslle	r0, r2
 8000490:	1ae4      	subs	r4, r4, r3
 8000492:	bfa2      	ittt	ge
 8000494:	eb01 5104 	addge.w	r1, r1, r4, lsl #20
 8000498:	4329      	orrge	r1, r5
 800049a:	bd30      	popge	{r4, r5, pc}
 800049c:	ea6f 0404 	mvn.w	r4, r4
 80004a0:	3c1f      	subs	r4, #31
 80004a2:	da1c      	bge.n	80004de <__adddf3+0x1d2>
 80004a4:	340c      	adds	r4, #12
 80004a6:	dc0e      	bgt.n	80004c6 <__adddf3+0x1ba>
 80004a8:	f104 0414 	add.w	r4, r4, #20
 80004ac:	f1c4 0220 	rsb	r2, r4, #32
 80004b0:	fa20 f004 	lsr.w	r0, r0, r4
 80004b4:	fa01 f302 	lsl.w	r3, r1, r2
 80004b8:	ea40 0003 	orr.w	r0, r0, r3
 80004bc:	fa21 f304 	lsr.w	r3, r1, r4
 80004c0:	ea45 0103 	orr.w	r1, r5, r3
 80004c4:	bd30      	pop	{r4, r5, pc}
 80004c6:	f1c4 040c 	rsb	r4, r4, #12
 80004ca:	f1c4 0220 	rsb	r2, r4, #32
 80004ce:	fa20 f002 	lsr.w	r0, r0, r2
 80004d2:	fa01 f304 	lsl.w	r3, r1, r4
 80004d6:	ea40 0003 	orr.w	r0, r0, r3
 80004da:	4629      	mov	r1, r5
 80004dc:	bd30      	pop	{r4, r5, pc}
 80004de:	fa21 f004 	lsr.w	r0, r1, r4
 80004e2:	4629      	mov	r1, r5
 80004e4:	bd30      	pop	{r4, r5, pc}
 80004e6:	f094 0f00 	teq	r4, #0
 80004ea:	f483 1380 	eor.w	r3, r3, #1048576	; 0x100000
 80004ee:	bf06      	itte	eq
 80004f0:	f481 1180 	eoreq.w	r1, r1, #1048576	; 0x100000
 80004f4:	3401      	addeq	r4, #1
 80004f6:	3d01      	subne	r5, #1
 80004f8:	e74e      	b.n	8000398 <__adddf3+0x8c>
 80004fa:	ea7f 5c64 	mvns.w	ip, r4, asr #21
 80004fe:	bf18      	it	ne
 8000500:	ea7f 5c65 	mvnsne.w	ip, r5, asr #21
 8000504:	d029      	beq.n	800055a <__adddf3+0x24e>
 8000506:	ea94 0f05 	teq	r4, r5
 800050a:	bf08      	it	eq
 800050c:	ea90 0f02 	teqeq	r0, r2
 8000510:	d005      	beq.n	800051e <__adddf3+0x212>
 8000512:	ea54 0c00 	orrs.w	ip, r4, r0
 8000516:	bf04      	itt	eq
 8000518:	4619      	moveq	r1, r3
 800051a:	4610      	moveq	r0, r2
 800051c:	bd30      	pop	{r4, r5, pc}
 800051e:	ea91 0f03 	teq	r1, r3
 8000522:	bf1e      	ittt	ne
 8000524:	2100      	movne	r1, #0
 8000526:	2000      	movne	r0, #0
 8000528:	bd30      	popne	{r4, r5, pc}
 800052a:	ea5f 5c54 	movs.w	ip, r4, lsr #21
 800052e:	d105      	bne.n	800053c <__adddf3+0x230>
 8000530:	0040      	lsls	r0, r0, #1
 8000532:	4149      	adcs	r1, r1
 8000534:	bf28      	it	cs
 8000536:	f041 4100 	orrcs.w	r1, r1, #2147483648	; 0x80000000
 800053a:	bd30      	pop	{r4, r5, pc}
 800053c:	f514 0480 	adds.w	r4, r4, #4194304	; 0x400000
 8000540:	bf3c      	itt	cc
 8000542:	f501 1180 	addcc.w	r1, r1, #1048576	; 0x100000
 8000546:	bd30      	popcc	{r4, r5, pc}
 8000548:	f001 4500 	and.w	r5, r1, #2147483648	; 0x80000000
 800054c:	f045 41fe 	orr.w	r1, r5, #2130706432	; 0x7f000000
 8000550:	f441 0170 	orr.w	r1, r1, #15728640	; 0xf00000
 8000554:	f04f 0000 	mov.w	r0, #0
 8000558:	bd30      	pop	{r4, r5, pc}
 800055a:	ea7f 5c64 	mvns.w	ip, r4, asr #21
 800055e:	bf1a      	itte	ne
 8000560:	4619      	movne	r1, r3
 8000562:	4610      	movne	r0, r2
 8000564:	ea7f 5c65 	mvnseq.w	ip, r5, asr #21
 8000568:	bf1c      	itt	ne
 800056a:	460b      	movne	r3, r1
 800056c:	4602      	movne	r2, r0
 800056e:	ea50 3401 	orrs.w	r4, r0, r1, lsl #12
 8000572:	bf06      	itte	eq
 8000574:	ea52 3503 	orrseq.w	r5, r2, r3, lsl #12
 8000578:	ea91 0f03 	teqeq	r1, r3
 800057c:	f441 2100 	orrne.w	r1, r1, #524288	; 0x80000
 8000580:	bd30      	pop	{r4, r5, pc}
 8000582:	bf00      	nop

08000584 <__aeabi_ui2d>:
 8000584:	f090 0f00 	teq	r0, #0
 8000588:	bf04      	itt	eq
 800058a:	2100      	moveq	r1, #0
 800058c:	4770      	bxeq	lr
 800058e:	b530      	push	{r4, r5, lr}
 8000590:	f44f 6480 	mov.w	r4, #1024	; 0x400
 8000594:	f104 0432 	add.w	r4, r4, #50	; 0x32
 8000598:	f04f 0500 	mov.w	r5, #0
 800059c:	f04f 0100 	mov.w	r1, #0
 80005a0:	e750      	b.n	8000444 <__adddf3+0x138>
 80005a2:	bf00      	nop

080005a4 <__aeabi_i2d>:
 80005a4:	f090 0f00 	teq	r0, #0
 80005a8:	bf04      	itt	eq
 80005aa:	2100      	moveq	r1, #0
 80005ac:	4770      	bxeq	lr
 80005ae:	b530      	push	{r4, r5, lr}
 80005b0:	f44f 6480 	mov.w	r4, #1024	; 0x400
 80005b4:	f104 0432 	add.w	r4, r4, #50	; 0x32
 80005b8:	f010 4500 	ands.w	r5, r0, #2147483648	; 0x80000000
 80005bc:	bf48      	it	mi
 80005be:	4240      	negmi	r0, r0
 80005c0:	f04f 0100 	mov.w	r1, #0
 80005c4:	e73e      	b.n	8000444 <__adddf3+0x138>
 80005c6:	bf00      	nop

080005c8 <__aeabi_f2d>:
 80005c8:	0042      	lsls	r2, r0, #1
 80005ca:	ea4f 01e2 	mov.w	r1, r2, asr #3
 80005ce:	ea4f 0131 	mov.w	r1, r1, rrx
 80005d2:	ea4f 7002 	mov.w	r0, r2, lsl #28
 80005d6:	bf1f      	itttt	ne
 80005d8:	f012 437f 	andsne.w	r3, r2, #4278190080	; 0xff000000
 80005dc:	f093 4f7f 	teqne	r3, #4278190080	; 0xff000000
 80005e0:	f081 5160 	eorne.w	r1, r1, #939524096	; 0x38000000
 80005e4:	4770      	bxne	lr
 80005e6:	f032 427f 	bics.w	r2, r2, #4278190080	; 0xff000000
 80005ea:	bf08      	it	eq
 80005ec:	4770      	bxeq	lr
 80005ee:	f093 4f7f 	teq	r3, #4278190080	; 0xff000000
 80005f2:	bf04      	itt	eq
 80005f4:	f441 2100 	orreq.w	r1, r1, #524288	; 0x80000
 80005f8:	4770      	bxeq	lr
 80005fa:	b530      	push	{r4, r5, lr}
 80005fc:	f44f 7460 	mov.w	r4, #896	; 0x380
 8000600:	f001 4500 	and.w	r5, r1, #2147483648	; 0x80000000
 8000604:	f021 4100 	bic.w	r1, r1, #2147483648	; 0x80000000
 8000608:	e71c      	b.n	8000444 <__adddf3+0x138>
 800060a:	bf00      	nop

0800060c <__aeabi_ul2d>:
 800060c:	ea50 0201 	orrs.w	r2, r0, r1
 8000610:	bf08      	it	eq
 8000612:	4770      	bxeq	lr
 8000614:	b530      	push	{r4, r5, lr}
 8000616:	f04f 0500 	mov.w	r5, #0
 800061a:	e00a      	b.n	8000632 <__aeabi_l2d+0x16>

0800061c <__aeabi_l2d>:
 800061c:	ea50 0201 	orrs.w	r2, r0, r1
 8000620:	bf08      	it	eq
 8000622:	4770      	bxeq	lr
 8000624:	b530      	push	{r4, r5, lr}
 8000626:	f011 4500 	ands.w	r5, r1, #2147483648	; 0x80000000
 800062a:	d502      	bpl.n	8000632 <__aeabi_l2d+0x16>
 800062c:	4240      	negs	r0, r0
 800062e:	eb61 0141 	sbc.w	r1, r1, r1, lsl #1
 8000632:	f44f 6480 	mov.w	r4, #1024	; 0x400
 8000636:	f104 0432 	add.w	r4, r4, #50	; 0x32
 800063a:	ea5f 5c91 	movs.w	ip, r1, lsr #22
 800063e:	f43f aed8 	beq.w	80003f2 <__adddf3+0xe6>
 8000642:	f04f 0203 	mov.w	r2, #3
 8000646:	ea5f 0cdc 	movs.w	ip, ip, lsr #3
 800064a:	bf18      	it	ne
 800064c:	3203      	addne	r2, #3
 800064e:	ea5f 0cdc 	movs.w	ip, ip, lsr #3
 8000652:	bf18      	it	ne
 8000654:	3203      	addne	r2, #3
 8000656:	eb02 02dc 	add.w	r2, r2, ip, lsr #3
 800065a:	f1c2 0320 	rsb	r3, r2, #32
 800065e:	fa00 fc03 	lsl.w	ip, r0, r3
 8000662:	fa20 f002 	lsr.w	r0, r0, r2
 8000666:	fa01 fe03 	lsl.w	lr, r1, r3
 800066a:	ea40 000e 	orr.w	r0, r0, lr
 800066e:	fa21 f102 	lsr.w	r1, r1, r2
 8000672:	4414      	add	r4, r2
 8000674:	e6bd      	b.n	80003f2 <__adddf3+0xe6>
 8000676:	bf00      	nop
	...

08000680 <__aeabi_dmul>:
 8000680:	b570      	push	{r4, r5, r6, lr}
 8000682:	f04f 0cff 	mov.w	ip, #255	; 0xff
 8000686:	f44c 6ce0 	orr.w	ip, ip, #1792	; 0x700
 800068a:	ea1c 5411 	ands.w	r4, ip, r1, lsr #20
 800068e:	bf1d      	ittte	ne
 8000690:	ea1c 5513 	andsne.w	r5, ip, r3, lsr #20
 8000694:	ea94 0f0c 	teqne	r4, ip
 8000698:	ea95 0f0c 	teqne	r5, ip
 800069c:	f000 f8de 	bleq	800085c <__aeabi_dmul+0x1dc>
 80006a0:	442c      	add	r4, r5
 80006a2:	ea81 0603 	eor.w	r6, r1, r3
 80006a6:	ea21 514c 	bic.w	r1, r1, ip, lsl #21
 80006aa:	ea23 534c 	bic.w	r3, r3, ip, lsl #21
 80006ae:	ea50 3501 	orrs.w	r5, r0, r1, lsl #12
 80006b2:	bf18      	it	ne
 80006b4:	ea52 3503 	orrsne.w	r5, r2, r3, lsl #12
 80006b8:	f441 1180 	orr.w	r1, r1, #1048576	; 0x100000
 80006bc:	f443 1380 	orr.w	r3, r3, #1048576	; 0x100000
 80006c0:	d038      	beq.n	8000734 <__aeabi_dmul+0xb4>
 80006c2:	fba0 ce02 	umull	ip, lr, r0, r2
 80006c6:	f04f 0500 	mov.w	r5, #0
 80006ca:	fbe1 e502 	umlal	lr, r5, r1, r2
 80006ce:	f006 4200 	and.w	r2, r6, #2147483648	; 0x80000000
 80006d2:	fbe0 e503 	umlal	lr, r5, r0, r3
 80006d6:	f04f 0600 	mov.w	r6, #0
 80006da:	fbe1 5603 	umlal	r5, r6, r1, r3
 80006de:	f09c 0f00 	teq	ip, #0
 80006e2:	bf18      	it	ne
 80006e4:	f04e 0e01 	orrne.w	lr, lr, #1
 80006e8:	f1a4 04ff 	sub.w	r4, r4, #255	; 0xff
 80006ec:	f5b6 7f00 	cmp.w	r6, #512	; 0x200
 80006f0:	f564 7440 	sbc.w	r4, r4, #768	; 0x300
 80006f4:	d204      	bcs.n	8000700 <__aeabi_dmul+0x80>
 80006f6:	ea5f 0e4e 	movs.w	lr, lr, lsl #1
 80006fa:	416d      	adcs	r5, r5
 80006fc:	eb46 0606 	adc.w	r6, r6, r6
 8000700:	ea42 21c6 	orr.w	r1, r2, r6, lsl #11
 8000704:	ea41 5155 	orr.w	r1, r1, r5, lsr #21
 8000708:	ea4f 20c5 	mov.w	r0, r5, lsl #11
 800070c:	ea40 505e 	orr.w	r0, r0, lr, lsr #21
 8000710:	ea4f 2ece 	mov.w	lr, lr, lsl #11
 8000714:	f1b4 0cfd 	subs.w	ip, r4, #253	; 0xfd
 8000718:	bf88      	it	hi
 800071a:	f5bc 6fe0 	cmphi.w	ip, #1792	; 0x700
 800071e:	d81e      	bhi.n	800075e <__aeabi_dmul+0xde>
 8000720:	f1be 4f00 	cmp.w	lr, #2147483648	; 0x80000000
 8000724:	bf08      	it	eq
 8000726:	ea5f 0e50 	movseq.w	lr, r0, lsr #1
 800072a:	f150 0000 	adcs.w	r0, r0, #0
 800072e:	eb41 5104 	adc.w	r1, r1, r4, lsl #20
 8000732:	bd70      	pop	{r4, r5, r6, pc}
 8000734:	f006 4600 	and.w	r6, r6, #2147483648	; 0x80000000
 8000738:	ea46 0101 	orr.w	r1, r6, r1
 800073c:	ea40 0002 	orr.w	r0, r0, r2
 8000740:	ea81 0103 	eor.w	r1, r1, r3
 8000744:	ebb4 045c 	subs.w	r4, r4, ip, lsr #1
 8000748:	bfc2      	ittt	gt
 800074a:	ebd4 050c 	rsbsgt	r5, r4, ip
 800074e:	ea41 5104 	orrgt.w	r1, r1, r4, lsl #20
 8000752:	bd70      	popgt	{r4, r5, r6, pc}
 8000754:	f441 1180 	orr.w	r1, r1, #1048576	; 0x100000
 8000758:	f04f 0e00 	mov.w	lr, #0
 800075c:	3c01      	subs	r4, #1
 800075e:	f300 80ab 	bgt.w	80008b8 <__aeabi_dmul+0x238>
 8000762:	f114 0f36 	cmn.w	r4, #54	; 0x36
 8000766:	bfde      	ittt	le
 8000768:	2000      	movle	r0, #0
 800076a:	f001 4100 	andle.w	r1, r1, #2147483648	; 0x80000000
 800076e:	bd70      	pople	{r4, r5, r6, pc}
 8000770:	f1c4 0400 	rsb	r4, r4, #0
 8000774:	3c20      	subs	r4, #32
 8000776:	da35      	bge.n	80007e4 <__aeabi_dmul+0x164>
 8000778:	340c      	adds	r4, #12
 800077a:	dc1b      	bgt.n	80007b4 <__aeabi_dmul+0x134>
 800077c:	f104 0414 	add.w	r4, r4, #20
 8000780:	f1c4 0520 	rsb	r5, r4, #32
 8000784:	fa00 f305 	lsl.w	r3, r0, r5
 8000788:	fa20 f004 	lsr.w	r0, r0, r4
 800078c:	fa01 f205 	lsl.w	r2, r1, r5
 8000790:	ea40 0002 	orr.w	r0, r0, r2
 8000794:	f001 4200 	and.w	r2, r1, #2147483648	; 0x80000000
 8000798:	f021 4100 	bic.w	r1, r1, #2147483648	; 0x80000000
 800079c:	eb10 70d3 	adds.w	r0, r0, r3, lsr #31
 80007a0:	fa21 f604 	lsr.w	r6, r1, r4
 80007a4:	eb42 0106 	adc.w	r1, r2, r6
 80007a8:	ea5e 0e43 	orrs.w	lr, lr, r3, lsl #1
 80007ac:	bf08      	it	eq
 80007ae:	ea20 70d3 	biceq.w	r0, r0, r3, lsr #31
 80007b2:	bd70      	pop	{r4, r5, r6, pc}
 80007b4:	f1c4 040c 	rsb	r4, r4, #12
 80007b8:	f1c4 0520 	rsb	r5, r4, #32
 80007bc:	fa00 f304 	lsl.w	r3, r0, r4
 80007c0:	fa20 f005 	lsr.w	r0, r0, r5
 80007c4:	fa01 f204 	lsl.w	r2, r1, r4
 80007c8:	ea40 0002 	orr.w	r0, r0, r2
 80007cc:	f001 4100 	and.w	r1, r1, #2147483648	; 0x80000000
 80007d0:	eb10 70d3 	adds.w	r0, r0, r3, lsr #31
 80007d4:	f141 0100 	adc.w	r1, r1, #0
 80007d8:	ea5e 0e43 	orrs.w	lr, lr, r3, lsl #1
 80007dc:	bf08      	it	eq
 80007de:	ea20 70d3 	biceq.w	r0, r0, r3, lsr #31
 80007e2:	bd70      	pop	{r4, r5, r6, pc}
 80007e4:	f1c4 0520 	rsb	r5, r4, #32
 80007e8:	fa00 f205 	lsl.w	r2, r0, r5
 80007ec:	ea4e 0e02 	orr.w	lr, lr, r2
 80007f0:	fa20 f304 	lsr.w	r3, r0, r4
 80007f4:	fa01 f205 	lsl.w	r2, r1, r5
 80007f8:	ea43 0302 	orr.w	r3, r3, r2
 80007fc:	fa21 f004 	lsr.w	r0, r1, r4
 8000800:	f001 4100 	and.w	r1, r1, #2147483648	; 0x80000000
 8000804:	fa21 f204 	lsr.w	r2, r1, r4
 8000808:	ea20 0002 	bic.w	r0, r0, r2
 800080c:	eb00 70d3 	add.w	r0, r0, r3, lsr #31
 8000810:	ea5e 0e43 	orrs.w	lr, lr, r3, lsl #1
 8000814:	bf08      	it	eq
 8000816:	ea20 70d3 	biceq.w	r0, r0, r3, lsr #31
 800081a:	bd70      	pop	{r4, r5, r6, pc}
 800081c:	f094 0f00 	teq	r4, #0
 8000820:	d10f      	bne.n	8000842 <__aeabi_dmul+0x1c2>
 8000822:	f001 4600 	and.w	r6, r1, #2147483648	; 0x80000000
 8000826:	0040      	lsls	r0, r0, #1
 8000828:	eb41 0101 	adc.w	r1, r1, r1
 800082c:	f411 1f80 	tst.w	r1, #1048576	; 0x100000
 8000830:	bf08      	it	eq
 8000832:	3c01      	subeq	r4, #1
 8000834:	d0f7      	beq.n	8000826 <__aeabi_dmul+0x1a6>
 8000836:	ea41 0106 	orr.w	r1, r1, r6
 800083a:	f095 0f00 	teq	r5, #0
 800083e:	bf18      	it	ne
 8000840:	4770      	bxne	lr
 8000842:	f003 4600 	and.w	r6, r3, #2147483648	; 0x80000000
 8000846:	0052      	lsls	r2, r2, #1
 8000848:	eb43 0303 	adc.w	r3, r3, r3
 800084c:	f413 1f80 	tst.w	r3, #1048576	; 0x100000
 8000850:	bf08      	it	eq
 8000852:	3d01      	subeq	r5, #1
 8000854:	d0f7      	beq.n	8000846 <__aeabi_dmul+0x1c6>
 8000856:	ea43 0306 	orr.w	r3, r3, r6
 800085a:	4770      	bx	lr
 800085c:	ea94 0f0c 	teq	r4, ip
 8000860:	ea0c 5513 	and.w	r5, ip, r3, lsr #20
 8000864:	bf18      	it	ne
 8000866:	ea95 0f0c 	teqne	r5, ip
 800086a:	d00c      	beq.n	8000886 <__aeabi_dmul+0x206>
 800086c:	ea50 0641 	orrs.w	r6, r0, r1, lsl #1
 8000870:	bf18      	it	ne
 8000872:	ea52 0643 	orrsne.w	r6, r2, r3, lsl #1
 8000876:	d1d1      	bne.n	800081c <__aeabi_dmul+0x19c>
 8000878:	ea81 0103 	eor.w	r1, r1, r3
 800087c:	f001 4100 	and.w	r1, r1, #2147483648	; 0x80000000
 8000880:	f04f 0000 	mov.w	r0, #0
 8000884:	bd70      	pop	{r4, r5, r6, pc}
 8000886:	ea50 0641 	orrs.w	r6, r0, r1, lsl #1
 800088a:	bf06      	itte	eq
 800088c:	4610      	moveq	r0, r2
 800088e:	4619      	moveq	r1, r3
 8000890:	ea52 0643 	orrsne.w	r6, r2, r3, lsl #1
 8000894:	d019      	beq.n	80008ca <__aeabi_dmul+0x24a>
 8000896:	ea94 0f0c 	teq	r4, ip
 800089a:	d102      	bne.n	80008a2 <__aeabi_dmul+0x222>
 800089c:	ea50 3601 	orrs.w	r6, r0, r1, lsl #12
 80008a0:	d113      	bne.n	80008ca <__aeabi_dmul+0x24a>
 80008a2:	ea95 0f0c 	teq	r5, ip
 80008a6:	d105      	bne.n	80008b4 <__aeabi_dmul+0x234>
 80008a8:	ea52 3603 	orrs.w	r6, r2, r3, lsl #12
 80008ac:	bf1c      	itt	ne
 80008ae:	4610      	movne	r0, r2
 80008b0:	4619      	movne	r1, r3
 80008b2:	d10a      	bne.n	80008ca <__aeabi_dmul+0x24a>
 80008b4:	ea81 0103 	eor.w	r1, r1, r3
 80008b8:	f001 4100 	and.w	r1, r1, #2147483648	; 0x80000000
 80008bc:	f041 41fe 	orr.w	r1, r1, #2130706432	; 0x7f000000
 80008c0:	f441 0170 	orr.w	r1, r1, #15728640	; 0xf00000
 80008c4:	f04f 0000 	mov.w	r0, #0
 80008c8:	bd70      	pop	{r4, r5, r6, pc}
 80008ca:	f041 41fe 	orr.w	r1, r1, #2130706432	; 0x7f000000
 80008ce:	f441 0178 	orr.w	r1, r1, #16252928	; 0xf80000
 80008d2:	bd70      	pop	{r4, r5, r6, pc}

080008d4 <__aeabi_ddiv>:
 80008d4:	b570      	push	{r4, r5, r6, lr}
 80008d6:	f04f 0cff 	mov.w	ip, #255	; 0xff
 80008da:	f44c 6ce0 	orr.w	ip, ip, #1792	; 0x700
 80008de:	ea1c 5411 	ands.w	r4, ip, r1, lsr #20
 80008e2:	bf1d      	ittte	ne
 80008e4:	ea1c 5513 	andsne.w	r5, ip, r3, lsr #20
 80008e8:	ea94 0f0c 	teqne	r4, ip
 80008ec:	ea95 0f0c 	teqne	r5, ip
 80008f0:	f000 f8a7 	bleq	8000a42 <__aeabi_ddiv+0x16e>
 80008f4:	eba4 0405 	sub.w	r4, r4, r5
 80008f8:	ea81 0e03 	eor.w	lr, r1, r3
 80008fc:	ea52 3503 	orrs.w	r5, r2, r3, lsl #12
 8000900:	ea4f 3101 	mov.w	r1, r1, lsl #12
 8000904:	f000 8088 	beq.w	8000a18 <__aeabi_ddiv+0x144>
 8000908:	ea4f 3303 	mov.w	r3, r3, lsl #12
 800090c:	f04f 5580 	mov.w	r5, #268435456	; 0x10000000
 8000910:	ea45 1313 	orr.w	r3, r5, r3, lsr #4
 8000914:	ea43 6312 	orr.w	r3, r3, r2, lsr #24
 8000918:	ea4f 2202 	mov.w	r2, r2, lsl #8
 800091c:	ea45 1511 	orr.w	r5, r5, r1, lsr #4
 8000920:	ea45 6510 	orr.w	r5, r5, r0, lsr #24
 8000924:	ea4f 2600 	mov.w	r6, r0, lsl #8
 8000928:	f00e 4100 	and.w	r1, lr, #2147483648	; 0x80000000
 800092c:	429d      	cmp	r5, r3
 800092e:	bf08      	it	eq
 8000930:	4296      	cmpeq	r6, r2
 8000932:	f144 04fd 	adc.w	r4, r4, #253	; 0xfd
 8000936:	f504 7440 	add.w	r4, r4, #768	; 0x300
 800093a:	d202      	bcs.n	8000942 <__aeabi_ddiv+0x6e>
 800093c:	085b      	lsrs	r3, r3, #1
 800093e:	ea4f 0232 	mov.w	r2, r2, rrx
 8000942:	1ab6      	subs	r6, r6, r2
 8000944:	eb65 0503 	sbc.w	r5, r5, r3
 8000948:	085b      	lsrs	r3, r3, #1
 800094a:	ea4f 0232 	mov.w	r2, r2, rrx
 800094e:	f44f 1080 	mov.w	r0, #1048576	; 0x100000
 8000952:	f44f 2c00 	mov.w	ip, #524288	; 0x80000
 8000956:	ebb6 0e02 	subs.w	lr, r6, r2
 800095a:	eb75 0e03 	sbcs.w	lr, r5, r3
 800095e:	bf22      	ittt	cs
 8000960:	1ab6      	subcs	r6, r6, r2
 8000962:	4675      	movcs	r5, lr
 8000964:	ea40 000c 	orrcs.w	r0, r0, ip
 8000968:	085b      	lsrs	r3, r3, #1
 800096a:	ea4f 0232 	mov.w	r2, r2, rrx
 800096e:	ebb6 0e02 	subs.w	lr, r6, r2
 8000972:	eb75 0e03 	sbcs.w	lr, r5, r3
 8000976:	bf22      	ittt	cs
 8000978:	1ab6      	subcs	r6, r6, r2
 800097a:	4675      	movcs	r5, lr
 800097c:	ea40 005c 	orrcs.w	r0, r0, ip, lsr #1
 8000980:	085b      	lsrs	r3, r3, #1
 8000982:	ea4f 0232 	mov.w	r2, r2, rrx
 8000986:	ebb6 0e02 	subs.w	lr, r6, r2
 800098a:	eb75 0e03 	sbcs.w	lr, r5, r3
 800098e:	bf22      	ittt	cs
 8000990:	1ab6      	subcs	r6, r6, r2
 8000992:	4675      	movcs	r5, lr
 8000994:	ea40 009c 	orrcs.w	r0, r0, ip, lsr #2
 8000998:	085b      	lsrs	r3, r3, #1
 800099a:	ea4f 0232 	mov.w	r2, r2, rrx
 800099e:	ebb6 0e02 	subs.w	lr, r6, r2
 80009a2:	eb75 0e03 	sbcs.w	lr, r5, r3
 80009a6:	bf22      	ittt	cs
 80009a8:	1ab6      	subcs	r6, r6, r2
 80009aa:	4675      	movcs	r5, lr
 80009ac:	ea40 00dc 	orrcs.w	r0, r0, ip, lsr #3
 80009b0:	ea55 0e06 	orrs.w	lr, r5, r6
 80009b4:	d018      	beq.n	80009e8 <__aeabi_ddiv+0x114>
 80009b6:	ea4f 1505 	mov.w	r5, r5, lsl #4
 80009ba:	ea45 7516 	orr.w	r5, r5, r6, lsr #28
 80009be:	ea4f 1606 	mov.w	r6, r6, lsl #4
 80009c2:	ea4f 03c3 	mov.w	r3, r3, lsl #3
 80009c6:	ea43 7352 	orr.w	r3, r3, r2, lsr #29
 80009ca:	ea4f 02c2 	mov.w	r2, r2, lsl #3
 80009ce:	ea5f 1c1c 	movs.w	ip, ip, lsr #4
 80009d2:	d1c0      	bne.n	8000956 <__aeabi_ddiv+0x82>
 80009d4:	f411 1f80 	tst.w	r1, #1048576	; 0x100000
 80009d8:	d10b      	bne.n	80009f2 <__aeabi_ddiv+0x11e>
 80009da:	ea41 0100 	orr.w	r1, r1, r0
 80009de:	f04f 0000 	mov.w	r0, #0
 80009e2:	f04f 4c00 	mov.w	ip, #2147483648	; 0x80000000
 80009e6:	e7b6      	b.n	8000956 <__aeabi_ddiv+0x82>
 80009e8:	f411 1f80 	tst.w	r1, #1048576	; 0x100000
 80009ec:	bf04      	itt	eq
 80009ee:	4301      	orreq	r1, r0
 80009f0:	2000      	moveq	r0, #0
 80009f2:	f1b4 0cfd 	subs.w	ip, r4, #253	; 0xfd
 80009f6:	bf88      	it	hi
 80009f8:	f5bc 6fe0 	cmphi.w	ip, #1792	; 0x700
 80009fc:	f63f aeaf 	bhi.w	800075e <__aeabi_dmul+0xde>
 8000a00:	ebb5 0c03 	subs.w	ip, r5, r3
 8000a04:	bf04      	itt	eq
 8000a06:	ebb6 0c02 	subseq.w	ip, r6, r2
 8000a0a:	ea5f 0c50 	movseq.w	ip, r0, lsr #1
 8000a0e:	f150 0000 	adcs.w	r0, r0, #0
 8000a12:	eb41 5104 	adc.w	r1, r1, r4, lsl #20
 8000a16:	bd70      	pop	{r4, r5, r6, pc}
 8000a18:	f00e 4e00 	and.w	lr, lr, #2147483648	; 0x80000000
 8000a1c:	ea4e 3111 	orr.w	r1, lr, r1, lsr #12
 8000a20:	eb14 045c 	adds.w	r4, r4, ip, lsr #1
 8000a24:	bfc2      	ittt	gt
 8000a26:	ebd4 050c 	rsbsgt	r5, r4, ip
 8000a2a:	ea41 5104 	orrgt.w	r1, r1, r4, lsl #20
 8000a2e:	bd70      	popgt	{r4, r5, r6, pc}
 8000a30:	f441 1180 	orr.w	r1, r1, #1048576	; 0x100000
 8000a34:	f04f 0e00 	mov.w	lr, #0
 8000a38:	3c01      	subs	r4, #1
 8000a3a:	e690      	b.n	800075e <__aeabi_dmul+0xde>
 8000a3c:	ea45 0e06 	orr.w	lr, r5, r6
 8000a40:	e68d      	b.n	800075e <__aeabi_dmul+0xde>
 8000a42:	ea0c 5513 	and.w	r5, ip, r3, lsr #20
 8000a46:	ea94 0f0c 	teq	r4, ip
 8000a4a:	bf08      	it	eq
 8000a4c:	ea95 0f0c 	teqeq	r5, ip
 8000a50:	f43f af3b 	beq.w	80008ca <__aeabi_dmul+0x24a>
 8000a54:	ea94 0f0c 	teq	r4, ip
 8000a58:	d10a      	bne.n	8000a70 <__aeabi_ddiv+0x19c>
 8000a5a:	ea50 3401 	orrs.w	r4, r0, r1, lsl #12
 8000a5e:	f47f af34 	bne.w	80008ca <__aeabi_dmul+0x24a>
 8000a62:	ea95 0f0c 	teq	r5, ip
 8000a66:	f47f af25 	bne.w	80008b4 <__aeabi_dmul+0x234>
 8000a6a:	4610      	mov	r0, r2
 8000a6c:	4619      	mov	r1, r3
 8000a6e:	e72c      	b.n	80008ca <__aeabi_dmul+0x24a>
 8000a70:	ea95 0f0c 	teq	r5, ip
 8000a74:	d106      	bne.n	8000a84 <__aeabi_ddiv+0x1b0>
 8000a76:	ea52 3503 	orrs.w	r5, r2, r3, lsl #12
 8000a7a:	f43f aefd 	beq.w	8000878 <__aeabi_dmul+0x1f8>
 8000a7e:	4610      	mov	r0, r2
 8000a80:	4619      	mov	r1, r3
 8000a82:	e722      	b.n	80008ca <__aeabi_dmul+0x24a>
 8000a84:	ea50 0641 	orrs.w	r6, r0, r1, lsl #1
 8000a88:	bf18      	it	ne
 8000a8a:	ea52 0643 	orrsne.w	r6, r2, r3, lsl #1
 8000a8e:	f47f aec5 	bne.w	800081c <__aeabi_dmul+0x19c>
 8000a92:	ea50 0441 	orrs.w	r4, r0, r1, lsl #1
 8000a96:	f47f af0d 	bne.w	80008b4 <__aeabi_dmul+0x234>
 8000a9a:	ea52 0543 	orrs.w	r5, r2, r3, lsl #1
 8000a9e:	f47f aeeb 	bne.w	8000878 <__aeabi_dmul+0x1f8>
 8000aa2:	e712      	b.n	80008ca <__aeabi_dmul+0x24a>
	...

08000ab0 <__aeabi_d2iz>:
 8000ab0:	ea4f 0241 	mov.w	r2, r1, lsl #1
 8000ab4:	f512 1200 	adds.w	r2, r2, #2097152	; 0x200000
 8000ab8:	d215      	bcs.n	8000ae6 <__aeabi_d2iz+0x36>
 8000aba:	d511      	bpl.n	8000ae0 <__aeabi_d2iz+0x30>
 8000abc:	f46f 7378 	mvn.w	r3, #992	; 0x3e0
 8000ac0:	ebb3 5262 	subs.w	r2, r3, r2, asr #21
 8000ac4:	d912      	bls.n	8000aec <__aeabi_d2iz+0x3c>
 8000ac6:	ea4f 23c1 	mov.w	r3, r1, lsl #11
 8000aca:	f043 4300 	orr.w	r3, r3, #2147483648	; 0x80000000
 8000ace:	ea43 5350 	orr.w	r3, r3, r0, lsr #21
 8000ad2:	f011 4f00 	tst.w	r1, #2147483648	; 0x80000000
 8000ad6:	fa23 f002 	lsr.w	r0, r3, r2
 8000ada:	bf18      	it	ne
 8000adc:	4240      	negne	r0, r0
 8000ade:	4770      	bx	lr
 8000ae0:	f04f 0000 	mov.w	r0, #0
 8000ae4:	4770      	bx	lr
 8000ae6:	ea50 3001 	orrs.w	r0, r0, r1, lsl #12
 8000aea:	d105      	bne.n	8000af8 <__aeabi_d2iz+0x48>
 8000aec:	f011 4000 	ands.w	r0, r1, #2147483648	; 0x80000000
 8000af0:	bf08      	it	eq
 8000af2:	f06f 4000 	mvneq.w	r0, #2147483648	; 0x80000000
 8000af6:	4770      	bx	lr
 8000af8:	f04f 0000 	mov.w	r0, #0
 8000afc:	4770      	bx	lr
 8000afe:	bf00      	nop

08000b00 <__aeabi_uldivmod>:
 8000b00:	b953      	cbnz	r3, 8000b18 <__aeabi_uldivmod+0x18>
 8000b02:	b94a      	cbnz	r2, 8000b18 <__aeabi_uldivmod+0x18>
 8000b04:	2900      	cmp	r1, #0
 8000b06:	bf08      	it	eq
 8000b08:	2800      	cmpeq	r0, #0
 8000b0a:	bf1c      	itt	ne
 8000b0c:	f04f 31ff 	movne.w	r1, #4294967295
 8000b10:	f04f 30ff 	movne.w	r0, #4294967295
 8000b14:	f000 b974 	b.w	8000e00 <__aeabi_idiv0>
 8000b18:	f1ad 0c08 	sub.w	ip, sp, #8
 8000b1c:	e96d ce04 	strd	ip, lr, [sp, #-16]!
 8000b20:	f000 f806 	bl	8000b30 <__udivmoddi4>
 8000b24:	f8dd e004 	ldr.w	lr, [sp, #4]
 8000b28:	e9dd 2302 	ldrd	r2, r3, [sp, #8]
 8000b2c:	b004      	add	sp, #16
 8000b2e:	4770      	bx	lr

08000b30 <__udivmoddi4>:
 8000b30:	e92d 47f0 	stmdb	sp!, {r4, r5, r6, r7, r8, r9, sl, lr}
 8000b34:	9e08      	ldr	r6, [sp, #32]
 8000b36:	4604      	mov	r4, r0
 8000b38:	4688      	mov	r8, r1
 8000b3a:	2b00      	cmp	r3, #0
 8000b3c:	d14b      	bne.n	8000bd6 <__udivmoddi4+0xa6>
 8000b3e:	428a      	cmp	r2, r1
 8000b40:	4615      	mov	r5, r2
 8000b42:	d967      	bls.n	8000c14 <__udivmoddi4+0xe4>
 8000b44:	fab2 f282 	clz	r2, r2
 8000b48:	b14a      	cbz	r2, 8000b5e <__udivmoddi4+0x2e>
 8000b4a:	f1c2 0720 	rsb	r7, r2, #32
 8000b4e:	fa01 f302 	lsl.w	r3, r1, r2
 8000b52:	fa20 f707 	lsr.w	r7, r0, r7
 8000b56:	4095      	lsls	r5, r2
 8000b58:	ea47 0803 	orr.w	r8, r7, r3
 8000b5c:	4094      	lsls	r4, r2
 8000b5e:	ea4f 4e15 	mov.w	lr, r5, lsr #16
 8000b62:	0c23      	lsrs	r3, r4, #16
 8000b64:	fbb8 f7fe 	udiv	r7, r8, lr
 8000b68:	fa1f fc85 	uxth.w	ip, r5
 8000b6c:	fb0e 8817 	mls	r8, lr, r7, r8
 8000b70:	ea43 4308 	orr.w	r3, r3, r8, lsl #16
 8000b74:	fb07 f10c 	mul.w	r1, r7, ip
 8000b78:	4299      	cmp	r1, r3
 8000b7a:	d909      	bls.n	8000b90 <__udivmoddi4+0x60>
 8000b7c:	18eb      	adds	r3, r5, r3
 8000b7e:	f107 30ff 	add.w	r0, r7, #4294967295
 8000b82:	f080 811b 	bcs.w	8000dbc <__udivmoddi4+0x28c>
 8000b86:	4299      	cmp	r1, r3
 8000b88:	f240 8118 	bls.w	8000dbc <__udivmoddi4+0x28c>
 8000b8c:	3f02      	subs	r7, #2
 8000b8e:	442b      	add	r3, r5
 8000b90:	1a5b      	subs	r3, r3, r1
 8000b92:	b2a4      	uxth	r4, r4
 8000b94:	fbb3 f0fe 	udiv	r0, r3, lr
 8000b98:	fb0e 3310 	mls	r3, lr, r0, r3
 8000b9c:	ea44 4403 	orr.w	r4, r4, r3, lsl #16
 8000ba0:	fb00 fc0c 	mul.w	ip, r0, ip
 8000ba4:	45a4      	cmp	ip, r4
 8000ba6:	d909      	bls.n	8000bbc <__udivmoddi4+0x8c>
 8000ba8:	192c      	adds	r4, r5, r4
 8000baa:	f100 33ff 	add.w	r3, r0, #4294967295
 8000bae:	f080 8107 	bcs.w	8000dc0 <__udivmoddi4+0x290>
 8000bb2:	45a4      	cmp	ip, r4
 8000bb4:	f240 8104 	bls.w	8000dc0 <__udivmoddi4+0x290>
 8000bb8:	3802      	subs	r0, #2
 8000bba:	442c      	add	r4, r5
 8000bbc:	ea40 4007 	orr.w	r0, r0, r7, lsl #16
 8000bc0:	eba4 040c 	sub.w	r4, r4, ip
 8000bc4:	2700      	movs	r7, #0
 8000bc6:	b11e      	cbz	r6, 8000bd0 <__udivmoddi4+0xa0>
 8000bc8:	40d4      	lsrs	r4, r2
 8000bca:	2300      	movs	r3, #0
 8000bcc:	e9c6 4300 	strd	r4, r3, [r6]
 8000bd0:	4639      	mov	r1, r7
 8000bd2:	e8bd 87f0 	ldmia.w	sp!, {r4, r5, r6, r7, r8, r9, sl, pc}
 8000bd6:	428b      	cmp	r3, r1
 8000bd8:	d909      	bls.n	8000bee <__udivmoddi4+0xbe>
 8000bda:	2e00      	cmp	r6, #0
 8000bdc:	f000 80eb 	beq.w	8000db6 <__udivmoddi4+0x286>
 8000be0:	2700      	movs	r7, #0
 8000be2:	e9c6 0100 	strd	r0, r1, [r6]
 8000be6:	4638      	mov	r0, r7
 8000be8:	4639      	mov	r1, r7
 8000bea:	e8bd 87f0 	ldmia.w	sp!, {r4, r5, r6, r7, r8, r9, sl, pc}
 8000bee:	fab3 f783 	clz	r7, r3
 8000bf2:	2f00      	cmp	r7, #0
 8000bf4:	d147      	bne.n	8000c86 <__udivmoddi4+0x156>
 8000bf6:	428b      	cmp	r3, r1
 8000bf8:	d302      	bcc.n	8000c00 <__udivmoddi4+0xd0>
 8000bfa:	4282      	cmp	r2, r0
 8000bfc:	f200 80fa 	bhi.w	8000df4 <__udivmoddi4+0x2c4>
 8000c00:	1a84      	subs	r4, r0, r2
 8000c02:	eb61 0303 	sbc.w	r3, r1, r3
 8000c06:	2001      	movs	r0, #1
 8000c08:	4698      	mov	r8, r3
 8000c0a:	2e00      	cmp	r6, #0
 8000c0c:	d0e0      	beq.n	8000bd0 <__udivmoddi4+0xa0>
 8000c0e:	e9c6 4800 	strd	r4, r8, [r6]
 8000c12:	e7dd      	b.n	8000bd0 <__udivmoddi4+0xa0>
 8000c14:	b902      	cbnz	r2, 8000c18 <__udivmoddi4+0xe8>
 8000c16:	deff      	udf	#255	; 0xff
 8000c18:	fab2 f282 	clz	r2, r2
 8000c1c:	2a00      	cmp	r2, #0
 8000c1e:	f040 808f 	bne.w	8000d40 <__udivmoddi4+0x210>
 8000c22:	1b49      	subs	r1, r1, r5
 8000c24:	ea4f 4e15 	mov.w	lr, r5, lsr #16
 8000c28:	fa1f f885 	uxth.w	r8, r5
 8000c2c:	2701      	movs	r7, #1
 8000c2e:	fbb1 fcfe 	udiv	ip, r1, lr
 8000c32:	0c23      	lsrs	r3, r4, #16
 8000c34:	fb0e 111c 	mls	r1, lr, ip, r1
 8000c38:	ea43 4301 	orr.w	r3, r3, r1, lsl #16
 8000c3c:	fb08 f10c 	mul.w	r1, r8, ip
 8000c40:	4299      	cmp	r1, r3
 8000c42:	d907      	bls.n	8000c54 <__udivmoddi4+0x124>
 8000c44:	18eb      	adds	r3, r5, r3
 8000c46:	f10c 30ff 	add.w	r0, ip, #4294967295
 8000c4a:	d202      	bcs.n	8000c52 <__udivmoddi4+0x122>
 8000c4c:	4299      	cmp	r1, r3
 8000c4e:	f200 80cd 	bhi.w	8000dec <__udivmoddi4+0x2bc>
 8000c52:	4684      	mov	ip, r0
 8000c54:	1a59      	subs	r1, r3, r1
 8000c56:	b2a3      	uxth	r3, r4
 8000c58:	fbb1 f0fe 	udiv	r0, r1, lr
 8000c5c:	fb0e 1410 	mls	r4, lr, r0, r1
 8000c60:	ea43 4404 	orr.w	r4, r3, r4, lsl #16
 8000c64:	fb08 f800 	mul.w	r8, r8, r0
 8000c68:	45a0      	cmp	r8, r4
 8000c6a:	d907      	bls.n	8000c7c <__udivmoddi4+0x14c>
 8000c6c:	192c      	adds	r4, r5, r4
 8000c6e:	f100 33ff 	add.w	r3, r0, #4294967295
 8000c72:	d202      	bcs.n	8000c7a <__udivmoddi4+0x14a>
 8000c74:	45a0      	cmp	r8, r4
 8000c76:	f200 80b6 	bhi.w	8000de6 <__udivmoddi4+0x2b6>
 8000c7a:	4618      	mov	r0, r3
 8000c7c:	eba4 0408 	sub.w	r4, r4, r8
 8000c80:	ea40 400c 	orr.w	r0, r0, ip, lsl #16
 8000c84:	e79f      	b.n	8000bc6 <__udivmoddi4+0x96>
 8000c86:	f1c7 0c20 	rsb	ip, r7, #32
 8000c8a:	40bb      	lsls	r3, r7
 8000c8c:	fa22 fe0c 	lsr.w	lr, r2, ip
 8000c90:	ea4e 0e03 	orr.w	lr, lr, r3
 8000c94:	fa01 f407 	lsl.w	r4, r1, r7
 8000c98:	fa20 f50c 	lsr.w	r5, r0, ip
 8000c9c:	fa21 f30c 	lsr.w	r3, r1, ip
 8000ca0:	ea4f 481e 	mov.w	r8, lr, lsr #16
 8000ca4:	4325      	orrs	r5, r4
 8000ca6:	fbb3 f9f8 	udiv	r9, r3, r8
 8000caa:	0c2c      	lsrs	r4, r5, #16
 8000cac:	fb08 3319 	mls	r3, r8, r9, r3
 8000cb0:	fa1f fa8e 	uxth.w	sl, lr
 8000cb4:	ea44 4303 	orr.w	r3, r4, r3, lsl #16
 8000cb8:	fb09 f40a 	mul.w	r4, r9, sl
 8000cbc:	429c      	cmp	r4, r3
 8000cbe:	fa02 f207 	lsl.w	r2, r2, r7
 8000cc2:	fa00 f107 	lsl.w	r1, r0, r7
 8000cc6:	d90b      	bls.n	8000ce0 <__udivmoddi4+0x1b0>
 8000cc8:	eb1e 0303 	adds.w	r3, lr, r3
 8000ccc:	f109 30ff 	add.w	r0, r9, #4294967295
 8000cd0:	f080 8087 	bcs.w	8000de2 <__udivmoddi4+0x2b2>
 8000cd4:	429c      	cmp	r4, r3
 8000cd6:	f240 8084 	bls.w	8000de2 <__udivmoddi4+0x2b2>
 8000cda:	f1a9 0902 	sub.w	r9, r9, #2
 8000cde:	4473      	add	r3, lr
 8000ce0:	1b1b      	subs	r3, r3, r4
 8000ce2:	b2ad      	uxth	r5, r5
 8000ce4:	fbb3 f0f8 	udiv	r0, r3, r8
 8000ce8:	fb08 3310 	mls	r3, r8, r0, r3
 8000cec:	ea45 4403 	orr.w	r4, r5, r3, lsl #16
 8000cf0:	fb00 fa0a 	mul.w	sl, r0, sl
 8000cf4:	45a2      	cmp	sl, r4
 8000cf6:	d908      	bls.n	8000d0a <__udivmoddi4+0x1da>
 8000cf8:	eb1e 0404 	adds.w	r4, lr, r4
 8000cfc:	f100 33ff 	add.w	r3, r0, #4294967295
 8000d00:	d26b      	bcs.n	8000dda <__udivmoddi4+0x2aa>
 8000d02:	45a2      	cmp	sl, r4
 8000d04:	d969      	bls.n	8000dda <__udivmoddi4+0x2aa>
 8000d06:	3802      	subs	r0, #2
 8000d08:	4474      	add	r4, lr
 8000d0a:	ea40 4009 	orr.w	r0, r0, r9, lsl #16
 8000d0e:	fba0 8902 	umull	r8, r9, r0, r2
 8000d12:	eba4 040a 	sub.w	r4, r4, sl
 8000d16:	454c      	cmp	r4, r9
 8000d18:	46c2      	mov	sl, r8
 8000d1a:	464b      	mov	r3, r9
 8000d1c:	d354      	bcc.n	8000dc8 <__udivmoddi4+0x298>
 8000d1e:	d051      	beq.n	8000dc4 <__udivmoddi4+0x294>
 8000d20:	2e00      	cmp	r6, #0
 8000d22:	d069      	beq.n	8000df8 <__udivmoddi4+0x2c8>
 8000d24:	ebb1 050a 	subs.w	r5, r1, sl
 8000d28:	eb64 0403 	sbc.w	r4, r4, r3
 8000d2c:	fa04 fc0c 	lsl.w	ip, r4, ip
 8000d30:	40fd      	lsrs	r5, r7
 8000d32:	40fc      	lsrs	r4, r7
 8000d34:	ea4c 0505 	orr.w	r5, ip, r5
 8000d38:	e9c6 5400 	strd	r5, r4, [r6]
 8000d3c:	2700      	movs	r7, #0
 8000d3e:	e747      	b.n	8000bd0 <__udivmoddi4+0xa0>
 8000d40:	f1c2 0320 	rsb	r3, r2, #32
 8000d44:	fa20 f703 	lsr.w	r7, r0, r3
 8000d48:	4095      	lsls	r5, r2
 8000d4a:	fa01 f002 	lsl.w	r0, r1, r2
 8000d4e:	fa21 f303 	lsr.w	r3, r1, r3
 8000d52:	ea4f 4e15 	mov.w	lr, r5, lsr #16
 8000d56:	4338      	orrs	r0, r7
 8000d58:	0c01      	lsrs	r1, r0, #16
 8000d5a:	fbb3 f7fe 	udiv	r7, r3, lr
 8000d5e:	fa1f f885 	uxth.w	r8, r5
 8000d62:	fb0e 3317 	mls	r3, lr, r7, r3
 8000d66:	ea41 4103 	orr.w	r1, r1, r3, lsl #16
 8000d6a:	fb07 f308 	mul.w	r3, r7, r8
 8000d6e:	428b      	cmp	r3, r1
 8000d70:	fa04 f402 	lsl.w	r4, r4, r2
 8000d74:	d907      	bls.n	8000d86 <__udivmoddi4+0x256>
 8000d76:	1869      	adds	r1, r5, r1
 8000d78:	f107 3cff 	add.w	ip, r7, #4294967295
 8000d7c:	d22f      	bcs.n	8000dde <__udivmoddi4+0x2ae>
 8000d7e:	428b      	cmp	r3, r1
 8000d80:	d92d      	bls.n	8000dde <__udivmoddi4+0x2ae>
 8000d82:	3f02      	subs	r7, #2
 8000d84:	4429      	add	r1, r5
 8000d86:	1acb      	subs	r3, r1, r3
 8000d88:	b281      	uxth	r1, r0
 8000d8a:	fbb3 f0fe 	udiv	r0, r3, lr
 8000d8e:	fb0e 3310 	mls	r3, lr, r0, r3
 8000d92:	ea41 4103 	orr.w	r1, r1, r3, lsl #16
 8000d96:	fb00 f308 	mul.w	r3, r0, r8
 8000d9a:	428b      	cmp	r3, r1
 8000d9c:	d907      	bls.n	8000dae <__udivmoddi4+0x27e>
 8000d9e:	1869      	adds	r1, r5, r1
 8000da0:	f100 3cff 	add.w	ip, r0, #4294967295
 8000da4:	d217      	bcs.n	8000dd6 <__udivmoddi4+0x2a6>
 8000da6:	428b      	cmp	r3, r1
 8000da8:	d915      	bls.n	8000dd6 <__udivmoddi4+0x2a6>
 8000daa:	3802      	subs	r0, #2
 8000dac:	4429      	add	r1, r5
 8000dae:	1ac9      	subs	r1, r1, r3
 8000db0:	ea40 4707 	orr.w	r7, r0, r7, lsl #16
 8000db4:	e73b      	b.n	8000c2e <__udivmoddi4+0xfe>
 8000db6:	4637      	mov	r7, r6
 8000db8:	4630      	mov	r0, r6
 8000dba:	e709      	b.n	8000bd0 <__udivmoddi4+0xa0>
 8000dbc:	4607      	mov	r7, r0
 8000dbe:	e6e7      	b.n	8000b90 <__udivmoddi4+0x60>
 8000dc0:	4618      	mov	r0, r3
 8000dc2:	e6fb      	b.n	8000bbc <__udivmoddi4+0x8c>
 8000dc4:	4541      	cmp	r1, r8
 8000dc6:	d2ab      	bcs.n	8000d20 <__udivmoddi4+0x1f0>
 8000dc8:	ebb8 0a02 	subs.w	sl, r8, r2
 8000dcc:	eb69 020e 	sbc.w	r2, r9, lr
 8000dd0:	3801      	subs	r0, #1
 8000dd2:	4613      	mov	r3, r2
 8000dd4:	e7a4      	b.n	8000d20 <__udivmoddi4+0x1f0>
 8000dd6:	4660      	mov	r0, ip
 8000dd8:	e7e9      	b.n	8000dae <__udivmoddi4+0x27e>
 8000dda:	4618      	mov	r0, r3
 8000ddc:	e795      	b.n	8000d0a <__udivmoddi4+0x1da>
 8000dde:	4667      	mov	r7, ip
 8000de0:	e7d1      	b.n	8000d86 <__udivmoddi4+0x256>
 8000de2:	4681      	mov	r9, r0
 8000de4:	e77c      	b.n	8000ce0 <__udivmoddi4+0x1b0>
 8000de6:	3802      	subs	r0, #2
 8000de8:	442c      	add	r4, r5
 8000dea:	e747      	b.n	8000c7c <__udivmoddi4+0x14c>
 8000dec:	f1ac 0c02 	sub.w	ip, ip, #2
 8000df0:	442b      	add	r3, r5
 8000df2:	e72f      	b.n	8000c54 <__udivmoddi4+0x124>
 8000df4:	4638      	mov	r0, r7
 8000df6:	e708      	b.n	8000c0a <__udivmoddi4+0xda>
 8000df8:	4637      	mov	r7, r6
 8000dfa:	e6e9      	b.n	8000bd0 <__udivmoddi4+0xa0>
 8000dfc:	0000      	movs	r0, r0
	...

08000e00 <__aeabi_idiv0>:
 8000e00:	4770      	bx	lr
 8000e02:	bf00      	nop
	...

08000e10 <memcpy>:
 8000e10:	4684      	mov	ip, r0
 8000e12:	ea41 0300 	orr.w	r3, r1, r0
 8000e16:	f013 0303 	ands.w	r3, r3, #3
 8000e1a:	d16d      	bne.n	8000ef8 <memcpy+0xe8>
 8000e1c:	3a40      	subs	r2, #64	; 0x40
 8000e1e:	d341      	bcc.n	8000ea4 <memcpy+0x94>
 8000e20:	f851 3b04 	ldr.w	r3, [r1], #4
 8000e24:	f840 3b04 	str.w	r3, [r0], #4
 8000e28:	f851 3b04 	ldr.w	r3, [r1], #4
 8000e2c:	f840 3b04 	str.w	r3, [r0], #4
 8000e30:	f851 3b04 	ldr.w	r3, [r1], #4
 8000e34:	f840 3b04 	str.w	r3, [r0], #4
 8000e38:	f851 3b04 	ldr.w	r3, [r1], #4
 8000e3c:	f840 3b04 	str.w	r3, [r0], #4
 8000e40:	f851 3b04 	ldr.w	r3, [r1], #4
 8000e44:	f840 3b04 	str.w	r3, [r0], #4
 8000e48:	f851 3b04 	ldr.w	r3, [r1], #4
 8000e4c:	f840 3b04 	str.w	r3, [r0], #4
 8000e50:	f851 3b04 	ldr.w	r3, [r1], #4
 8000e54:	f840 3b04 	str.w	r3, [r0], #4
 8000e58:	f851 3b04 	ldr.w	r3, [r1], #4
 8000e5c:	f840 3b04 	str.w	r3, [r0], #4
 8000e60:	f851 3b04 	ldr.w	r3, [r1], #4
 8000e64:	f840 3b04 	str.w	r3, [r0], #4
 8000e68:	f851 3b04 	ldr.w	r3, [r1], #4
 8000e6c:	f840 3b04 	str.w	r3, [r0], #4
 8000e70:	f851 3b04 	ldr.w	r3, [r1], #4
 8000e74:	f840 3b04 	str.w	r3, [r0], #4
 8000e78:	f851 3b04 	ldr.w	r3, [r1], #4
 8000e7c:	f840 3b04 	str.w	r3, [r0], #4
 8000e80:	f851 3b04 	ldr.w	r3, [r1], #4
 8000e84:	f840 3b04 	str.w	r3, [r0], #4
 8000e88:	f851 3b04 	ldr.w	r3, [r1], #4
 8000e8c:	f840 3b04 	str.w	r3, [r0], #4
 8000e90:	f851 3b04 	ldr.w	r3, [r1], #4
 8000e94:	f840 3b04 	str.w	r3, [r0], #4
 8000e98:	f851 3b04 	ldr.w	r3, [r1], #4
 8000e9c:	f840 3b04 	str.w	r3, [r0], #4
 8000ea0:	3a40      	subs	r2, #64	; 0x40
 8000ea2:	d2bd      	bcs.n	8000e20 <memcpy+0x10>
 8000ea4:	3230      	adds	r2, #48	; 0x30
 8000ea6:	d311      	bcc.n	8000ecc <memcpy+0xbc>
 8000ea8:	f851 3b04 	ldr.w	r3, [r1], #4
 8000eac:	f840 3b04 	str.w	r3, [r0], #4
 8000eb0:	f851 3b04 	ldr.w	r3, [r1], #4
 8000eb4:	f840 3b04 	str.w	r3, [r0], #4
 8000eb8:	f851 3b04 	ldr.w	r3, [r1], #4
 8000ebc:	f840 3b04 	str.w	r3, [r0], #4
 8000ec0:	f851 3b04 	ldr.w	r3, [r1], #4
 8000ec4:	f840 3b04 	str.w	r3, [r0], #4
 8000ec8:	3a10      	subs	r2, #16
 8000eca:	d2ed      	bcs.n	8000ea8 <memcpy+0x98>
 8000ecc:	320c      	adds	r2, #12
 8000ece:	d305      	bcc.n	8000edc <memcpy+0xcc>
 8000ed0:	f851 3b04 	ldr.w	r3, [r1], #4
 8000ed4:	f840 3b04 	str.w	r3, [r0], #4
 8000ed8:	3a04      	subs	r2, #4
 8000eda:	d2f9      	bcs.n	8000ed0 <memcpy+0xc0>
 8000edc:	3204      	adds	r2, #4
 8000ede:	d008      	beq.n	8000ef2 <memcpy+0xe2>
 8000ee0:	07d2      	lsls	r2, r2, #31
 8000ee2:	bf1c      	itt	ne
 8000ee4:	f811 3b01 	ldrbne.w	r3, [r1], #1
 8000ee8:	f800 3b01 	strbne.w	r3, [r0], #1
 8000eec:	d301      	bcc.n	8000ef2 <memcpy+0xe2>
 8000eee:	880b      	ldrh	r3, [r1, #0]
 8000ef0:	8003      	strh	r3, [r0, #0]
 8000ef2:	4660      	mov	r0, ip
 8000ef4:	4770      	bx	lr
 8000ef6:	bf00      	nop
 8000ef8:	2a08      	cmp	r2, #8
 8000efa:	d313      	bcc.n	8000f24 <memcpy+0x114>
 8000efc:	078b      	lsls	r3, r1, #30
 8000efe:	d08d      	beq.n	8000e1c <memcpy+0xc>
 8000f00:	f010 0303 	ands.w	r3, r0, #3
 8000f04:	d08a      	beq.n	8000e1c <memcpy+0xc>
 8000f06:	f1c3 0304 	rsb	r3, r3, #4
 8000f0a:	1ad2      	subs	r2, r2, r3
 8000f0c:	07db      	lsls	r3, r3, #31
 8000f0e:	bf1c      	itt	ne
 8000f10:	f811 3b01 	ldrbne.w	r3, [r1], #1
 8000f14:	f800 3b01 	strbne.w	r3, [r0], #1
 8000f18:	d380      	bcc.n	8000e1c <memcpy+0xc>
 8000f1a:	f831 3b02 	ldrh.w	r3, [r1], #2
 8000f1e:	f820 3b02 	strh.w	r3, [r0], #2
 8000f22:	e77b      	b.n	8000e1c <memcpy+0xc>
 8000f24:	3a04      	subs	r2, #4
 8000f26:	d3d9      	bcc.n	8000edc <memcpy+0xcc>
 8000f28:	3a01      	subs	r2, #1
 8000f2a:	f811 3b01 	ldrb.w	r3, [r1], #1
 8000f2e:	f800 3b01 	strb.w	r3, [r0], #1
 8000f32:	d2f9      	bcs.n	8000f28 <memcpy+0x118>
 8000f34:	780b      	ldrb	r3, [r1, #0]
 8000f36:	7003      	strb	r3, [r0, #0]
 8000f38:	784b      	ldrb	r3, [r1, #1]
 8000f3a:	7043      	strb	r3, [r0, #1]
 8000f3c:	788b      	ldrb	r3, [r1, #2]
 8000f3e:	7083      	strb	r3, [r0, #2]
 8000f40:	4660      	mov	r0, ip
 8000f42:	4770      	bx	lr
	...

08000f50 <strlen>:
 8000f50:	f890 f000 	pld	[r0]
 8000f54:	e96d 4502 	strd	r4, r5, [sp, #-8]!
 8000f58:	f020 0107 	bic.w	r1, r0, #7
 8000f5c:	f06f 0c00 	mvn.w	ip, #0
 8000f60:	f010 0407 	ands.w	r4, r0, #7
 8000f64:	f891 f020 	pld	[r1, #32]
 8000f68:	f040 8049 	bne.w	8000ffe <strlen+0xae>
 8000f6c:	f04f 0400 	mov.w	r4, #0
 8000f70:	f06f 0007 	mvn.w	r0, #7
 8000f74:	e9d1 2300 	ldrd	r2, r3, [r1]
 8000f78:	f891 f040 	pld	[r1, #64]	; 0x40
 8000f7c:	f100 0008 	add.w	r0, r0, #8
 8000f80:	fa82 f24c 	uadd8	r2, r2, ip
 8000f84:	faa4 f28c 	sel	r2, r4, ip
 8000f88:	fa83 f34c 	uadd8	r3, r3, ip
 8000f8c:	faa2 f38c 	sel	r3, r2, ip
 8000f90:	bb4b      	cbnz	r3, 8000fe6 <strlen+0x96>
 8000f92:	e9d1 2302 	ldrd	r2, r3, [r1, #8]
 8000f96:	fa82 f24c 	uadd8	r2, r2, ip
 8000f9a:	f100 0008 	add.w	r0, r0, #8
 8000f9e:	faa4 f28c 	sel	r2, r4, ip
 8000fa2:	fa83 f34c 	uadd8	r3, r3, ip
 8000fa6:	faa2 f38c 	sel	r3, r2, ip
 8000faa:	b9e3      	cbnz	r3, 8000fe6 <strlen+0x96>
 8000fac:	e9d1 2304 	ldrd	r2, r3, [r1, #16]
 8000fb0:	fa82 f24c 	uadd8	r2, r2, ip
 8000fb4:	f100 0008 	add.w	r0, r0, #8
 8000fb8:	faa4 f28c 	sel	r2, r4, ip
 8000fbc:	fa83 f34c 	uadd8	r3, r3, ip
 8000fc0:	faa2 f38c 	sel	r3, r2, ip
 8000fc4:	b97b      	cbnz	r3, 8000fe6 <strlen+0x96>
 8000fc6:	e9d1 2306 	ldrd	r2, r3, [r1, #24]
 8000fca:	f101 0120 	add.w	r1, r1, #32
 8000fce:	fa82 f24c 	uadd8	r2, r2, ip
 8000fd2:	f100 0008 	add.w	r0, r0, #8
 8000fd6:	faa4 f28c 	sel	r2, r4, ip
 8000fda:	fa83 f34c 	uadd8	r3, r3, ip
 8000fde:	faa2 f38c 	sel	r3, r2, ip
 8000fe2:	2b00      	cmp	r3, #0
 8000fe4:	d0c6      	beq.n	8000f74 <strlen+0x24>
 8000fe6:	2a00      	cmp	r2, #0
 8000fe8:	bf04      	itt	eq
 8000fea:	3004      	addeq	r0, #4
 8000fec:	461a      	moveq	r2, r3
 8000fee:	ba12      	rev	r2, r2
 8000ff0:	fab2 f282 	clz	r2, r2
 8000ff4:	e8fd 4502 	ldrd	r4, r5, [sp], #8
 8000ff8:	eb00 00d2 	add.w	r0, r0, r2, lsr #3
 8000ffc:	4770      	bx	lr
 8000ffe:	e9d1 2300 	ldrd	r2, r3, [r1]
 8001002:	f004 0503 	and.w	r5, r4, #3
 8001006:	f1c4 0000 	rsb	r0, r4, #0
 800100a:	ea4f 05c5 	mov.w	r5, r5, lsl #3
 800100e:	f014 0f04 	tst.w	r4, #4
 8001012:	f891 f040 	pld	[r1, #64]	; 0x40
 8001016:	fa0c f505 	lsl.w	r5, ip, r5
 800101a:	ea62 0205 	orn	r2, r2, r5
 800101e:	bf1c      	itt	ne
 8001020:	ea63 0305 	ornne	r3, r3, r5
 8001024:	4662      	movne	r2, ip
 8001026:	f04f 0400 	mov.w	r4, #0
 800102a:	e7a9      	b.n	8000f80 <strlen+0x30>
 800102c:	0000      	movs	r0, r0
	...

08001030 <memchr>:
 8001030:	f001 01ff 	and.w	r1, r1, #255	; 0xff
 8001034:	2a10      	cmp	r2, #16
 8001036:	db2b      	blt.n	8001090 <memchr+0x60>
 8001038:	f010 0f07 	tst.w	r0, #7
 800103c:	d008      	beq.n	8001050 <memchr+0x20>
 800103e:	f810 3b01 	ldrb.w	r3, [r0], #1
 8001042:	3a01      	subs	r2, #1
 8001044:	428b      	cmp	r3, r1
 8001046:	d02d      	beq.n	80010a4 <memchr+0x74>
 8001048:	f010 0f07 	tst.w	r0, #7
 800104c:	b342      	cbz	r2, 80010a0 <memchr+0x70>
 800104e:	d1f6      	bne.n	800103e <memchr+0xe>
 8001050:	b4f0      	push	{r4, r5, r6, r7}
 8001052:	ea41 2101 	orr.w	r1, r1, r1, lsl #8
 8001056:	ea41 4101 	orr.w	r1, r1, r1, lsl #16
 800105a:	f022 0407 	bic.w	r4, r2, #7
 800105e:	f07f 0700 	mvns.w	r7, #0
 8001062:	2300      	movs	r3, #0
 8001064:	e8f0 5602 	ldrd	r5, r6, [r0], #8
 8001068:	3c08      	subs	r4, #8
 800106a:	ea85 0501 	eor.w	r5, r5, r1
 800106e:	ea86 0601 	eor.w	r6, r6, r1
 8001072:	fa85 f547 	uadd8	r5, r5, r7
 8001076:	faa3 f587 	sel	r5, r3, r7
 800107a:	fa86 f647 	uadd8	r6, r6, r7
 800107e:	faa5 f687 	sel	r6, r5, r7
 8001082:	b98e      	cbnz	r6, 80010a8 <memchr+0x78>
 8001084:	d1ee      	bne.n	8001064 <memchr+0x34>
 8001086:	bcf0      	pop	{r4, r5, r6, r7}
 8001088:	f001 01ff 	and.w	r1, r1, #255	; 0xff
 800108c:	f002 0207 	and.w	r2, r2, #7
 8001090:	b132      	cbz	r2, 80010a0 <memchr+0x70>
 8001092:	f810 3b01 	ldrb.w	r3, [r0], #1
 8001096:	3a01      	subs	r2, #1
 8001098:	ea83 0301 	eor.w	r3, r3, r1
 800109c:	b113      	cbz	r3, 80010a4 <memchr+0x74>
 800109e:	d1f8      	bne.n	8001092 <memchr+0x62>
 80010a0:	2000      	movs	r0, #0
 80010a2:	4770      	bx	lr
 80010a4:	3801      	subs	r0, #1
 80010a6:	4770      	bx	lr
 80010a8:	2d00      	cmp	r5, #0
 80010aa:	bf06      	itte	eq
 80010ac:	4635      	moveq	r5, r6
 80010ae:	3803      	subeq	r0, #3
 80010b0:	3807      	subne	r0, #7
 80010b2:	f015 0f01 	tst.w	r5, #1
 80010b6:	d107      	bne.n	80010c8 <memchr+0x98>
 80010b8:	3001      	adds	r0, #1
 80010ba:	f415 7f80 	tst.w	r5, #256	; 0x100
 80010be:	bf02      	ittt	eq
 80010c0:	3001      	addeq	r0, #1
 80010c2:	f415 3fc0 	tsteq.w	r5, #98304	; 0x18000
 80010c6:	3001      	addeq	r0, #1
 80010c8:	bcf0      	pop	{r4, r5, r6, r7}
 80010ca:	3801      	subs	r0, #1
 80010cc:	4770      	bx	lr
 80010ce:	bf00      	nop

080010d0 <__gedf2>:
 80010d0:	f04f 3cff 	mov.w	ip, #4294967295
 80010d4:	e006      	b.n	80010e4 <__cmpdf2+0x4>
 80010d6:	bf00      	nop

080010d8 <__ledf2>:
 80010d8:	f04f 0c01 	mov.w	ip, #1
 80010dc:	e002      	b.n	80010e4 <__cmpdf2+0x4>
 80010de:	bf00      	nop

080010e0 <__cmpdf2>:
 80010e0:	f04f 0c01 	mov.w	ip, #1
 80010e4:	f84d cd04 	str.w	ip, [sp, #-4]!
 80010e8:	ea4f 0c41 	mov.w	ip, r1, lsl #1
 80010ec:	ea7f 5c6c 	mvns.w	ip, ip, asr #21
 80010f0:	ea4f 0c43 	mov.w	ip, r3, lsl #1
 80010f4:	bf18      	it	ne
 80010f6:	ea7f 5c6c 	mvnsne.w	ip, ip, asr #21
 80010fa:	d01b      	beq.n	8001134 <__cmpdf2+0x54>
 80010fc:	b001      	add	sp, #4
 80010fe:	ea50 0c41 	orrs.w	ip, r0, r1, lsl #1
 8001102:	bf0c      	ite	eq
 8001104:	ea52 0c43 	orrseq.w	ip, r2, r3, lsl #1
 8001108:	ea91 0f03 	teqne	r1, r3
 800110c:	bf02      	ittt	eq
 800110e:	ea90 0f02 	teqeq	r0, r2
 8001112:	2000      	moveq	r0, #0
 8001114:	4770      	bxeq	lr
 8001116:	f110 0f00 	cmn.w	r0, #0
 800111a:	ea91 0f03 	teq	r1, r3
 800111e:	bf58      	it	pl
 8001120:	4299      	cmppl	r1, r3
 8001122:	bf08      	it	eq
 8001124:	4290      	cmpeq	r0, r2
 8001126:	bf2c      	ite	cs
 8001128:	17d8      	asrcs	r0, r3, #31
 800112a:	ea6f 70e3 	mvncc.w	r0, r3, asr #31
 800112e:	f040 0001 	orr.w	r0, r0, #1
 8001132:	4770      	bx	lr
 8001134:	ea4f 0c41 	mov.w	ip, r1, lsl #1
 8001138:	ea7f 5c6c 	mvns.w	ip, ip, asr #21
 800113c:	d102      	bne.n	8001144 <__cmpdf2+0x64>
 800113e:	ea50 3c01 	orrs.w	ip, r0, r1, lsl #12
 8001142:	d107      	bne.n	8001154 <__cmpdf2+0x74>
 8001144:	ea4f 0c43 	mov.w	ip, r3, lsl #1
 8001148:	ea7f 5c6c 	mvns.w	ip, ip, asr #21
 800114c:	d1d6      	bne.n	80010fc <__cmpdf2+0x1c>
 800114e:	ea52 3c03 	orrs.w	ip, r2, r3, lsl #12
 8001152:	d0d3      	beq.n	80010fc <__cmpdf2+0x1c>
 8001154:	f85d 0b04 	ldr.w	r0, [sp], #4
 8001158:	4770      	bx	lr
 800115a:	bf00      	nop

0800115c <__aeabi_cdrcmple>:
 800115c:	4684      	mov	ip, r0
 800115e:	4610      	mov	r0, r2
 8001160:	4662      	mov	r2, ip
 8001162:	468c      	mov	ip, r1
 8001164:	4619      	mov	r1, r3
 8001166:	4663      	mov	r3, ip
 8001168:	e000      	b.n	800116c <__aeabi_cdcmpeq>
 800116a:	bf00      	nop

0800116c <__aeabi_cdcmpeq>:
 800116c:	b501      	push	{r0, lr}
 800116e:	f7ff ffb7 	bl	80010e0 <__cmpdf2>
 8001172:	2800      	cmp	r0, #0
 8001174:	bf48      	it	mi
 8001176:	f110 0f00 	cmnmi.w	r0, #0
 800117a:	bd01      	pop	{r0, pc}

0800117c <__aeabi_dcmpeq>:
 800117c:	f84d ed08 	str.w	lr, [sp, #-8]!
 8001180:	f7ff fff4 	bl	800116c <__aeabi_cdcmpeq>
 8001184:	bf0c      	ite	eq
 8001186:	2001      	moveq	r0, #1
 8001188:	2000      	movne	r0, #0
 800118a:	f85d fb08 	ldr.w	pc, [sp], #8
 800118e:	bf00      	nop

08001190 <__aeabi_dcmplt>:
 8001190:	f84d ed08 	str.w	lr, [sp, #-8]!
 8001194:	f7ff ffea 	bl	800116c <__aeabi_cdcmpeq>
 8001198:	bf34      	ite	cc
 800119a:	2001      	movcc	r0, #1
 800119c:	2000      	movcs	r0, #0
 800119e:	f85d fb08 	ldr.w	pc, [sp], #8
 80011a2:	bf00      	nop

080011a4 <__aeabi_dcmple>:
 80011a4:	f84d ed08 	str.w	lr, [sp, #-8]!
 80011a8:	f7ff ffe0 	bl	800116c <__aeabi_cdcmpeq>
 80011ac:	bf94      	ite	ls
 80011ae:	2001      	movls	r0, #1
 80011b0:	2000      	movhi	r0, #0
 80011b2:	f85d fb08 	ldr.w	pc, [sp], #8
 80011b6:	bf00      	nop

080011b8 <__aeabi_dcmpge>:
 80011b8:	f84d ed08 	str.w	lr, [sp, #-8]!
 80011bc:	f7ff ffce 	bl	800115c <__aeabi_cdrcmple>
 80011c0:	bf94      	ite	ls
 80011c2:	2001      	movls	r0, #1
 80011c4:	2000      	movhi	r0, #0
 80011c6:	f85d fb08 	ldr.w	pc, [sp], #8
 80011ca:	bf00      	nop

080011cc <__aeabi_dcmpgt>:
 80011cc:	f84d ed08 	str.w	lr, [sp, #-8]!
 80011d0:	f7ff ffc4 	bl	800115c <__aeabi_cdrcmple>
 80011d4:	bf34      	ite	cc
 80011d6:	2001      	movcc	r0, #1
 80011d8:	2000      	movcs	r0, #0
 80011da:	f85d fb08 	ldr.w	pc, [sp], #8
 80011de:	bf00      	nop

080011e0 <__aeabi_dcmpun>:
 80011e0:	ea4f 0c41 	mov.w	ip, r1, lsl #1
 80011e4:	ea7f 5c6c 	mvns.w	ip, ip, asr #21
 80011e8:	d102      	bne.n	80011f0 <__aeabi_dcmpun+0x10>
 80011ea:	ea50 3c01 	orrs.w	ip, r0, r1, lsl #12
 80011ee:	d10a      	bne.n	8001206 <__aeabi_dcmpun+0x26>
 80011f0:	ea4f 0c43 	mov.w	ip, r3, lsl #1
 80011f4:	ea7f 5c6c 	mvns.w	ip, ip, asr #21
 80011f8:	d102      	bne.n	8001200 <__aeabi_dcmpun+0x20>
 80011fa:	ea52 3c03 	orrs.w	ip, r2, r3, lsl #12
 80011fe:	d102      	bne.n	8001206 <__aeabi_dcmpun+0x26>
 8001200:	f04f 0000 	mov.w	r0, #0
 8001204:	4770      	bx	lr
 8001206:	f04f 0001 	mov.w	r0, #1
 800120a:	4770      	bx	lr
 800120c:	0000      	movs	r0, r0
	...

08001210 <main>:
 8001210:	b500      	push	{lr}
 8001212:	4b05      	ldr	r3, [pc, #20]	; (8001228 <main+0x18>)
 8001214:	b083      	sub	sp, #12
 8001216:	681b      	ldr	r3, [r3, #0]
 8001218:	9301      	str	r3, [sp, #4]
 800121a:	f000 f859 	bl	80012d0 <detection_init>
 800121e:	f44f 707a 	mov.w	r0, #1000	; 0x3e8
 8001222:	f000 fefd 	bl	8002020 <chThdSleep>
 8001226:	e7fa      	b.n	800121e <main+0xe>
 8001228:	20000800 	.word	0x20000800
 800122c:	00000000 	.word	0x00000000

08001230 <__stack_chk_fail>:
 8001230:	b500      	push	{lr}
 8001232:	4b08      	ldr	r3, [pc, #32]	; (8001254 <__stack_chk_fail+0x24>)
 8001234:	b083      	sub	sp, #12
 8001236:	681a      	ldr	r2, [r3, #0]
 8001238:	9201      	str	r2, [sp, #4]
 800123a:	9a01      	ldr	r2, [sp, #4]
 800123c:	681b      	ldr	r3, [r3, #0]
 800123e:	429a      	cmp	r2, r3
 8001240:	d105      	bne.n	800124e <__stack_chk_fail+0x1e>
 8001242:	4805      	ldr	r0, [pc, #20]	; (8001258 <__stack_chk_fail+0x28>)
 8001244:	b003      	add	sp, #12
 8001246:	f85d eb04 	ldr.w	lr, [sp], #4
 800124a:	f000 b9d1 	b.w	80015f0 <chSysHalt>
 800124e:	f7ff ffef 	bl	8001230 <__stack_chk_fail>
 8001252:	bf00      	nop
 8001254:	20000800 	.word	0x20000800
 8001258:	08008910 	.word	0x08008910
 800125c:	00000000 	.word	0x00000000

08001260 <ThdDetection>:
 8001260:	e92d 41f0 	stmdb	sp!, {r4, r5, r6, r7, r8, lr}
 8001264:	4c14      	ldr	r4, [pc, #80]	; (80012b8 <ThdDetection+0x58>)
 8001266:	4b15      	ldr	r3, [pc, #84]	; (80012bc <ThdDetection+0x5c>)
 8001268:	69a2      	ldr	r2, [r4, #24]
 800126a:	4915      	ldr	r1, [pc, #84]	; (80012c0 <ThdDetection+0x60>)
 800126c:	681b      	ldr	r3, [r3, #0]
 800126e:	f8df 8054 	ldr.w	r8, [pc, #84]	; 80012c4 <ThdDetection+0x64>
 8001272:	6191      	str	r1, [r2, #24]
 8001274:	b082      	sub	sp, #8
 8001276:	2720      	movs	r7, #32
 8001278:	9301      	str	r3, [sp, #4]
 800127a:	2600      	movs	r6, #0
 800127c:	f387 8811 	msr	BASEPRI, r7
 8001280:	f001 f90e 	bl	80024a0 <_stats_start_measure_crit_thd>
 8001284:	f000 fa2c 	bl	80016e0 <_dbg_check_lock>
 8001288:	6aa5      	ldr	r5, [r4, #40]	; 0x28
 800128a:	f000 fa49 	bl	8001720 <_dbg_check_unlock>
 800128e:	f001 f91f 	bl	80024d0 <_stats_stop_measure_crit_thd>
 8001292:	6823      	ldr	r3, [r4, #0]
 8001294:	42a3      	cmp	r3, r4
 8001296:	d007      	beq.n	80012a8 <ThdDetection+0x48>
 8001298:	69a2      	ldr	r2, [r4, #24]
 800129a:	689b      	ldr	r3, [r3, #8]
 800129c:	6892      	ldr	r2, [r2, #8]
 800129e:	429a      	cmp	r2, r3
 80012a0:	d202      	bcs.n	80012a8 <ThdDetection+0x48>
 80012a2:	4640      	mov	r0, r8
 80012a4:	f000 f9a4 	bl	80015f0 <chSysHalt>
 80012a8:	f386 8811 	msr	BASEPRI, r6
 80012ac:	f105 0164 	add.w	r1, r5, #100	; 0x64
 80012b0:	4628      	mov	r0, r5
 80012b2:	f000 fef5 	bl	80020a0 <chThdSleepUntilWindowed>
 80012b6:	e7e1      	b.n	800127c <ThdDetection+0x1c>
 80012b8:	20001458 	.word	0x20001458
 80012bc:	20000800 	.word	0x20000800
 80012c0:	08008930 	.word	0x08008930
 80012c4:	08008940 	.word	0x08008940
	...

080012d0 <detection_init>:
 80012d0:	b530      	push	{r4, r5, lr}
 80012d2:	4c0b      	ldr	r4, [pc, #44]	; (8001300 <detection_init+0x30>)
 80012d4:	4b0b      	ldr	r3, [pc, #44]	; (8001304 <detection_init+0x34>)
 80012d6:	6822      	ldr	r2, [r4, #0]
 80012d8:	480b      	ldr	r0, [pc, #44]	; (8001308 <detection_init+0x38>)
 80012da:	b085      	sub	sp, #20
 80012dc:	2500      	movs	r5, #0
 80012de:	9203      	str	r2, [sp, #12]
 80012e0:	9500      	str	r5, [sp, #0]
 80012e2:	2240      	movs	r2, #64	; 0x40
 80012e4:	f44f 71fc 	mov.w	r1, #504	; 0x1f8
 80012e8:	f000 fe42 	bl	8001f70 <chThdCreateStatic>
 80012ec:	9a03      	ldr	r2, [sp, #12]
 80012ee:	6823      	ldr	r3, [r4, #0]
 80012f0:	429a      	cmp	r2, r3
 80012f2:	d102      	bne.n	80012fa <detection_init+0x2a>
 80012f4:	4628      	mov	r0, r5
 80012f6:	b005      	add	sp, #20
 80012f8:	bd30      	pop	{r4, r5, pc}
 80012fa:	f7ff ff99 	bl	8001230 <__stack_chk_fail>
 80012fe:	bf00      	nop
 8001300:	20000800 	.word	0x20000800
 8001304:	08001261 	.word	0x08001261
 8001308:	200011c8 	.word	0x200011c8
 800130c:	00000000 	.word	0x00000000

08001310 <dcmi_lld_stop_stream.part.0>:
 8001310:	b530      	push	{r4, r5, lr}
 8001312:	4d10      	ldr	r5, [pc, #64]	; (8001354 <dcmi_lld_stop_stream.part.0+0x44>)
 8001314:	6881      	ldr	r1, [r0, #8]
 8001316:	682b      	ldr	r3, [r5, #0]
 8001318:	4a0f      	ldr	r2, [pc, #60]	; (8001358 <dcmi_lld_stop_stream.part.0+0x48>)
 800131a:	b083      	sub	sp, #12
 800131c:	9301      	str	r3, [sp, #4]
 800131e:	680b      	ldr	r3, [r1, #0]
 8001320:	f023 0301 	bic.w	r3, r3, #1
 8001324:	600b      	str	r3, [r1, #0]
 8001326:	6881      	ldr	r1, [r0, #8]
 8001328:	6a94      	ldr	r4, [r2, #40]	; 0x28
 800132a:	e003      	b.n	8001334 <dcmi_lld_stop_stream.part.0+0x24>
 800132c:	6a93      	ldr	r3, [r2, #40]	; 0x28
 800132e:	1b1b      	subs	r3, r3, r4
 8001330:	2bc7      	cmp	r3, #199	; 0xc7
 8001332:	d809      	bhi.n	8001348 <dcmi_lld_stop_stream.part.0+0x38>
 8001334:	6808      	ldr	r0, [r1, #0]
 8001336:	f010 0001 	ands.w	r0, r0, #1
 800133a:	d1f7      	bne.n	800132c <dcmi_lld_stop_stream.part.0+0x1c>
 800133c:	9a01      	ldr	r2, [sp, #4]
 800133e:	682b      	ldr	r3, [r5, #0]
 8001340:	429a      	cmp	r2, r3
 8001342:	d104      	bne.n	800134e <dcmi_lld_stop_stream.part.0+0x3e>
 8001344:	b003      	add	sp, #12
 8001346:	bd30      	pop	{r4, r5, pc}
 8001348:	f04f 30ff 	mov.w	r0, #4294967295
 800134c:	e7f6      	b.n	800133c <dcmi_lld_stop_stream.part.0+0x2c>
 800134e:	f7ff ff6f 	bl	8001230 <__stack_chk_fail>
 8001352:	bf00      	nop
 8001354:	20000800 	.word	0x20000800
 8001358:	20001458 	.word	0x20001458
 800135c:	00000000 	.word	0x00000000

08001360 <Vector178>:
 8001360:	b5f0      	push	{r4, r5, r6, r7, lr}
 8001362:	4d28      	ldr	r5, [pc, #160]	; (8001404 <Vector178+0xa4>)
 8001364:	b083      	sub	sp, #12
 8001366:	682b      	ldr	r3, [r5, #0]
 8001368:	9301      	str	r3, [sp, #4]
 800136a:	f001 f861 	bl	8002430 <_stats_increase_irq>
 800136e:	f000 fa37 	bl	80017e0 <_dbg_check_enter_isr>
 8001372:	4b25      	ldr	r3, [pc, #148]	; (8001408 <Vector178+0xa8>)
 8001374:	691e      	ldr	r6, [r3, #16]
 8001376:	07f2      	lsls	r2, r6, #31
 8001378:	d515      	bpl.n	80013a6 <Vector178+0x46>
 800137a:	695a      	ldr	r2, [r3, #20]
 800137c:	4c23      	ldr	r4, [pc, #140]	; (800140c <Vector178+0xac>)
 800137e:	f042 0201 	orr.w	r2, r2, #1
 8001382:	615a      	str	r2, [r3, #20]
 8001384:	7827      	ldrb	r7, [r4, #0]
 8001386:	1fbb      	subs	r3, r7, #6
 8001388:	2b01      	cmp	r3, #1
 800138a:	d92a      	bls.n	80013e2 <Vector178+0x82>
 800138c:	2205      	movs	r2, #5
 800138e:	6863      	ldr	r3, [r4, #4]
 8001390:	7022      	strb	r2, [r4, #0]
 8001392:	681b      	ldr	r3, [r3, #0]
 8001394:	b10b      	cbz	r3, 800139a <Vector178+0x3a>
 8001396:	4620      	mov	r0, r4
 8001398:	4798      	blx	r3
 800139a:	2f04      	cmp	r7, #4
 800139c:	d027      	beq.n	80013ee <Vector178+0x8e>
 800139e:	2f02      	cmp	r7, #2
 80013a0:	d025      	beq.n	80013ee <Vector178+0x8e>
 80013a2:	2303      	movs	r3, #3
 80013a4:	7023      	strb	r3, [r4, #0]
 80013a6:	07b3      	lsls	r3, r6, #30
 80013a8:	d510      	bpl.n	80013cc <Vector178+0x6c>
 80013aa:	4a17      	ldr	r2, [pc, #92]	; (8001408 <Vector178+0xa8>)
 80013ac:	4c17      	ldr	r4, [pc, #92]	; (800140c <Vector178+0xac>)
 80013ae:	6953      	ldr	r3, [r2, #20]
 80013b0:	f043 0302 	orr.w	r3, r3, #2
 80013b4:	6153      	str	r3, [r2, #20]
 80013b6:	7823      	ldrb	r3, [r4, #0]
 80013b8:	2b03      	cmp	r3, #3
 80013ba:	d01d      	beq.n	80013f8 <Vector178+0x98>
 80013bc:	6863      	ldr	r3, [r4, #4]
 80013be:	689b      	ldr	r3, [r3, #8]
 80013c0:	2206      	movs	r2, #6
 80013c2:	7022      	strb	r2, [r4, #0]
 80013c4:	b113      	cbz	r3, 80013cc <Vector178+0x6c>
 80013c6:	2101      	movs	r1, #1
 80013c8:	4810      	ldr	r0, [pc, #64]	; (800140c <Vector178+0xac>)
 80013ca:	4798      	blx	r3
 80013cc:	f000 fa30 	bl	8001830 <_dbg_check_leave_isr>
 80013d0:	9a01      	ldr	r2, [sp, #4]
 80013d2:	682b      	ldr	r3, [r5, #0]
 80013d4:	429a      	cmp	r2, r3
 80013d6:	d113      	bne.n	8001400 <Vector178+0xa0>
 80013d8:	b003      	add	sp, #12
 80013da:	e8bd 40f0 	ldmia.w	sp!, {r4, r5, r6, r7, lr}
 80013de:	f001 bb77 	b.w	8002ad0 <_port_irq_epilogue>
 80013e2:	9a01      	ldr	r2, [sp, #4]
 80013e4:	682b      	ldr	r3, [r5, #0]
 80013e6:	429a      	cmp	r2, r3
 80013e8:	d10a      	bne.n	8001400 <Vector178+0xa0>
 80013ea:	b003      	add	sp, #12
 80013ec:	bdf0      	pop	{r4, r5, r6, r7, pc}
 80013ee:	2302      	movs	r3, #2
 80013f0:	7023      	strb	r3, [r4, #0]
 80013f2:	07b3      	lsls	r3, r6, #30
 80013f4:	d5ea      	bpl.n	80013cc <Vector178+0x6c>
 80013f6:	e7d8      	b.n	80013aa <Vector178+0x4a>
 80013f8:	4620      	mov	r0, r4
 80013fa:	f7ff ff89 	bl	8001310 <dcmi_lld_stop_stream.part.0>
 80013fe:	e7dd      	b.n	80013bc <Vector178+0x5c>
 8001400:	f7ff ff16 	bl	8001230 <__stack_chk_fail>
 8001404:	20000800 	.word	0x20000800
 8001408:	50050000 	.word	0x50050000
 800140c:	200013c0 	.word	0x200013c0

08001410 <MemManage_Handler>:
 8001410:	b570      	push	{r4, r5, r6, lr}
 8001412:	4d1a      	ldr	r5, [pc, #104]	; (800147c <MemManage_Handler+0x6c>)
 8001414:	4c1a      	ldr	r4, [pc, #104]	; (8001480 <MemManage_Handler+0x70>)
 8001416:	4e1b      	ldr	r6, [pc, #108]	; (8001484 <MemManage_Handler+0x74>)
 8001418:	cd0f      	ldmia	r5!, {r0, r1, r2, r3}
 800141a:	c40f      	stmia	r4!, {r0, r1, r2, r3}
 800141c:	b09e      	sub	sp, #120	; 0x78
 800141e:	682a      	ldr	r2, [r5, #0]
 8001420:	6833      	ldr	r3, [r6, #0]
 8001422:	8022      	strh	r2, [r4, #0]
 8001424:	931d      	str	r3, [sp, #116]	; 0x74
 8001426:	f3ef 8109 	mrs	r1, PSP
 800142a:	2268      	movs	r2, #104	; 0x68
 800142c:	a803      	add	r0, sp, #12
 800142e:	f7ff fcef 	bl	8000e10 <memcpy>
 8001432:	4b15      	ldr	r3, [pc, #84]	; (8001488 <MemManage_Handler+0x78>)
 8001434:	6a9d      	ldr	r5, [r3, #40]	; 0x28
 8001436:	07aa      	lsls	r2, r5, #30
 8001438:	d414      	bmi.n	8001464 <MemManage_Handler+0x54>
 800143a:	07eb      	lsls	r3, r5, #31
 800143c:	d508      	bpl.n	8001450 <MemManage_Handler+0x40>
 800143e:	4b12      	ldr	r3, [pc, #72]	; (8001488 <MemManage_Handler+0x78>)
 8001440:	9908      	ldr	r1, [sp, #32]
 8001442:	6b5b      	ldr	r3, [r3, #52]	; 0x34
 8001444:	4a11      	ldr	r2, [pc, #68]	; (800148c <MemManage_Handler+0x7c>)
 8001446:	9100      	str	r1, [sp, #0]
 8001448:	480d      	ldr	r0, [pc, #52]	; (8001480 <MemManage_Handler+0x70>)
 800144a:	2180      	movs	r1, #128	; 0x80
 800144c:	f004 f8e0 	bl	8005610 <snprintf>
 8001450:	9a1d      	ldr	r2, [sp, #116]	; 0x74
 8001452:	6833      	ldr	r3, [r6, #0]
 8001454:	429a      	cmp	r2, r3
 8001456:	d10f      	bne.n	8001478 <MemManage_Handler+0x68>
 8001458:	4809      	ldr	r0, [pc, #36]	; (8001480 <MemManage_Handler+0x70>)
 800145a:	b01e      	add	sp, #120	; 0x78
 800145c:	e8bd 4070 	ldmia.w	sp!, {r4, r5, r6, lr}
 8001460:	f000 b8c6 	b.w	80015f0 <chSysHalt>
 8001464:	9a09      	ldr	r2, [sp, #36]	; 0x24
 8001466:	6b5b      	ldr	r3, [r3, #52]	; 0x34
 8001468:	9200      	str	r2, [sp, #0]
 800146a:	f1a4 0010 	sub.w	r0, r4, #16
 800146e:	4a08      	ldr	r2, [pc, #32]	; (8001490 <MemManage_Handler+0x80>)
 8001470:	2180      	movs	r1, #128	; 0x80
 8001472:	f004 f8cd 	bl	8005610 <snprintf>
 8001476:	e7e0      	b.n	800143a <MemManage_Handler+0x2a>
 8001478:	f7ff feda 	bl	8001230 <__stack_chk_fail>
 800147c:	08008994 	.word	0x08008994
 8001480:	200013d4 	.word	0x200013d4
 8001484:	20000800 	.word	0x20000800
 8001488:	e000ed00 	.word	0xe000ed00
 800148c:	08008970 	.word	0x08008970
 8001490:	08008950 	.word	0x08008950
	...

080014a0 <panic_handler>:
 80014a0:	490a      	ldr	r1, [pc, #40]	; (80014cc <panic_handler+0x2c>)
 80014a2:	4b0b      	ldr	r3, [pc, #44]	; (80014d0 <panic_handler+0x30>)
 80014a4:	6809      	ldr	r1, [r1, #0]
 80014a6:	4a0b      	ldr	r2, [pc, #44]	; (80014d4 <panic_handler+0x34>)
 80014a8:	b082      	sub	sp, #8
 80014aa:	2020      	movs	r0, #32
 80014ac:	9101      	str	r1, [sp, #4]
 80014ae:	2140      	movs	r1, #64	; 0x40
 80014b0:	8358      	strh	r0, [r3, #26]
 80014b2:	f44f 6580 	mov.w	r5, #1024	; 0x400
 80014b6:	8359      	strh	r1, [r3, #26]
 80014b8:	f44f 6400 	mov.w	r4, #2048	; 0x800
 80014bc:	f44f 4080 	mov.w	r0, #16384	; 0x4000
 80014c0:	2104      	movs	r1, #4
 80014c2:	835d      	strh	r5, [r3, #26]
 80014c4:	835c      	strh	r4, [r3, #26]
 80014c6:	8358      	strh	r0, [r3, #26]
 80014c8:	8351      	strh	r1, [r2, #26]
 80014ca:	e7fe      	b.n	80014ca <panic_handler+0x2a>
 80014cc:	20000800 	.word	0x20000800
 80014d0:	40020c00 	.word	0x40020c00
 80014d4:	40020400 	.word	0x40020400
	...

080014e0 <__malloc_lock>:
 80014e0:	b500      	push	{lr}
 80014e2:	4b08      	ldr	r3, [pc, #32]	; (8001504 <__malloc_lock+0x24>)
 80014e4:	b083      	sub	sp, #12
 80014e6:	681a      	ldr	r2, [r3, #0]
 80014e8:	9201      	str	r2, [sp, #4]
 80014ea:	9a01      	ldr	r2, [sp, #4]
 80014ec:	681b      	ldr	r3, [r3, #0]
 80014ee:	429a      	cmp	r2, r3
 80014f0:	d105      	bne.n	80014fe <__malloc_lock+0x1e>
 80014f2:	4805      	ldr	r0, [pc, #20]	; (8001508 <__malloc_lock+0x28>)
 80014f4:	b003      	add	sp, #12
 80014f6:	f85d eb04 	ldr.w	lr, [sp], #4
 80014fa:	f001 b8f9 	b.w	80026f0 <chMtxLock>
 80014fe:	f7ff fe97 	bl	8001230 <__stack_chk_fail>
 8001502:	bf00      	nop
 8001504:	20000800 	.word	0x20000800
 8001508:	20000804 	.word	0x20000804
 800150c:	00000000 	.word	0x00000000

08001510 <__malloc_unlock>:
 8001510:	b500      	push	{lr}
 8001512:	4b08      	ldr	r3, [pc, #32]	; (8001534 <__malloc_unlock+0x24>)
 8001514:	b083      	sub	sp, #12
 8001516:	681a      	ldr	r2, [r3, #0]
 8001518:	9201      	str	r2, [sp, #4]
 800151a:	9a01      	ldr	r2, [sp, #4]
 800151c:	681b      	ldr	r3, [r3, #0]
 800151e:	429a      	cmp	r2, r3
 8001520:	d105      	bne.n	800152e <__malloc_unlock+0x1e>
 8001522:	4805      	ldr	r0, [pc, #20]	; (8001538 <__malloc_unlock+0x28>)
 8001524:	b003      	add	sp, #12
 8001526:	f85d eb04 	ldr.w	lr, [sp], #4
 800152a:	f001 b919 	b.w	8002760 <chMtxUnlock>
 800152e:	f7ff fe7f 	bl	8001230 <__stack_chk_fail>
 8001532:	bf00      	nop
 8001534:	20000800 	.word	0x20000800
 8001538:	20000804 	.word	0x20000804
 800153c:	00000000 	.word	0x00000000

08001540 <_sbrk_r>:
 8001540:	b570      	push	{r4, r5, r6, lr}
 8001542:	4c0d      	ldr	r4, [pc, #52]	; (8001578 <_sbrk_r+0x38>)
 8001544:	b082      	sub	sp, #8
 8001546:	6823      	ldr	r3, [r4, #0]
 8001548:	9301      	str	r3, [sp, #4]
 800154a:	1e0d      	subs	r5, r1, #0
 800154c:	4606      	mov	r6, r0
 800154e:	dd0d      	ble.n	800156c <_sbrk_r+0x2c>
 8001550:	4628      	mov	r0, r5
 8001552:	f001 fa55 	bl	8002a00 <chCoreAlloc>
 8001556:	b918      	cbnz	r0, 8001560 <_sbrk_r+0x20>
 8001558:	230c      	movs	r3, #12
 800155a:	6033      	str	r3, [r6, #0]
 800155c:	f04f 30ff 	mov.w	r0, #4294967295
 8001560:	9a01      	ldr	r2, [sp, #4]
 8001562:	6823      	ldr	r3, [r4, #0]
 8001564:	429a      	cmp	r2, r3
 8001566:	d105      	bne.n	8001574 <_sbrk_r+0x34>
 8001568:	b002      	add	sp, #8
 800156a:	bd70      	pop	{r4, r5, r6, pc}
 800156c:	4803      	ldr	r0, [pc, #12]	; (800157c <_sbrk_r+0x3c>)
 800156e:	f000 f83f 	bl	80015f0 <chSysHalt>
 8001572:	e7ed      	b.n	8001550 <_sbrk_r+0x10>
 8001574:	f7ff fe5c 	bl	8001230 <__stack_chk_fail>
 8001578:	20000800 	.word	0x20000800
 800157c:	080089b0 	.word	0x080089b0

08001580 <_fini>:
 8001580:	b500      	push	{lr}
 8001582:	4b06      	ldr	r3, [pc, #24]	; (800159c <_fini+0x1c>)
 8001584:	b083      	sub	sp, #12
 8001586:	681a      	ldr	r2, [r3, #0]
 8001588:	9201      	str	r2, [sp, #4]
 800158a:	9a01      	ldr	r2, [sp, #4]
 800158c:	681b      	ldr	r3, [r3, #0]
 800158e:	429a      	cmp	r2, r3
 8001590:	d102      	bne.n	8001598 <_fini+0x18>
 8001592:	b003      	add	sp, #12
 8001594:	f85d fb04 	ldr.w	pc, [sp], #4
 8001598:	f7ff fe4a 	bl	8001230 <__stack_chk_fail>
 800159c:	20000800 	.word	0x20000800

080015a0 <__late_init>:
 80015a0:	b500      	push	{lr}
 80015a2:	4b06      	ldr	r3, [pc, #24]	; (80015bc <__late_init+0x1c>)
 80015a4:	b083      	sub	sp, #12
 80015a6:	681a      	ldr	r2, [r3, #0]
 80015a8:	9201      	str	r2, [sp, #4]
 80015aa:	9a01      	ldr	r2, [sp, #4]
 80015ac:	681b      	ldr	r3, [r3, #0]
 80015ae:	429a      	cmp	r2, r3
 80015b0:	d102      	bne.n	80015b8 <__late_init+0x18>
 80015b2:	b003      	add	sp, #12
 80015b4:	f85d fb04 	ldr.w	pc, [sp], #4
 80015b8:	f7ff fe3a 	bl	8001230 <__stack_chk_fail>
 80015bc:	20000800 	.word	0x20000800

080015c0 <__default_exit>:
 80015c0:	4b02      	ldr	r3, [pc, #8]	; (80015cc <__default_exit+0xc>)
 80015c2:	b082      	sub	sp, #8
 80015c4:	681b      	ldr	r3, [r3, #0]
 80015c6:	9301      	str	r3, [sp, #4]
 80015c8:	e7fe      	b.n	80015c8 <__default_exit+0x8>
 80015ca:	bf00      	nop
 80015cc:	20000800 	.word	0x20000800

080015d0 <_unhandled_exception>:
 80015d0:	b500      	push	{lr}
 80015d2:	4b04      	ldr	r3, [pc, #16]	; (80015e4 <_unhandled_exception+0x14>)
 80015d4:	4804      	ldr	r0, [pc, #16]	; (80015e8 <_unhandled_exception+0x18>)
 80015d6:	681b      	ldr	r3, [r3, #0]
 80015d8:	b083      	sub	sp, #12
 80015da:	9301      	str	r3, [sp, #4]
 80015dc:	f000 f808 	bl	80015f0 <chSysHalt>
 80015e0:	e7fe      	b.n	80015e0 <_unhandled_exception+0x10>
 80015e2:	bf00      	nop
 80015e4:	20000800 	.word	0x20000800
 80015e8:	080089c0 	.word	0x080089c0
 80015ec:	00000000 	.word	0x00000000

080015f0 <chSysHalt>:
 80015f0:	b500      	push	{lr}
 80015f2:	4b05      	ldr	r3, [pc, #20]	; (8001608 <chSysHalt+0x18>)
 80015f4:	b083      	sub	sp, #12
 80015f6:	681b      	ldr	r3, [r3, #0]
 80015f8:	9301      	str	r3, [sp, #4]
 80015fa:	4604      	mov	r4, r0
 80015fc:	b672      	cpsid	i
 80015fe:	f7ff ff4f 	bl	80014a0 <panic_handler>
 8001602:	4b02      	ldr	r3, [pc, #8]	; (800160c <chSysHalt+0x1c>)
 8001604:	62dc      	str	r4, [r3, #44]	; 0x2c
 8001606:	e7fe      	b.n	8001606 <chSysHalt+0x16>
 8001608:	20000800 	.word	0x20000800
 800160c:	20001458 	.word	0x20001458

08001610 <chSysTimerHandlerI>:
 8001610:	e92d 47f0 	stmdb	sp!, {r4, r5, r6, r7, r8, r9, sl, lr}
 8001614:	f8df a090 	ldr.w	sl, [pc, #144]	; 80016a8 <chSysTimerHandlerI+0x98>
 8001618:	4d22      	ldr	r5, [pc, #136]	; (80016a4 <chSysTimerHandlerI+0x94>)
 800161a:	f8da 3000 	ldr.w	r3, [sl]
 800161e:	b082      	sub	sp, #8
 8001620:	9301      	str	r3, [sp, #4]
 8001622:	f000 f92d 	bl	8001880 <chDbgCheckClassI>
 8001626:	69ab      	ldr	r3, [r5, #24]
 8001628:	f893 2023 	ldrb.w	r2, [r3, #35]	; 0x23
 800162c:	b112      	cbz	r2, 8001634 <chSysTimerHandlerI+0x24>
 800162e:	3a01      	subs	r2, #1
 8001630:	f883 2023 	strb.w	r2, [r3, #35]	; 0x23
 8001634:	6a5a      	ldr	r2, [r3, #36]	; 0x24
 8001636:	f8df 8074 	ldr.w	r8, [pc, #116]	; 80016ac <chSysTimerHandlerI+0x9c>
 800163a:	3201      	adds	r2, #1
 800163c:	625a      	str	r2, [r3, #36]	; 0x24
 800163e:	f000 f91f 	bl	8001880 <chDbgCheckClassI>
 8001642:	6aab      	ldr	r3, [r5, #40]	; 0x28
 8001644:	69ea      	ldr	r2, [r5, #28]
 8001646:	3301      	adds	r3, #1
 8001648:	4542      	cmp	r2, r8
 800164a:	62ab      	str	r3, [r5, #40]	; 0x28
 800164c:	d020      	beq.n	8001690 <chSysTimerHandlerI+0x80>
 800164e:	6893      	ldr	r3, [r2, #8]
 8001650:	3b01      	subs	r3, #1
 8001652:	6093      	str	r3, [r2, #8]
 8001654:	69ec      	ldr	r4, [r5, #28]
 8001656:	68a6      	ldr	r6, [r4, #8]
 8001658:	b9d6      	cbnz	r6, 8001690 <chSysTimerHandlerI+0x80>
 800165a:	f04f 0920 	mov.w	r9, #32
 800165e:	6823      	ldr	r3, [r4, #0]
 8001660:	68e7      	ldr	r7, [r4, #12]
 8001662:	60e6      	str	r6, [r4, #12]
 8001664:	f8c3 8004 	str.w	r8, [r3, #4]
 8001668:	6823      	ldr	r3, [r4, #0]
 800166a:	61eb      	str	r3, [r5, #28]
 800166c:	f000 f898 	bl	80017a0 <_dbg_check_unlock_from_isr>
 8001670:	f000 ff5e 	bl	8002530 <_stats_stop_measure_crit_isr>
 8001674:	f386 8811 	msr	BASEPRI, r6
 8001678:	6920      	ldr	r0, [r4, #16]
 800167a:	47b8      	blx	r7
 800167c:	f389 8811 	msr	BASEPRI, r9
 8001680:	f000 ff3e 	bl	8002500 <_stats_start_measure_crit_isr>
 8001684:	f000 f86c 	bl	8001760 <_dbg_check_lock_from_isr>
 8001688:	69ec      	ldr	r4, [r5, #28]
 800168a:	68a3      	ldr	r3, [r4, #8]
 800168c:	2b00      	cmp	r3, #0
 800168e:	d0e6      	beq.n	800165e <chSysTimerHandlerI+0x4e>
 8001690:	9a01      	ldr	r2, [sp, #4]
 8001692:	f8da 3000 	ldr.w	r3, [sl]
 8001696:	429a      	cmp	r2, r3
 8001698:	d102      	bne.n	80016a0 <chSysTimerHandlerI+0x90>
 800169a:	b002      	add	sp, #8
 800169c:	e8bd 87f0 	ldmia.w	sp!, {r4, r5, r6, r7, r8, r9, sl, pc}
 80016a0:	f7ff fdc6 	bl	8001230 <__stack_chk_fail>
 80016a4:	20001458 	.word	0x20001458
 80016a8:	20000800 	.word	0x20000800
 80016ac:	20001474 	.word	0x20001474

080016b0 <chSysPolledDelayX>:
 80016b0:	b510      	push	{r4, lr}
 80016b2:	4c09      	ldr	r4, [pc, #36]	; (80016d8 <chSysPolledDelayX+0x28>)
 80016b4:	4a09      	ldr	r2, [pc, #36]	; (80016dc <chSysPolledDelayX+0x2c>)
 80016b6:	6823      	ldr	r3, [r4, #0]
 80016b8:	b082      	sub	sp, #8
 80016ba:	9301      	str	r3, [sp, #4]
 80016bc:	6851      	ldr	r1, [r2, #4]
 80016be:	6853      	ldr	r3, [r2, #4]
 80016c0:	1a5b      	subs	r3, r3, r1
 80016c2:	4298      	cmp	r0, r3
 80016c4:	d8fb      	bhi.n	80016be <chSysPolledDelayX+0xe>
 80016c6:	9a01      	ldr	r2, [sp, #4]
 80016c8:	6823      	ldr	r3, [r4, #0]
 80016ca:	429a      	cmp	r2, r3
 80016cc:	d101      	bne.n	80016d2 <chSysPolledDelayX+0x22>
 80016ce:	b002      	add	sp, #8
 80016d0:	bd10      	pop	{r4, pc}
 80016d2:	f7ff fdad 	bl	8001230 <__stack_chk_fail>
 80016d6:	bf00      	nop
 80016d8:	20000800 	.word	0x20000800
 80016dc:	e0001000 	.word	0xe0001000

080016e0 <_dbg_check_lock>:
 80016e0:	b530      	push	{r4, r5, lr}
 80016e2:	4c0b      	ldr	r4, [pc, #44]	; (8001710 <_dbg_check_lock+0x30>)
 80016e4:	4d0b      	ldr	r5, [pc, #44]	; (8001714 <_dbg_check_lock+0x34>)
 80016e6:	6b23      	ldr	r3, [r4, #48]	; 0x30
 80016e8:	682a      	ldr	r2, [r5, #0]
 80016ea:	b083      	sub	sp, #12
 80016ec:	9201      	str	r2, [sp, #4]
 80016ee:	b90b      	cbnz	r3, 80016f4 <_dbg_check_lock+0x14>
 80016f0:	6b63      	ldr	r3, [r4, #52]	; 0x34
 80016f2:	b113      	cbz	r3, 80016fa <_dbg_check_lock+0x1a>
 80016f4:	4808      	ldr	r0, [pc, #32]	; (8001718 <_dbg_check_lock+0x38>)
 80016f6:	f7ff ff7b 	bl	80015f0 <chSysHalt>
 80016fa:	9a01      	ldr	r2, [sp, #4]
 80016fc:	682b      	ldr	r3, [r5, #0]
 80016fe:	2101      	movs	r1, #1
 8001700:	429a      	cmp	r2, r3
 8001702:	6361      	str	r1, [r4, #52]	; 0x34
 8001704:	d101      	bne.n	800170a <_dbg_check_lock+0x2a>
 8001706:	b003      	add	sp, #12
 8001708:	bd30      	pop	{r4, r5, pc}
 800170a:	f7ff fd91 	bl	8001230 <__stack_chk_fail>
 800170e:	bf00      	nop
 8001710:	20001458 	.word	0x20001458
 8001714:	20000800 	.word	0x20000800
 8001718:	08008a00 	.word	0x08008a00
 800171c:	00000000 	.word	0x00000000

08001720 <_dbg_check_unlock>:
 8001720:	b530      	push	{r4, r5, lr}
 8001722:	4c0c      	ldr	r4, [pc, #48]	; (8001754 <_dbg_check_unlock+0x34>)
 8001724:	4d0c      	ldr	r5, [pc, #48]	; (8001758 <_dbg_check_unlock+0x38>)
 8001726:	6b23      	ldr	r3, [r4, #48]	; 0x30
 8001728:	682a      	ldr	r2, [r5, #0]
 800172a:	b083      	sub	sp, #12
 800172c:	9201      	str	r2, [sp, #4]
 800172e:	b953      	cbnz	r3, 8001746 <_dbg_check_unlock+0x26>
 8001730:	6b63      	ldr	r3, [r4, #52]	; 0x34
 8001732:	2b00      	cmp	r3, #0
 8001734:	dd07      	ble.n	8001746 <_dbg_check_unlock+0x26>
 8001736:	9a01      	ldr	r2, [sp, #4]
 8001738:	682b      	ldr	r3, [r5, #0]
 800173a:	2100      	movs	r1, #0
 800173c:	429a      	cmp	r2, r3
 800173e:	6361      	str	r1, [r4, #52]	; 0x34
 8001740:	d105      	bne.n	800174e <_dbg_check_unlock+0x2e>
 8001742:	b003      	add	sp, #12
 8001744:	bd30      	pop	{r4, r5, pc}
 8001746:	4805      	ldr	r0, [pc, #20]	; (800175c <_dbg_check_unlock+0x3c>)
 8001748:	f7ff ff52 	bl	80015f0 <chSysHalt>
 800174c:	e7f3      	b.n	8001736 <_dbg_check_unlock+0x16>
 800174e:	f7ff fd6f 	bl	8001230 <__stack_chk_fail>
 8001752:	bf00      	nop
 8001754:	20001458 	.word	0x20001458
 8001758:	20000800 	.word	0x20000800
 800175c:	08008a20 	.word	0x08008a20

08001760 <_dbg_check_lock_from_isr>:
 8001760:	b530      	push	{r4, r5, lr}
 8001762:	4c0b      	ldr	r4, [pc, #44]	; (8001790 <_dbg_check_lock_from_isr+0x30>)
 8001764:	4d0b      	ldr	r5, [pc, #44]	; (8001794 <_dbg_check_lock_from_isr+0x34>)
 8001766:	6b23      	ldr	r3, [r4, #48]	; 0x30
 8001768:	682a      	ldr	r2, [r5, #0]
 800176a:	b083      	sub	sp, #12
 800176c:	2b00      	cmp	r3, #0
 800176e:	9201      	str	r2, [sp, #4]
 8001770:	dd01      	ble.n	8001776 <_dbg_check_lock_from_isr+0x16>
 8001772:	6b63      	ldr	r3, [r4, #52]	; 0x34
 8001774:	b113      	cbz	r3, 800177c <_dbg_check_lock_from_isr+0x1c>
 8001776:	4808      	ldr	r0, [pc, #32]	; (8001798 <_dbg_check_lock_from_isr+0x38>)
 8001778:	f7ff ff3a 	bl	80015f0 <chSysHalt>
 800177c:	9a01      	ldr	r2, [sp, #4]
 800177e:	682b      	ldr	r3, [r5, #0]
 8001780:	2101      	movs	r1, #1
 8001782:	429a      	cmp	r2, r3
 8001784:	6361      	str	r1, [r4, #52]	; 0x34
 8001786:	d101      	bne.n	800178c <_dbg_check_lock_from_isr+0x2c>
 8001788:	b003      	add	sp, #12
 800178a:	bd30      	pop	{r4, r5, pc}
 800178c:	f7ff fd50 	bl	8001230 <__stack_chk_fail>
 8001790:	20001458 	.word	0x20001458
 8001794:	20000800 	.word	0x20000800
 8001798:	08008a10 	.word	0x08008a10
 800179c:	00000000 	.word	0x00000000

080017a0 <_dbg_check_unlock_from_isr>:
 80017a0:	b530      	push	{r4, r5, lr}
 80017a2:	4c0c      	ldr	r4, [pc, #48]	; (80017d4 <_dbg_check_unlock_from_isr+0x34>)
 80017a4:	4d0c      	ldr	r5, [pc, #48]	; (80017d8 <_dbg_check_unlock_from_isr+0x38>)
 80017a6:	6b23      	ldr	r3, [r4, #48]	; 0x30
 80017a8:	682a      	ldr	r2, [r5, #0]
 80017aa:	b083      	sub	sp, #12
 80017ac:	2b00      	cmp	r3, #0
 80017ae:	9201      	str	r2, [sp, #4]
 80017b0:	dd0a      	ble.n	80017c8 <_dbg_check_unlock_from_isr+0x28>
 80017b2:	6b63      	ldr	r3, [r4, #52]	; 0x34
 80017b4:	2b00      	cmp	r3, #0
 80017b6:	dd07      	ble.n	80017c8 <_dbg_check_unlock_from_isr+0x28>
 80017b8:	9a01      	ldr	r2, [sp, #4]
 80017ba:	682b      	ldr	r3, [r5, #0]
 80017bc:	2100      	movs	r1, #0
 80017be:	429a      	cmp	r2, r3
 80017c0:	6361      	str	r1, [r4, #52]	; 0x34
 80017c2:	d105      	bne.n	80017d0 <_dbg_check_unlock_from_isr+0x30>
 80017c4:	b003      	add	sp, #12
 80017c6:	bd30      	pop	{r4, r5, pc}
 80017c8:	4804      	ldr	r0, [pc, #16]	; (80017dc <_dbg_check_unlock_from_isr+0x3c>)
 80017ca:	f7ff ff11 	bl	80015f0 <chSysHalt>
 80017ce:	e7f3      	b.n	80017b8 <_dbg_check_unlock_from_isr+0x18>
 80017d0:	f7ff fd2e 	bl	8001230 <__stack_chk_fail>
 80017d4:	20001458 	.word	0x20001458
 80017d8:	20000800 	.word	0x20000800
 80017dc:	08008a30 	.word	0x08008a30

080017e0 <_dbg_check_enter_isr>:
 80017e0:	b530      	push	{r4, r5, lr}
 80017e2:	4d0f      	ldr	r5, [pc, #60]	; (8001820 <_dbg_check_enter_isr+0x40>)
 80017e4:	b083      	sub	sp, #12
 80017e6:	682b      	ldr	r3, [r5, #0]
 80017e8:	9301      	str	r3, [sp, #4]
 80017ea:	2320      	movs	r3, #32
 80017ec:	f383 8811 	msr	BASEPRI, r3
 80017f0:	4c0c      	ldr	r4, [pc, #48]	; (8001824 <_dbg_check_enter_isr+0x44>)
 80017f2:	6b23      	ldr	r3, [r4, #48]	; 0x30
 80017f4:	2b00      	cmp	r3, #0
 80017f6:	db01      	blt.n	80017fc <_dbg_check_enter_isr+0x1c>
 80017f8:	6b62      	ldr	r2, [r4, #52]	; 0x34
 80017fa:	b11a      	cbz	r2, 8001804 <_dbg_check_enter_isr+0x24>
 80017fc:	480a      	ldr	r0, [pc, #40]	; (8001828 <_dbg_check_enter_isr+0x48>)
 80017fe:	f7ff fef7 	bl	80015f0 <chSysHalt>
 8001802:	6b23      	ldr	r3, [r4, #48]	; 0x30
 8001804:	3301      	adds	r3, #1
 8001806:	6323      	str	r3, [r4, #48]	; 0x30
 8001808:	2300      	movs	r3, #0
 800180a:	f383 8811 	msr	BASEPRI, r3
 800180e:	9a01      	ldr	r2, [sp, #4]
 8001810:	682b      	ldr	r3, [r5, #0]
 8001812:	429a      	cmp	r2, r3
 8001814:	d101      	bne.n	800181a <_dbg_check_enter_isr+0x3a>
 8001816:	b003      	add	sp, #12
 8001818:	bd30      	pop	{r4, r5, pc}
 800181a:	f7ff fd09 	bl	8001230 <__stack_chk_fail>
 800181e:	bf00      	nop
 8001820:	20000800 	.word	0x20000800
 8001824:	20001458 	.word	0x20001458
 8001828:	080089e0 	.word	0x080089e0
 800182c:	00000000 	.word	0x00000000

08001830 <_dbg_check_leave_isr>:
 8001830:	b530      	push	{r4, r5, lr}
 8001832:	4d0f      	ldr	r5, [pc, #60]	; (8001870 <_dbg_check_leave_isr+0x40>)
 8001834:	b083      	sub	sp, #12
 8001836:	682b      	ldr	r3, [r5, #0]
 8001838:	9301      	str	r3, [sp, #4]
 800183a:	2320      	movs	r3, #32
 800183c:	f383 8811 	msr	BASEPRI, r3
 8001840:	4c0c      	ldr	r4, [pc, #48]	; (8001874 <_dbg_check_leave_isr+0x44>)
 8001842:	6b23      	ldr	r3, [r4, #48]	; 0x30
 8001844:	2b00      	cmp	r3, #0
 8001846:	dd01      	ble.n	800184c <_dbg_check_leave_isr+0x1c>
 8001848:	6b62      	ldr	r2, [r4, #52]	; 0x34
 800184a:	b11a      	cbz	r2, 8001854 <_dbg_check_leave_isr+0x24>
 800184c:	480a      	ldr	r0, [pc, #40]	; (8001878 <_dbg_check_leave_isr+0x48>)
 800184e:	f7ff fecf 	bl	80015f0 <chSysHalt>
 8001852:	6b23      	ldr	r3, [r4, #48]	; 0x30
 8001854:	3b01      	subs	r3, #1
 8001856:	6323      	str	r3, [r4, #48]	; 0x30
 8001858:	2300      	movs	r3, #0
 800185a:	f383 8811 	msr	BASEPRI, r3
 800185e:	9a01      	ldr	r2, [sp, #4]
 8001860:	682b      	ldr	r3, [r5, #0]
 8001862:	429a      	cmp	r2, r3
 8001864:	d101      	bne.n	800186a <_dbg_check_leave_isr+0x3a>
 8001866:	b003      	add	sp, #12
 8001868:	bd30      	pop	{r4, r5, pc}
 800186a:	f7ff fce1 	bl	8001230 <__stack_chk_fail>
 800186e:	bf00      	nop
 8001870:	20000800 	.word	0x20000800
 8001874:	20001458 	.word	0x20001458
 8001878:	080089f0 	.word	0x080089f0
 800187c:	00000000 	.word	0x00000000

08001880 <chDbgCheckClassI>:
 8001880:	b500      	push	{lr}
 8001882:	4a0f      	ldr	r2, [pc, #60]	; (80018c0 <chDbgCheckClassI+0x40>)
 8001884:	4b0f      	ldr	r3, [pc, #60]	; (80018c4 <chDbgCheckClassI+0x44>)
 8001886:	6b11      	ldr	r1, [r2, #48]	; 0x30
 8001888:	6818      	ldr	r0, [r3, #0]
 800188a:	b083      	sub	sp, #12
 800188c:	2900      	cmp	r1, #0
 800188e:	9001      	str	r0, [sp, #4]
 8001890:	db09      	blt.n	80018a6 <chDbgCheckClassI+0x26>
 8001892:	6b52      	ldr	r2, [r2, #52]	; 0x34
 8001894:	2a00      	cmp	r2, #0
 8001896:	dd06      	ble.n	80018a6 <chDbgCheckClassI+0x26>
 8001898:	9a01      	ldr	r2, [sp, #4]
 800189a:	681b      	ldr	r3, [r3, #0]
 800189c:	429a      	cmp	r2, r3
 800189e:	d10c      	bne.n	80018ba <chDbgCheckClassI+0x3a>
 80018a0:	b003      	add	sp, #12
 80018a2:	f85d fb04 	ldr.w	pc, [sp], #4
 80018a6:	9a01      	ldr	r2, [sp, #4]
 80018a8:	681b      	ldr	r3, [r3, #0]
 80018aa:	429a      	cmp	r2, r3
 80018ac:	d105      	bne.n	80018ba <chDbgCheckClassI+0x3a>
 80018ae:	4806      	ldr	r0, [pc, #24]	; (80018c8 <chDbgCheckClassI+0x48>)
 80018b0:	b003      	add	sp, #12
 80018b2:	f85d eb04 	ldr.w	lr, [sp], #4
 80018b6:	f7ff be9b 	b.w	80015f0 <chSysHalt>
 80018ba:	f7ff fcb9 	bl	8001230 <__stack_chk_fail>
 80018be:	bf00      	nop
 80018c0:	20001458 	.word	0x20001458
 80018c4:	20000800 	.word	0x20000800
 80018c8:	08008a40 	.word	0x08008a40
 80018cc:	00000000 	.word	0x00000000

080018d0 <chDbgCheckClassS>:
 80018d0:	b500      	push	{lr}
 80018d2:	4a0e      	ldr	r2, [pc, #56]	; (800190c <chDbgCheckClassS+0x3c>)
 80018d4:	4b0e      	ldr	r3, [pc, #56]	; (8001910 <chDbgCheckClassS+0x40>)
 80018d6:	6b11      	ldr	r1, [r2, #48]	; 0x30
 80018d8:	6818      	ldr	r0, [r3, #0]
 80018da:	b083      	sub	sp, #12
 80018dc:	9001      	str	r0, [sp, #4]
 80018de:	b949      	cbnz	r1, 80018f4 <chDbgCheckClassS+0x24>
 80018e0:	6b52      	ldr	r2, [r2, #52]	; 0x34
 80018e2:	2a00      	cmp	r2, #0
 80018e4:	dd06      	ble.n	80018f4 <chDbgCheckClassS+0x24>
 80018e6:	9a01      	ldr	r2, [sp, #4]
 80018e8:	681b      	ldr	r3, [r3, #0]
 80018ea:	429a      	cmp	r2, r3
 80018ec:	d10c      	bne.n	8001908 <chDbgCheckClassS+0x38>
 80018ee:	b003      	add	sp, #12
 80018f0:	f85d fb04 	ldr.w	pc, [sp], #4
 80018f4:	9a01      	ldr	r2, [sp, #4]
 80018f6:	681b      	ldr	r3, [r3, #0]
 80018f8:	429a      	cmp	r2, r3
 80018fa:	d105      	bne.n	8001908 <chDbgCheckClassS+0x38>
 80018fc:	4805      	ldr	r0, [pc, #20]	; (8001914 <chDbgCheckClassS+0x44>)
 80018fe:	b003      	add	sp, #12
 8001900:	f85d eb04 	ldr.w	lr, [sp], #4
 8001904:	f7ff be74 	b.w	80015f0 <chSysHalt>
 8001908:	f7ff fc92 	bl	8001230 <__stack_chk_fail>
 800190c:	20001458 	.word	0x20001458
 8001910:	20000800 	.word	0x20000800
 8001914:	08008a50 	.word	0x08008a50
	...

08001920 <_dbg_trace>:
 8001920:	b510      	push	{r4, lr}
 8001922:	4911      	ldr	r1, [pc, #68]	; (8001968 <_dbg_trace+0x48>)
 8001924:	4b11      	ldr	r3, [pc, #68]	; (800196c <_dbg_trace+0x4c>)
 8001926:	680a      	ldr	r2, [r1, #0]
 8001928:	b082      	sub	sp, #8
 800192a:	9201      	str	r2, [sp, #4]
 800192c:	6bda      	ldr	r2, [r3, #60]	; 0x3c
 800192e:	6a9c      	ldr	r4, [r3, #40]	; 0x28
 8001930:	6014      	str	r4, [r2, #0]
 8001932:	6bda      	ldr	r2, [r3, #60]	; 0x3c
 8001934:	699c      	ldr	r4, [r3, #24]
 8001936:	6054      	str	r4, [r2, #4]
 8001938:	6bda      	ldr	r2, [r3, #60]	; 0x3c
 800193a:	6a84      	ldr	r4, [r0, #40]	; 0x28
 800193c:	6094      	str	r4, [r2, #8]
 800193e:	6bda      	ldr	r2, [r3, #60]	; 0x3c
 8001940:	f890 0020 	ldrb.w	r0, [r0, #32]
 8001944:	7310      	strb	r0, [r2, #12]
 8001946:	6bda      	ldr	r2, [r3, #60]	; 0x3c
 8001948:	f503 6088 	add.w	r0, r3, #1088	; 0x440
 800194c:	3210      	adds	r2, #16
 800194e:	4282      	cmp	r2, r0
 8001950:	bf28      	it	cs
 8001952:	f103 0240 	addcs.w	r2, r3, #64	; 0x40
 8001956:	63da      	str	r2, [r3, #60]	; 0x3c
 8001958:	9a01      	ldr	r2, [sp, #4]
 800195a:	680b      	ldr	r3, [r1, #0]
 800195c:	429a      	cmp	r2, r3
 800195e:	d101      	bne.n	8001964 <_dbg_trace+0x44>
 8001960:	b002      	add	sp, #8
 8001962:	bd10      	pop	{r4, pc}
 8001964:	f7ff fc64 	bl	8001230 <__stack_chk_fail>
 8001968:	20000800 	.word	0x20000800
 800196c:	20001458 	.word	0x20001458

08001970 <chVTDoSetI>:
 8001970:	e92d 41f0 	stmdb	sp!, {r4, r5, r6, r7, r8, lr}
 8001974:	4e18      	ldr	r6, [pc, #96]	; (80019d8 <chVTDoSetI+0x68>)
 8001976:	b082      	sub	sp, #8
 8001978:	4605      	mov	r5, r0
 800197a:	6830      	ldr	r0, [r6, #0]
 800197c:	9001      	str	r0, [sp, #4]
 800197e:	460c      	mov	r4, r1
 8001980:	4617      	mov	r7, r2
 8001982:	4698      	mov	r8, r3
 8001984:	f7ff ff7c 	bl	8001880 <chDbgCheckClassI>
 8001988:	b305      	cbz	r5, 80019cc <chVTDoSetI+0x5c>
 800198a:	b1ff      	cbz	r7, 80019cc <chVTDoSetI+0x5c>
 800198c:	b1f4      	cbz	r4, 80019cc <chVTDoSetI+0x5c>
 800198e:	e9c5 7803 	strd	r7, r8, [r5, #12]
 8001992:	4812      	ldr	r0, [pc, #72]	; (80019dc <chVTDoSetI+0x6c>)
 8001994:	69c3      	ldr	r3, [r0, #28]
 8001996:	689a      	ldr	r2, [r3, #8]
 8001998:	4294      	cmp	r4, r2
 800199a:	d904      	bls.n	80019a6 <chVTDoSetI+0x36>
 800199c:	681b      	ldr	r3, [r3, #0]
 800199e:	1aa4      	subs	r4, r4, r2
 80019a0:	689a      	ldr	r2, [r3, #8]
 80019a2:	42a2      	cmp	r2, r4
 80019a4:	d3fa      	bcc.n	800199c <chVTDoSetI+0x2c>
 80019a6:	602b      	str	r3, [r5, #0]
 80019a8:	685a      	ldr	r2, [r3, #4]
 80019aa:	606a      	str	r2, [r5, #4]
 80019ac:	6015      	str	r5, [r2, #0]
 80019ae:	605d      	str	r5, [r3, #4]
 80019b0:	60ac      	str	r4, [r5, #8]
 80019b2:	6899      	ldr	r1, [r3, #8]
 80019b4:	9d01      	ldr	r5, [sp, #4]
 80019b6:	6832      	ldr	r2, [r6, #0]
 80019b8:	1b09      	subs	r1, r1, r4
 80019ba:	4295      	cmp	r5, r2
 80019bc:	f04f 34ff 	mov.w	r4, #4294967295
 80019c0:	6099      	str	r1, [r3, #8]
 80019c2:	6244      	str	r4, [r0, #36]	; 0x24
 80019c4:	d106      	bne.n	80019d4 <chVTDoSetI+0x64>
 80019c6:	b002      	add	sp, #8
 80019c8:	e8bd 81f0 	ldmia.w	sp!, {r4, r5, r6, r7, r8, pc}
 80019cc:	4804      	ldr	r0, [pc, #16]	; (80019e0 <chVTDoSetI+0x70>)
 80019ce:	f7ff fe0f 	bl	80015f0 <chSysHalt>
 80019d2:	e7dc      	b.n	800198e <chVTDoSetI+0x1e>
 80019d4:	f7ff fc2c 	bl	8001230 <__stack_chk_fail>
 80019d8:	20000800 	.word	0x20000800
 80019dc:	20001458 	.word	0x20001458
 80019e0:	08008a60 	.word	0x08008a60
	...

080019f0 <chVTDoResetI>:
 80019f0:	b530      	push	{r4, r5, lr}
 80019f2:	4d16      	ldr	r5, [pc, #88]	; (8001a4c <chVTDoResetI+0x5c>)
 80019f4:	b083      	sub	sp, #12
 80019f6:	4604      	mov	r4, r0
 80019f8:	682b      	ldr	r3, [r5, #0]
 80019fa:	9301      	str	r3, [sp, #4]
 80019fc:	f7ff ff40 	bl	8001880 <chDbgCheckClassI>
 8001a00:	b1ec      	cbz	r4, 8001a3e <chVTDoResetI+0x4e>
 8001a02:	68e3      	ldr	r3, [r4, #12]
 8001a04:	b1bb      	cbz	r3, 8001a36 <chVTDoResetI+0x46>
 8001a06:	6822      	ldr	r2, [r4, #0]
 8001a08:	68a0      	ldr	r0, [r4, #8]
 8001a0a:	6893      	ldr	r3, [r2, #8]
 8001a0c:	9901      	ldr	r1, [sp, #4]
 8001a0e:	4403      	add	r3, r0
 8001a10:	6093      	str	r3, [r2, #8]
 8001a12:	e9d4 2300 	ldrd	r2, r3, [r4]
 8001a16:	601a      	str	r2, [r3, #0]
 8001a18:	6820      	ldr	r0, [r4, #0]
 8001a1a:	682b      	ldr	r3, [r5, #0]
 8001a1c:	4a0c      	ldr	r2, [pc, #48]	; (8001a50 <chVTDoResetI+0x60>)
 8001a1e:	6865      	ldr	r5, [r4, #4]
 8001a20:	6045      	str	r5, [r0, #4]
 8001a22:	4299      	cmp	r1, r3
 8001a24:	f04f 0500 	mov.w	r5, #0
 8001a28:	f04f 30ff 	mov.w	r0, #4294967295
 8001a2c:	60e5      	str	r5, [r4, #12]
 8001a2e:	6250      	str	r0, [r2, #36]	; 0x24
 8001a30:	d109      	bne.n	8001a46 <chVTDoResetI+0x56>
 8001a32:	b003      	add	sp, #12
 8001a34:	bd30      	pop	{r4, r5, pc}
 8001a36:	4807      	ldr	r0, [pc, #28]	; (8001a54 <chVTDoResetI+0x64>)
 8001a38:	f7ff fdda 	bl	80015f0 <chSysHalt>
 8001a3c:	e7e3      	b.n	8001a06 <chVTDoResetI+0x16>
 8001a3e:	4805      	ldr	r0, [pc, #20]	; (8001a54 <chVTDoResetI+0x64>)
 8001a40:	f7ff fdd6 	bl	80015f0 <chSysHalt>
 8001a44:	e7dd      	b.n	8001a02 <chVTDoResetI+0x12>
 8001a46:	f7ff fbf3 	bl	8001230 <__stack_chk_fail>
 8001a4a:	bf00      	nop
 8001a4c:	20000800 	.word	0x20000800
 8001a50:	20001458 	.word	0x20001458
 8001a54:	08008a70 	.word	0x08008a70
	...

08001a60 <chSchReadyI>:
 8001a60:	b530      	push	{r4, r5, lr}
 8001a62:	4d16      	ldr	r5, [pc, #88]	; (8001abc <chSchReadyI+0x5c>)
 8001a64:	b083      	sub	sp, #12
 8001a66:	4604      	mov	r4, r0
 8001a68:	682b      	ldr	r3, [r5, #0]
 8001a6a:	9301      	str	r3, [sp, #4]
 8001a6c:	f7ff ff08 	bl	8001880 <chDbgCheckClassI>
 8001a70:	b1ec      	cbz	r4, 8001aae <chSchReadyI+0x4e>
 8001a72:	f894 3020 	ldrb.w	r3, [r4, #32]
 8001a76:	b1b3      	cbz	r3, 8001aa6 <chSchReadyI+0x46>
 8001a78:	2b0f      	cmp	r3, #15
 8001a7a:	d014      	beq.n	8001aa6 <chSchReadyI+0x46>
 8001a7c:	2200      	movs	r2, #0
 8001a7e:	68a1      	ldr	r1, [r4, #8]
 8001a80:	4b0f      	ldr	r3, [pc, #60]	; (8001ac0 <chSchReadyI+0x60>)
 8001a82:	f884 2020 	strb.w	r2, [r4, #32]
 8001a86:	681b      	ldr	r3, [r3, #0]
 8001a88:	689a      	ldr	r2, [r3, #8]
 8001a8a:	428a      	cmp	r2, r1
 8001a8c:	d2fb      	bcs.n	8001a86 <chSchReadyI+0x26>
 8001a8e:	6023      	str	r3, [r4, #0]
 8001a90:	685a      	ldr	r2, [r3, #4]
 8001a92:	6062      	str	r2, [r4, #4]
 8001a94:	6014      	str	r4, [r2, #0]
 8001a96:	9901      	ldr	r1, [sp, #4]
 8001a98:	682a      	ldr	r2, [r5, #0]
 8001a9a:	605c      	str	r4, [r3, #4]
 8001a9c:	4291      	cmp	r1, r2
 8001a9e:	4620      	mov	r0, r4
 8001aa0:	d109      	bne.n	8001ab6 <chSchReadyI+0x56>
 8001aa2:	b003      	add	sp, #12
 8001aa4:	bd30      	pop	{r4, r5, pc}
 8001aa6:	4807      	ldr	r0, [pc, #28]	; (8001ac4 <chSchReadyI+0x64>)
 8001aa8:	f7ff fda2 	bl	80015f0 <chSysHalt>
 8001aac:	e7e6      	b.n	8001a7c <chSchReadyI+0x1c>
 8001aae:	4805      	ldr	r0, [pc, #20]	; (8001ac4 <chSchReadyI+0x64>)
 8001ab0:	f7ff fd9e 	bl	80015f0 <chSysHalt>
 8001ab4:	e7dd      	b.n	8001a72 <chSchReadyI+0x12>
 8001ab6:	f7ff fbbb 	bl	8001230 <__stack_chk_fail>
 8001aba:	bf00      	nop
 8001abc:	20000800 	.word	0x20000800
 8001ac0:	20001458 	.word	0x20001458
 8001ac4:	08008a80 	.word	0x08008a80
	...

08001ad0 <wakeup>:
 8001ad0:	b570      	push	{r4, r5, r6, lr}
 8001ad2:	4d20      	ldr	r5, [pc, #128]	; (8001b54 <wakeup+0x84>)
 8001ad4:	b082      	sub	sp, #8
 8001ad6:	682b      	ldr	r3, [r5, #0]
 8001ad8:	9301      	str	r3, [sp, #4]
 8001ada:	4604      	mov	r4, r0
 8001adc:	2320      	movs	r3, #32
 8001ade:	f383 8811 	msr	BASEPRI, r3
 8001ae2:	f000 fd0d 	bl	8002500 <_stats_start_measure_crit_isr>
 8001ae6:	f7ff fe3b 	bl	8001760 <_dbg_check_lock_from_isr>
 8001aea:	f894 3020 	ldrb.w	r3, [r4, #32]
 8001aee:	2b07      	cmp	r3, #7
 8001af0:	d811      	bhi.n	8001b16 <wakeup+0x46>
 8001af2:	e8df f003 	tbb	[pc, r3]
 8001af6:	1016      	.short	0x1016
 8001af8:	040a2310 	.word	0x040a2310
 8001afc:	0a10      	.short	0x0a10
 8001afe:	6aa6      	ldr	r6, [r4, #40]	; 0x28
 8001b00:	f7ff febe 	bl	8001880 <chDbgCheckClassI>
 8001b04:	68b3      	ldr	r3, [r6, #8]
 8001b06:	3301      	adds	r3, #1
 8001b08:	60b3      	str	r3, [r6, #8]
 8001b0a:	e9d4 2300 	ldrd	r2, r3, [r4]
 8001b0e:	601a      	str	r2, [r3, #0]
 8001b10:	e9d4 3200 	ldrd	r3, r2, [r4]
 8001b14:	605a      	str	r2, [r3, #4]
 8001b16:	f04f 33ff 	mov.w	r3, #4294967295
 8001b1a:	62a3      	str	r3, [r4, #40]	; 0x28
 8001b1c:	4620      	mov	r0, r4
 8001b1e:	f7ff ff9f 	bl	8001a60 <chSchReadyI>
 8001b22:	f7ff fe3d 	bl	80017a0 <_dbg_check_unlock_from_isr>
 8001b26:	f000 fd03 	bl	8002530 <_stats_stop_measure_crit_isr>
 8001b2a:	2300      	movs	r3, #0
 8001b2c:	f383 8811 	msr	BASEPRI, r3
 8001b30:	9a01      	ldr	r2, [sp, #4]
 8001b32:	682b      	ldr	r3, [r5, #0]
 8001b34:	429a      	cmp	r2, r3
 8001b36:	d10b      	bne.n	8001b50 <wakeup+0x80>
 8001b38:	b002      	add	sp, #8
 8001b3a:	bd70      	pop	{r4, r5, r6, pc}
 8001b3c:	6aa3      	ldr	r3, [r4, #40]	; 0x28
 8001b3e:	2200      	movs	r2, #0
 8001b40:	601a      	str	r2, [r3, #0]
 8001b42:	f04f 33ff 	mov.w	r3, #4294967295
 8001b46:	62a3      	str	r3, [r4, #40]	; 0x28
 8001b48:	4620      	mov	r0, r4
 8001b4a:	f7ff ff89 	bl	8001a60 <chSchReadyI>
 8001b4e:	e7e8      	b.n	8001b22 <wakeup+0x52>
 8001b50:	f7ff fb6e 	bl	8001230 <__stack_chk_fail>
 8001b54:	20000800 	.word	0x20000800
	...

08001b60 <chSchGoSleepS>:
 8001b60:	b5f0      	push	{r4, r5, r6, r7, lr}
 8001b62:	4e19      	ldr	r6, [pc, #100]	; (8001bc8 <chSchGoSleepS+0x68>)
 8001b64:	4c19      	ldr	r4, [pc, #100]	; (8001bcc <chSchGoSleepS+0x6c>)
 8001b66:	6833      	ldr	r3, [r6, #0]
 8001b68:	b083      	sub	sp, #12
 8001b6a:	4607      	mov	r7, r0
 8001b6c:	9301      	str	r3, [sp, #4]
 8001b6e:	f7ff feaf 	bl	80018d0 <chDbgCheckClassS>
 8001b72:	69a5      	ldr	r5, [r4, #24]
 8001b74:	6823      	ldr	r3, [r4, #0]
 8001b76:	f885 7020 	strb.w	r7, [r5, #32]
 8001b7a:	2214      	movs	r2, #20
 8001b7c:	f885 2023 	strb.w	r2, [r5, #35]	; 0x23
 8001b80:	681a      	ldr	r2, [r3, #0]
 8001b82:	6022      	str	r2, [r4, #0]
 8001b84:	2101      	movs	r1, #1
 8001b86:	6054      	str	r4, [r2, #4]
 8001b88:	4628      	mov	r0, r5
 8001b8a:	f883 1020 	strb.w	r1, [r3, #32]
 8001b8e:	61a3      	str	r3, [r4, #24]
 8001b90:	f7ff fec6 	bl	8001920 <_dbg_trace>
 8001b94:	4629      	mov	r1, r5
 8001b96:	69a0      	ldr	r0, [r4, #24]
 8001b98:	f000 fc62 	bl	8002460 <_stats_ctxswc>
 8001b9c:	f3ef 8309 	mrs	r3, PSP
 8001ba0:	69ea      	ldr	r2, [r5, #28]
 8001ba2:	3b64      	subs	r3, #100	; 0x64
 8001ba4:	429a      	cmp	r2, r3
 8001ba6:	d902      	bls.n	8001bae <chSchGoSleepS+0x4e>
 8001ba8:	4809      	ldr	r0, [pc, #36]	; (8001bd0 <chSchGoSleepS+0x70>)
 8001baa:	f7ff fd21 	bl	80015f0 <chSysHalt>
 8001bae:	9a01      	ldr	r2, [sp, #4]
 8001bb0:	6833      	ldr	r3, [r6, #0]
 8001bb2:	429a      	cmp	r2, r3
 8001bb4:	d106      	bne.n	8001bc4 <chSchGoSleepS+0x64>
 8001bb6:	69a0      	ldr	r0, [r4, #24]
 8001bb8:	4629      	mov	r1, r5
 8001bba:	b003      	add	sp, #12
 8001bbc:	e8bd 40f0 	ldmia.w	sp!, {r4, r5, r6, r7, lr}
 8001bc0:	f7fe bb76 	b.w	80002b0 <_port_switch>
 8001bc4:	f7ff fb34 	bl	8001230 <__stack_chk_fail>
 8001bc8:	20000800 	.word	0x20000800
 8001bcc:	20001458 	.word	0x20001458
 8001bd0:	08008a90 	.word	0x08008a90
	...

08001be0 <chSchGoSleepTimeoutS>:
 8001be0:	b5f0      	push	{r4, r5, r6, r7, lr}
 8001be2:	4c15      	ldr	r4, [pc, #84]	; (8001c38 <chSchGoSleepTimeoutS+0x58>)
 8001be4:	b087      	sub	sp, #28
 8001be6:	6823      	ldr	r3, [r4, #0]
 8001be8:	9305      	str	r3, [sp, #20]
 8001bea:	460e      	mov	r6, r1
 8001bec:	4607      	mov	r7, r0
 8001bee:	f7ff fe6f 	bl	80018d0 <chDbgCheckClassS>
 8001bf2:	1c73      	adds	r3, r6, #1
 8001bf4:	d018      	beq.n	8001c28 <chSchGoSleepTimeoutS+0x48>
 8001bf6:	4d11      	ldr	r5, [pc, #68]	; (8001c3c <chSchGoSleepTimeoutS+0x5c>)
 8001bf8:	4a11      	ldr	r2, [pc, #68]	; (8001c40 <chSchGoSleepTimeoutS+0x60>)
 8001bfa:	69ab      	ldr	r3, [r5, #24]
 8001bfc:	4631      	mov	r1, r6
 8001bfe:	4668      	mov	r0, sp
 8001c00:	f7ff feb6 	bl	8001970 <chVTDoSetI>
 8001c04:	4638      	mov	r0, r7
 8001c06:	f7ff ffab 	bl	8001b60 <chSchGoSleepS>
 8001c0a:	f7ff fe39 	bl	8001880 <chDbgCheckClassI>
 8001c0e:	9b03      	ldr	r3, [sp, #12]
 8001c10:	b113      	cbz	r3, 8001c18 <chSchGoSleepTimeoutS+0x38>
 8001c12:	4668      	mov	r0, sp
 8001c14:	f7ff feec 	bl	80019f0 <chVTDoResetI>
 8001c18:	9a05      	ldr	r2, [sp, #20]
 8001c1a:	6823      	ldr	r3, [r4, #0]
 8001c1c:	69a9      	ldr	r1, [r5, #24]
 8001c1e:	429a      	cmp	r2, r3
 8001c20:	6a88      	ldr	r0, [r1, #40]	; 0x28
 8001c22:	d106      	bne.n	8001c32 <chSchGoSleepTimeoutS+0x52>
 8001c24:	b007      	add	sp, #28
 8001c26:	bdf0      	pop	{r4, r5, r6, r7, pc}
 8001c28:	4638      	mov	r0, r7
 8001c2a:	f7ff ff99 	bl	8001b60 <chSchGoSleepS>
 8001c2e:	4d03      	ldr	r5, [pc, #12]	; (8001c3c <chSchGoSleepTimeoutS+0x5c>)
 8001c30:	e7f2      	b.n	8001c18 <chSchGoSleepTimeoutS+0x38>
 8001c32:	f7ff fafd 	bl	8001230 <__stack_chk_fail>
 8001c36:	bf00      	nop
 8001c38:	20000800 	.word	0x20000800
 8001c3c:	20001458 	.word	0x20001458
 8001c40:	08001ad1 	.word	0x08001ad1
	...

08001c50 <chSchWakeupS>:
 8001c50:	b5f0      	push	{r4, r5, r6, r7, lr}
 8001c52:	4d1e      	ldr	r5, [pc, #120]	; (8001ccc <chSchWakeupS+0x7c>)
 8001c54:	4e1e      	ldr	r6, [pc, #120]	; (8001cd0 <chSchWakeupS+0x80>)
 8001c56:	682b      	ldr	r3, [r5, #0]
 8001c58:	b083      	sub	sp, #12
 8001c5a:	4604      	mov	r4, r0
 8001c5c:	9301      	str	r3, [sp, #4]
 8001c5e:	460f      	mov	r7, r1
 8001c60:	f7ff fe36 	bl	80018d0 <chDbgCheckClassS>
 8001c64:	69b0      	ldr	r0, [r6, #24]
 8001c66:	62a7      	str	r7, [r4, #40]	; 0x28
 8001c68:	6883      	ldr	r3, [r0, #8]
 8001c6a:	68a2      	ldr	r2, [r4, #8]
 8001c6c:	429a      	cmp	r2, r3
 8001c6e:	d91d      	bls.n	8001cac <chSchWakeupS+0x5c>
 8001c70:	f7ff fef6 	bl	8001a60 <chSchReadyI>
 8001c74:	2301      	movs	r3, #1
 8001c76:	4607      	mov	r7, r0
 8001c78:	f884 3020 	strb.w	r3, [r4, #32]
 8001c7c:	61b4      	str	r4, [r6, #24]
 8001c7e:	f7ff fe4f 	bl	8001920 <_dbg_trace>
 8001c82:	4639      	mov	r1, r7
 8001c84:	4620      	mov	r0, r4
 8001c86:	f000 fbeb 	bl	8002460 <_stats_ctxswc>
 8001c8a:	f3ef 8309 	mrs	r3, PSP
 8001c8e:	69fa      	ldr	r2, [r7, #28]
 8001c90:	3b64      	subs	r3, #100	; 0x64
 8001c92:	429a      	cmp	r2, r3
 8001c94:	d814      	bhi.n	8001cc0 <chSchWakeupS+0x70>
 8001c96:	9a01      	ldr	r2, [sp, #4]
 8001c98:	682b      	ldr	r3, [r5, #0]
 8001c9a:	429a      	cmp	r2, r3
 8001c9c:	d114      	bne.n	8001cc8 <chSchWakeupS+0x78>
 8001c9e:	4639      	mov	r1, r7
 8001ca0:	4620      	mov	r0, r4
 8001ca2:	b003      	add	sp, #12
 8001ca4:	e8bd 40f0 	ldmia.w	sp!, {r4, r5, r6, r7, lr}
 8001ca8:	f7fe bb02 	b.w	80002b0 <_port_switch>
 8001cac:	9a01      	ldr	r2, [sp, #4]
 8001cae:	682b      	ldr	r3, [r5, #0]
 8001cb0:	429a      	cmp	r2, r3
 8001cb2:	d109      	bne.n	8001cc8 <chSchWakeupS+0x78>
 8001cb4:	4620      	mov	r0, r4
 8001cb6:	b003      	add	sp, #12
 8001cb8:	e8bd 40f0 	ldmia.w	sp!, {r4, r5, r6, r7, lr}
 8001cbc:	f7ff bed0 	b.w	8001a60 <chSchReadyI>
 8001cc0:	4804      	ldr	r0, [pc, #16]	; (8001cd4 <chSchWakeupS+0x84>)
 8001cc2:	f7ff fc95 	bl	80015f0 <chSysHalt>
 8001cc6:	e7e6      	b.n	8001c96 <chSchWakeupS+0x46>
 8001cc8:	f7ff fab2 	bl	8001230 <__stack_chk_fail>
 8001ccc:	20000800 	.word	0x20000800
 8001cd0:	20001458 	.word	0x20001458
 8001cd4:	08008a90 	.word	0x08008a90
	...

08001ce0 <chSchIsPreemptionRequired>:
 8001ce0:	b510      	push	{r4, lr}
 8001ce2:	490e      	ldr	r1, [pc, #56]	; (8001d1c <chSchIsPreemptionRequired+0x3c>)
 8001ce4:	4b0e      	ldr	r3, [pc, #56]	; (8001d20 <chSchIsPreemptionRequired+0x40>)
 8001ce6:	698a      	ldr	r2, [r1, #24]
 8001ce8:	6808      	ldr	r0, [r1, #0]
 8001cea:	f892 1023 	ldrb.w	r1, [r2, #35]	; 0x23
 8001cee:	681c      	ldr	r4, [r3, #0]
 8001cf0:	6880      	ldr	r0, [r0, #8]
 8001cf2:	6892      	ldr	r2, [r2, #8]
 8001cf4:	b082      	sub	sp, #8
 8001cf6:	9401      	str	r4, [sp, #4]
 8001cf8:	b949      	cbnz	r1, 8001d0e <chSchIsPreemptionRequired+0x2e>
 8001cfa:	4290      	cmp	r0, r2
 8001cfc:	bf34      	ite	cc
 8001cfe:	2000      	movcc	r0, #0
 8001d00:	2001      	movcs	r0, #1
 8001d02:	9a01      	ldr	r2, [sp, #4]
 8001d04:	681b      	ldr	r3, [r3, #0]
 8001d06:	429a      	cmp	r2, r3
 8001d08:	d106      	bne.n	8001d18 <chSchIsPreemptionRequired+0x38>
 8001d0a:	b002      	add	sp, #8
 8001d0c:	bd10      	pop	{r4, pc}
 8001d0e:	4290      	cmp	r0, r2
 8001d10:	bf94      	ite	ls
 8001d12:	2000      	movls	r0, #0
 8001d14:	2001      	movhi	r0, #1
 8001d16:	e7f4      	b.n	8001d02 <chSchIsPreemptionRequired+0x22>
 8001d18:	f7ff fa8a 	bl	8001230 <__stack_chk_fail>
 8001d1c:	20001458 	.word	0x20001458
 8001d20:	20000800 	.word	0x20000800
	...

08001d30 <chSchDoRescheduleBehind>:
 8001d30:	b570      	push	{r4, r5, r6, lr}
 8001d32:	4c18      	ldr	r4, [pc, #96]	; (8001d94 <chSchDoRescheduleBehind+0x64>)
 8001d34:	4e18      	ldr	r6, [pc, #96]	; (8001d98 <chSchDoRescheduleBehind+0x68>)
 8001d36:	6823      	ldr	r3, [r4, #0]
 8001d38:	69a5      	ldr	r5, [r4, #24]
 8001d3a:	681a      	ldr	r2, [r3, #0]
 8001d3c:	6022      	str	r2, [r4, #0]
 8001d3e:	6054      	str	r4, [r2, #4]
 8001d40:	2201      	movs	r2, #1
 8001d42:	f883 2020 	strb.w	r2, [r3, #32]
 8001d46:	b082      	sub	sp, #8
 8001d48:	2214      	movs	r2, #20
 8001d4a:	6831      	ldr	r1, [r6, #0]
 8001d4c:	f885 2023 	strb.w	r2, [r5, #35]	; 0x23
 8001d50:	4628      	mov	r0, r5
 8001d52:	61a3      	str	r3, [r4, #24]
 8001d54:	9101      	str	r1, [sp, #4]
 8001d56:	f7ff fe83 	bl	8001a60 <chSchReadyI>
 8001d5a:	4628      	mov	r0, r5
 8001d5c:	f7ff fde0 	bl	8001920 <_dbg_trace>
 8001d60:	4629      	mov	r1, r5
 8001d62:	69a0      	ldr	r0, [r4, #24]
 8001d64:	f000 fb7c 	bl	8002460 <_stats_ctxswc>
 8001d68:	f3ef 8309 	mrs	r3, PSP
 8001d6c:	69ea      	ldr	r2, [r5, #28]
 8001d6e:	3b64      	subs	r3, #100	; 0x64
 8001d70:	429a      	cmp	r2, r3
 8001d72:	d902      	bls.n	8001d7a <chSchDoRescheduleBehind+0x4a>
 8001d74:	4809      	ldr	r0, [pc, #36]	; (8001d9c <chSchDoRescheduleBehind+0x6c>)
 8001d76:	f7ff fc3b 	bl	80015f0 <chSysHalt>
 8001d7a:	9a01      	ldr	r2, [sp, #4]
 8001d7c:	6833      	ldr	r3, [r6, #0]
 8001d7e:	429a      	cmp	r2, r3
 8001d80:	d106      	bne.n	8001d90 <chSchDoRescheduleBehind+0x60>
 8001d82:	69a0      	ldr	r0, [r4, #24]
 8001d84:	4629      	mov	r1, r5
 8001d86:	b002      	add	sp, #8
 8001d88:	e8bd 4070 	ldmia.w	sp!, {r4, r5, r6, lr}
 8001d8c:	f7fe ba90 	b.w	80002b0 <_port_switch>
 8001d90:	f7ff fa4e 	bl	8001230 <__stack_chk_fail>
 8001d94:	20001458 	.word	0x20001458
 8001d98:	20000800 	.word	0x20000800
 8001d9c:	08008a90 	.word	0x08008a90

08001da0 <chSchDoRescheduleAhead>:
 8001da0:	b570      	push	{r4, r5, r6, lr}
 8001da2:	4d1c      	ldr	r5, [pc, #112]	; (8001e14 <chSchDoRescheduleAhead+0x74>)
 8001da4:	4e1c      	ldr	r6, [pc, #112]	; (8001e18 <chSchDoRescheduleAhead+0x78>)
 8001da6:	682a      	ldr	r2, [r5, #0]
 8001da8:	69ac      	ldr	r4, [r5, #24]
 8001daa:	6813      	ldr	r3, [r2, #0]
 8001dac:	602b      	str	r3, [r5, #0]
 8001dae:	2101      	movs	r1, #1
 8001db0:	b082      	sub	sp, #8
 8001db2:	605d      	str	r5, [r3, #4]
 8001db4:	2000      	movs	r0, #0
 8001db6:	f882 1020 	strb.w	r1, [r2, #32]
 8001dba:	61aa      	str	r2, [r5, #24]
 8001dbc:	6832      	ldr	r2, [r6, #0]
 8001dbe:	68a1      	ldr	r1, [r4, #8]
 8001dc0:	f884 0020 	strb.w	r0, [r4, #32]
 8001dc4:	9201      	str	r2, [sp, #4]
 8001dc6:	e000      	b.n	8001dca <chSchDoRescheduleAhead+0x2a>
 8001dc8:	681b      	ldr	r3, [r3, #0]
 8001dca:	689a      	ldr	r2, [r3, #8]
 8001dcc:	428a      	cmp	r2, r1
 8001dce:	d8fb      	bhi.n	8001dc8 <chSchDoRescheduleAhead+0x28>
 8001dd0:	6023      	str	r3, [r4, #0]
 8001dd2:	685a      	ldr	r2, [r3, #4]
 8001dd4:	6062      	str	r2, [r4, #4]
 8001dd6:	4620      	mov	r0, r4
 8001dd8:	6014      	str	r4, [r2, #0]
 8001dda:	605c      	str	r4, [r3, #4]
 8001ddc:	f7ff fda0 	bl	8001920 <_dbg_trace>
 8001de0:	4621      	mov	r1, r4
 8001de2:	69a8      	ldr	r0, [r5, #24]
 8001de4:	f000 fb3c 	bl	8002460 <_stats_ctxswc>
 8001de8:	f3ef 8309 	mrs	r3, PSP
 8001dec:	69e2      	ldr	r2, [r4, #28]
 8001dee:	3b64      	subs	r3, #100	; 0x64
 8001df0:	429a      	cmp	r2, r3
 8001df2:	d902      	bls.n	8001dfa <chSchDoRescheduleAhead+0x5a>
 8001df4:	4809      	ldr	r0, [pc, #36]	; (8001e1c <chSchDoRescheduleAhead+0x7c>)
 8001df6:	f7ff fbfb 	bl	80015f0 <chSysHalt>
 8001dfa:	9a01      	ldr	r2, [sp, #4]
 8001dfc:	6833      	ldr	r3, [r6, #0]
 8001dfe:	429a      	cmp	r2, r3
 8001e00:	d106      	bne.n	8001e10 <chSchDoRescheduleAhead+0x70>
 8001e02:	69a8      	ldr	r0, [r5, #24]
 8001e04:	4621      	mov	r1, r4
 8001e06:	b002      	add	sp, #8
 8001e08:	e8bd 4070 	ldmia.w	sp!, {r4, r5, r6, lr}
 8001e0c:	f7fe ba50 	b.w	80002b0 <_port_switch>
 8001e10:	f7ff fa0e 	bl	8001230 <__stack_chk_fail>
 8001e14:	20001458 	.word	0x20001458
 8001e18:	20000800 	.word	0x20000800
 8001e1c:	08008a90 	.word	0x08008a90

08001e20 <chSchDoReschedule>:
 8001e20:	b500      	push	{lr}
 8001e22:	4a0e      	ldr	r2, [pc, #56]	; (8001e5c <chSchDoReschedule+0x3c>)
 8001e24:	4b0e      	ldr	r3, [pc, #56]	; (8001e60 <chSchDoReschedule+0x40>)
 8001e26:	6992      	ldr	r2, [r2, #24]
 8001e28:	6819      	ldr	r1, [r3, #0]
 8001e2a:	f892 2023 	ldrb.w	r2, [r2, #35]	; 0x23
 8001e2e:	b083      	sub	sp, #12
 8001e30:	9101      	str	r1, [sp, #4]
 8001e32:	b142      	cbz	r2, 8001e46 <chSchDoReschedule+0x26>
 8001e34:	9a01      	ldr	r2, [sp, #4]
 8001e36:	681b      	ldr	r3, [r3, #0]
 8001e38:	429a      	cmp	r2, r3
 8001e3a:	d10d      	bne.n	8001e58 <chSchDoReschedule+0x38>
 8001e3c:	b003      	add	sp, #12
 8001e3e:	f85d eb04 	ldr.w	lr, [sp], #4
 8001e42:	f7ff bfad 	b.w	8001da0 <chSchDoRescheduleAhead>
 8001e46:	9a01      	ldr	r2, [sp, #4]
 8001e48:	681b      	ldr	r3, [r3, #0]
 8001e4a:	429a      	cmp	r2, r3
 8001e4c:	d104      	bne.n	8001e58 <chSchDoReschedule+0x38>
 8001e4e:	b003      	add	sp, #12
 8001e50:	f85d eb04 	ldr.w	lr, [sp], #4
 8001e54:	f7ff bf6c 	b.w	8001d30 <chSchDoRescheduleBehind>
 8001e58:	f7ff f9ea 	bl	8001230 <__stack_chk_fail>
 8001e5c:	20001458 	.word	0x20001458
 8001e60:	20000800 	.word	0x20000800
	...

08001e70 <_thread_init>:
 8001e70:	b5f0      	push	{r4, r5, r6, r7, lr}
 8001e72:	4a1a      	ldr	r2, [pc, #104]	; (8001edc <_thread_init+0x6c>)
 8001e74:	4d1a      	ldr	r5, [pc, #104]	; (8001ee0 <_thread_init+0x70>)
 8001e76:	6102      	str	r2, [r0, #16]
 8001e78:	4604      	mov	r4, r0
 8001e7a:	6081      	str	r1, [r0, #8]
 8001e7c:	b083      	sub	sp, #12
 8001e7e:	2314      	movs	r3, #20
 8001e80:	6950      	ldr	r0, [r2, #20]
 8001e82:	682e      	ldr	r6, [r5, #0]
 8001e84:	6461      	str	r1, [r4, #68]	; 0x44
 8001e86:	f884 3023 	strb.w	r3, [r4, #35]	; 0x23
 8001e8a:	2702      	movs	r7, #2
 8001e8c:	2300      	movs	r3, #0
 8001e8e:	2101      	movs	r1, #1
 8001e90:	8427      	strh	r7, [r4, #32]
 8001e92:	f884 1022 	strb.w	r1, [r4, #34]	; 0x22
 8001e96:	e9c4 330f 	strd	r3, r3, [r4, #60]	; 0x3c
 8001e9a:	f104 0168 	add.w	r1, r4, #104	; 0x68
 8001e9e:	61a3      	str	r3, [r4, #24]
 8001ea0:	9601      	str	r6, [sp, #4]
 8001ea2:	f104 072c 	add.w	r7, r4, #44	; 0x2c
 8001ea6:	6263      	str	r3, [r4, #36]	; 0x24
 8001ea8:	f104 0650 	add.w	r6, r4, #80	; 0x50
 8001eac:	f104 0330 	add.w	r3, r4, #48	; 0x30
 8001eb0:	6160      	str	r0, [r4, #20]
 8001eb2:	6104      	str	r4, [r0, #16]
 8001eb4:	e9c4 330c 	strd	r3, r3, [r4, #48]	; 0x30
 8001eb8:	61e1      	str	r1, [r4, #28]
 8001eba:	4630      	mov	r0, r6
 8001ebc:	62e7      	str	r7, [r4, #44]	; 0x2c
 8001ebe:	6154      	str	r4, [r2, #20]
 8001ec0:	f000 fa1e 	bl	8002300 <chTMObjectInit>
 8001ec4:	4630      	mov	r0, r6
 8001ec6:	f000 fa3b 	bl	8002340 <chTMStartMeasurementX>
 8001eca:	9a01      	ldr	r2, [sp, #4]
 8001ecc:	682b      	ldr	r3, [r5, #0]
 8001ece:	429a      	cmp	r2, r3
 8001ed0:	d102      	bne.n	8001ed8 <_thread_init+0x68>
 8001ed2:	4620      	mov	r0, r4
 8001ed4:	b003      	add	sp, #12
 8001ed6:	bdf0      	pop	{r4, r5, r6, r7, pc}
 8001ed8:	f7ff f9aa 	bl	8001230 <__stack_chk_fail>
 8001edc:	20001458 	.word	0x20001458
 8001ee0:	20000800 	.word	0x20000800
	...

08001ef0 <chThdCreateI>:
 8001ef0:	e92d 43f0 	stmdb	sp!, {r4, r5, r6, r7, r8, r9, lr}
 8001ef4:	4e18      	ldr	r6, [pc, #96]	; (8001f58 <chThdCreateI+0x68>)
 8001ef6:	b083      	sub	sp, #12
 8001ef8:	6834      	ldr	r4, [r6, #0]
 8001efa:	9401      	str	r4, [sp, #4]
 8001efc:	4605      	mov	r5, r0
 8001efe:	f8dd 9028 	ldr.w	r9, [sp, #40]	; 0x28
 8001f02:	460c      	mov	r4, r1
 8001f04:	4617      	mov	r7, r2
 8001f06:	4698      	mov	r8, r3
 8001f08:	f7ff fcba 	bl	8001880 <chDbgCheckClassI>
 8001f0c:	b115      	cbz	r5, 8001f14 <chThdCreateI+0x24>
 8001f0e:	f5b4 7fbc 	cmp.w	r4, #376	; 0x178
 8001f12:	d219      	bcs.n	8001f48 <chThdCreateI+0x58>
 8001f14:	4811      	ldr	r0, [pc, #68]	; (8001f5c <chThdCreateI+0x6c>)
 8001f16:	f7ff fb6b 	bl	80015f0 <chSysHalt>
 8001f1a:	f1a4 0164 	sub.w	r1, r4, #100	; 0x64
 8001f1e:	4429      	add	r1, r5
 8001f20:	60e9      	str	r1, [r5, #12]
 8001f22:	f8c1 8040 	str.w	r8, [r1, #64]	; 0x40
 8001f26:	68eb      	ldr	r3, [r5, #12]
 8001f28:	9a01      	ldr	r2, [sp, #4]
 8001f2a:	f8c3 9044 	str.w	r9, [r3, #68]	; 0x44
 8001f2e:	6833      	ldr	r3, [r6, #0]
 8001f30:	68e9      	ldr	r1, [r5, #12]
 8001f32:	480b      	ldr	r0, [pc, #44]	; (8001f60 <chThdCreateI+0x70>)
 8001f34:	6608      	str	r0, [r1, #96]	; 0x60
 8001f36:	429a      	cmp	r2, r3
 8001f38:	d10c      	bne.n	8001f54 <chThdCreateI+0x64>
 8001f3a:	4639      	mov	r1, r7
 8001f3c:	4628      	mov	r0, r5
 8001f3e:	b003      	add	sp, #12
 8001f40:	e8bd 43f0 	ldmia.w	sp!, {r4, r5, r6, r7, r8, r9, lr}
 8001f44:	f7ff bf94 	b.w	8001e70 <_thread_init>
 8001f48:	2f7f      	cmp	r7, #127	; 0x7f
 8001f4a:	d8e3      	bhi.n	8001f14 <chThdCreateI+0x24>
 8001f4c:	f1b8 0f00 	cmp.w	r8, #0
 8001f50:	d1e3      	bne.n	8001f1a <chThdCreateI+0x2a>
 8001f52:	e7df      	b.n	8001f14 <chThdCreateI+0x24>
 8001f54:	f7ff f96c 	bl	8001230 <__stack_chk_fail>
 8001f58:	20000800 	.word	0x20000800
 8001f5c:	08008ae0 	.word	0x08008ae0
 8001f60:	080002c9 	.word	0x080002c9
	...

08001f70 <chThdCreateStatic>:
 8001f70:	e92d 4ff0 	stmdb	sp!, {r4, r5, r6, r7, r8, r9, sl, fp, lr}
 8001f74:	f8df 80a4 	ldr.w	r8, [pc, #164]	; 800201c <chThdCreateStatic+0xac>
 8001f78:	b087      	sub	sp, #28
 8001f7a:	f8d8 4000 	ldr.w	r4, [r8]
 8001f7e:	f8dd 9040 	ldr.w	r9, [sp, #64]	; 0x40
 8001f82:	9405      	str	r4, [sp, #20]
 8001f84:	4607      	mov	r7, r0
 8001f86:	468a      	mov	sl, r1
 8001f88:	4693      	mov	fp, r2
 8001f8a:	f100 0668 	add.w	r6, r0, #104	; 0x68
 8001f8e:	4604      	mov	r4, r0
 8001f90:	25ff      	movs	r5, #255	; 0xff
 8001f92:	f804 5b01 	strb.w	r5, [r4], #1
 8001f96:	42a6      	cmp	r6, r4
 8001f98:	d1fb      	bne.n	8001f92 <chThdCreateStatic+0x22>
 8001f9a:	eb07 050a 	add.w	r5, r7, sl
 8001f9e:	42a5      	cmp	r5, r4
 8001fa0:	d904      	bls.n	8001fac <chThdCreateStatic+0x3c>
 8001fa2:	2655      	movs	r6, #85	; 0x55
 8001fa4:	f804 6b01 	strb.w	r6, [r4], #1
 8001fa8:	42a5      	cmp	r5, r4
 8001faa:	d1fb      	bne.n	8001fa4 <chThdCreateStatic+0x34>
 8001fac:	9303      	str	r3, [sp, #12]
 8001fae:	2220      	movs	r2, #32
 8001fb0:	f382 8811 	msr	BASEPRI, r2
 8001fb4:	f000 fa74 	bl	80024a0 <_stats_start_measure_crit_thd>
 8001fb8:	f7ff fb92 	bl	80016e0 <_dbg_check_lock>
 8001fbc:	9b03      	ldr	r3, [sp, #12]
 8001fbe:	f8cd 9000 	str.w	r9, [sp]
 8001fc2:	465a      	mov	r2, fp
 8001fc4:	4651      	mov	r1, sl
 8001fc6:	4638      	mov	r0, r7
 8001fc8:	f7ff ff92 	bl	8001ef0 <chThdCreateI>
 8001fcc:	2100      	movs	r1, #0
 8001fce:	4604      	mov	r4, r0
 8001fd0:	f7ff fe3e 	bl	8001c50 <chSchWakeupS>
 8001fd4:	f7ff fba4 	bl	8001720 <_dbg_check_unlock>
 8001fd8:	f000 fa7a 	bl	80024d0 <_stats_stop_measure_crit_thd>
 8001fdc:	4b0d      	ldr	r3, [pc, #52]	; (8002014 <chThdCreateStatic+0xa4>)
 8001fde:	681a      	ldr	r2, [r3, #0]
 8001fe0:	429a      	cmp	r2, r3
 8001fe2:	d004      	beq.n	8001fee <chThdCreateStatic+0x7e>
 8001fe4:	6999      	ldr	r1, [r3, #24]
 8001fe6:	6893      	ldr	r3, [r2, #8]
 8001fe8:	688a      	ldr	r2, [r1, #8]
 8001fea:	429a      	cmp	r2, r3
 8001fec:	d30b      	bcc.n	8002006 <chThdCreateStatic+0x96>
 8001fee:	2300      	movs	r3, #0
 8001ff0:	f383 8811 	msr	BASEPRI, r3
 8001ff4:	9a05      	ldr	r2, [sp, #20]
 8001ff6:	f8d8 3000 	ldr.w	r3, [r8]
 8001ffa:	429a      	cmp	r2, r3
 8001ffc:	4620      	mov	r0, r4
 8001ffe:	d106      	bne.n	800200e <chThdCreateStatic+0x9e>
 8002000:	b007      	add	sp, #28
 8002002:	e8bd 8ff0 	ldmia.w	sp!, {r4, r5, r6, r7, r8, r9, sl, fp, pc}
 8002006:	4804      	ldr	r0, [pc, #16]	; (8002018 <chThdCreateStatic+0xa8>)
 8002008:	f7ff faf2 	bl	80015f0 <chSysHalt>
 800200c:	e7ef      	b.n	8001fee <chThdCreateStatic+0x7e>
 800200e:	f7ff f90f 	bl	8001230 <__stack_chk_fail>
 8002012:	bf00      	nop
 8002014:	20001458 	.word	0x20001458
 8002018:	08008aa0 	.word	0x08008aa0
 800201c:	20000800 	.word	0x20000800

08002020 <chThdSleep>:
 8002020:	b530      	push	{r4, r5, lr}
 8002022:	4c18      	ldr	r4, [pc, #96]	; (8002084 <chThdSleep+0x64>)
 8002024:	b083      	sub	sp, #12
 8002026:	6823      	ldr	r3, [r4, #0]
 8002028:	9301      	str	r3, [sp, #4]
 800202a:	4605      	mov	r5, r0
 800202c:	2320      	movs	r3, #32
 800202e:	f383 8811 	msr	BASEPRI, r3
 8002032:	f000 fa35 	bl	80024a0 <_stats_start_measure_crit_thd>
 8002036:	f7ff fb53 	bl	80016e0 <_dbg_check_lock>
 800203a:	b915      	cbnz	r5, 8002042 <chThdSleep+0x22>
 800203c:	4812      	ldr	r0, [pc, #72]	; (8002088 <chThdSleep+0x68>)
 800203e:	f7ff fad7 	bl	80015f0 <chSysHalt>
 8002042:	4629      	mov	r1, r5
 8002044:	2008      	movs	r0, #8
 8002046:	f7ff fdcb 	bl	8001be0 <chSchGoSleepTimeoutS>
 800204a:	f7ff fb69 	bl	8001720 <_dbg_check_unlock>
 800204e:	f000 fa3f 	bl	80024d0 <_stats_stop_measure_crit_thd>
 8002052:	4b0e      	ldr	r3, [pc, #56]	; (800208c <chThdSleep+0x6c>)
 8002054:	681a      	ldr	r2, [r3, #0]
 8002056:	429a      	cmp	r2, r3
 8002058:	d004      	beq.n	8002064 <chThdSleep+0x44>
 800205a:	6999      	ldr	r1, [r3, #24]
 800205c:	6893      	ldr	r3, [r2, #8]
 800205e:	688a      	ldr	r2, [r1, #8]
 8002060:	429a      	cmp	r2, r3
 8002062:	d308      	bcc.n	8002076 <chThdSleep+0x56>
 8002064:	2300      	movs	r3, #0
 8002066:	f383 8811 	msr	BASEPRI, r3
 800206a:	9a01      	ldr	r2, [sp, #4]
 800206c:	6823      	ldr	r3, [r4, #0]
 800206e:	429a      	cmp	r2, r3
 8002070:	d105      	bne.n	800207e <chThdSleep+0x5e>
 8002072:	b003      	add	sp, #12
 8002074:	bd30      	pop	{r4, r5, pc}
 8002076:	4806      	ldr	r0, [pc, #24]	; (8002090 <chThdSleep+0x70>)
 8002078:	f7ff faba 	bl	80015f0 <chSysHalt>
 800207c:	e7f2      	b.n	8002064 <chThdSleep+0x44>
 800207e:	f7ff f8d7 	bl	8001230 <__stack_chk_fail>
 8002082:	bf00      	nop
 8002084:	20000800 	.word	0x20000800
 8002088:	08008ab0 	.word	0x08008ab0
 800208c:	20001458 	.word	0x20001458
 8002090:	08008aa0 	.word	0x08008aa0
	...

080020a0 <chThdSleepUntilWindowed>:
 80020a0:	b5f0      	push	{r4, r5, r6, r7, lr}
 80020a2:	4f1c      	ldr	r7, [pc, #112]	; (8002114 <chThdSleepUntilWindowed+0x74>)
 80020a4:	b083      	sub	sp, #12
 80020a6:	683b      	ldr	r3, [r7, #0]
 80020a8:	9301      	str	r3, [sp, #4]
 80020aa:	4604      	mov	r4, r0
 80020ac:	460e      	mov	r6, r1
 80020ae:	2320      	movs	r3, #32
 80020b0:	f383 8811 	msr	BASEPRI, r3
 80020b4:	4d18      	ldr	r5, [pc, #96]	; (8002118 <chThdSleepUntilWindowed+0x78>)
 80020b6:	f000 f9f3 	bl	80024a0 <_stats_start_measure_crit_thd>
 80020ba:	f7ff fb11 	bl	80016e0 <_dbg_check_lock>
 80020be:	6aa9      	ldr	r1, [r5, #40]	; 0x28
 80020c0:	1b33      	subs	r3, r6, r4
 80020c2:	1b0c      	subs	r4, r1, r4
 80020c4:	429c      	cmp	r4, r3
 80020c6:	d319      	bcc.n	80020fc <chThdSleepUntilWindowed+0x5c>
 80020c8:	f7ff fb2a 	bl	8001720 <_dbg_check_unlock>
 80020cc:	f000 fa00 	bl	80024d0 <_stats_stop_measure_crit_thd>
 80020d0:	682b      	ldr	r3, [r5, #0]
 80020d2:	42ab      	cmp	r3, r5
 80020d4:	d004      	beq.n	80020e0 <chThdSleepUntilWindowed+0x40>
 80020d6:	69aa      	ldr	r2, [r5, #24]
 80020d8:	689b      	ldr	r3, [r3, #8]
 80020da:	6892      	ldr	r2, [r2, #8]
 80020dc:	429a      	cmp	r2, r3
 80020de:	d309      	bcc.n	80020f4 <chThdSleepUntilWindowed+0x54>
 80020e0:	2300      	movs	r3, #0
 80020e2:	f383 8811 	msr	BASEPRI, r3
 80020e6:	9a01      	ldr	r2, [sp, #4]
 80020e8:	683b      	ldr	r3, [r7, #0]
 80020ea:	429a      	cmp	r2, r3
 80020ec:	4630      	mov	r0, r6
 80020ee:	d10f      	bne.n	8002110 <chThdSleepUntilWindowed+0x70>
 80020f0:	b003      	add	sp, #12
 80020f2:	bdf0      	pop	{r4, r5, r6, r7, pc}
 80020f4:	4809      	ldr	r0, [pc, #36]	; (800211c <chThdSleepUntilWindowed+0x7c>)
 80020f6:	f7ff fa7b 	bl	80015f0 <chSysHalt>
 80020fa:	e7f1      	b.n	80020e0 <chThdSleepUntilWindowed+0x40>
 80020fc:	1a74      	subs	r4, r6, r1
 80020fe:	d102      	bne.n	8002106 <chThdSleepUntilWindowed+0x66>
 8002100:	4807      	ldr	r0, [pc, #28]	; (8002120 <chThdSleepUntilWindowed+0x80>)
 8002102:	f7ff fa75 	bl	80015f0 <chSysHalt>
 8002106:	4621      	mov	r1, r4
 8002108:	2008      	movs	r0, #8
 800210a:	f7ff fd69 	bl	8001be0 <chSchGoSleepTimeoutS>
 800210e:	e7db      	b.n	80020c8 <chThdSleepUntilWindowed+0x28>
 8002110:	f7ff f88e 	bl	8001230 <__stack_chk_fail>
 8002114:	20000800 	.word	0x20000800
 8002118:	20001458 	.word	0x20001458
 800211c:	08008aa0 	.word	0x08008aa0
 8002120:	08008ab0 	.word	0x08008ab0
	...

08002130 <chThdExitS>:
 8002130:	b570      	push	{r4, r5, r6, lr}
 8002132:	4b16      	ldr	r3, [pc, #88]	; (800218c <chThdExitS+0x5c>)
 8002134:	4e16      	ldr	r6, [pc, #88]	; (8002190 <chThdExitS+0x60>)
 8002136:	699c      	ldr	r4, [r3, #24]
 8002138:	6832      	ldr	r2, [r6, #0]
 800213a:	6ae3      	ldr	r3, [r4, #44]	; 0x2c
 800213c:	62a0      	str	r0, [r4, #40]	; 0x28
 800213e:	b082      	sub	sp, #8
 8002140:	f104 052c 	add.w	r5, r4, #44	; 0x2c
 8002144:	42ab      	cmp	r3, r5
 8002146:	9201      	str	r2, [sp, #4]
 8002148:	d007      	beq.n	800215a <chThdExitS+0x2a>
 800214a:	681a      	ldr	r2, [r3, #0]
 800214c:	62e2      	str	r2, [r4, #44]	; 0x2c
 800214e:	4618      	mov	r0, r3
 8002150:	f7ff fc86 	bl	8001a60 <chSchReadyI>
 8002154:	6ae3      	ldr	r3, [r4, #44]	; 0x2c
 8002156:	42ab      	cmp	r3, r5
 8002158:	d1f7      	bne.n	800214a <chThdExitS+0x1a>
 800215a:	f894 3021 	ldrb.w	r3, [r4, #33]	; 0x21
 800215e:	079b      	lsls	r3, r3, #30
 8002160:	d105      	bne.n	800216e <chThdExitS+0x3e>
 8002162:	e9d4 2304 	ldrd	r2, r3, [r4, #16]
 8002166:	611a      	str	r2, [r3, #16]
 8002168:	e9d4 3204 	ldrd	r3, r2, [r4, #16]
 800216c:	615a      	str	r2, [r3, #20]
 800216e:	200f      	movs	r0, #15
 8002170:	f7ff fcf6 	bl	8001b60 <chSchGoSleepS>
 8002174:	9a01      	ldr	r2, [sp, #4]
 8002176:	6833      	ldr	r3, [r6, #0]
 8002178:	429a      	cmp	r2, r3
 800217a:	d105      	bne.n	8002188 <chThdExitS+0x58>
 800217c:	4805      	ldr	r0, [pc, #20]	; (8002194 <chThdExitS+0x64>)
 800217e:	b002      	add	sp, #8
 8002180:	e8bd 4070 	ldmia.w	sp!, {r4, r5, r6, lr}
 8002184:	f7ff ba34 	b.w	80015f0 <chSysHalt>
 8002188:	f7ff f852 	bl	8001230 <__stack_chk_fail>
 800218c:	20001458 	.word	0x20001458
 8002190:	20000800 	.word	0x20000800
 8002194:	08008af0 	.word	0x08008af0
	...

080021a0 <chThdExit>:
 80021a0:	b530      	push	{r4, r5, lr}
 80021a2:	4c0c      	ldr	r4, [pc, #48]	; (80021d4 <chThdExit+0x34>)
 80021a4:	b083      	sub	sp, #12
 80021a6:	6823      	ldr	r3, [r4, #0]
 80021a8:	9301      	str	r3, [sp, #4]
 80021aa:	4605      	mov	r5, r0
 80021ac:	2320      	movs	r3, #32
 80021ae:	f383 8811 	msr	BASEPRI, r3
 80021b2:	f000 f975 	bl	80024a0 <_stats_start_measure_crit_thd>
 80021b6:	f7ff fa93 	bl	80016e0 <_dbg_check_lock>
 80021ba:	9a01      	ldr	r2, [sp, #4]
 80021bc:	6823      	ldr	r3, [r4, #0]
 80021be:	429a      	cmp	r2, r3
 80021c0:	d105      	bne.n	80021ce <chThdExit+0x2e>
 80021c2:	4628      	mov	r0, r5
 80021c4:	b003      	add	sp, #12
 80021c6:	e8bd 4030 	ldmia.w	sp!, {r4, r5, lr}
 80021ca:	f7ff bfb1 	b.w	8002130 <chThdExitS>
 80021ce:	f7ff f82f 	bl	8001230 <__stack_chk_fail>
 80021d2:	bf00      	nop
 80021d4:	20000800 	.word	0x20000800
	...

080021e0 <chThdResumeI>:
 80021e0:	b5f0      	push	{r4, r5, r6, r7, lr}
 80021e2:	4d12      	ldr	r5, [pc, #72]	; (800222c <chThdResumeI+0x4c>)
 80021e4:	6804      	ldr	r4, [r0, #0]
 80021e6:	682b      	ldr	r3, [r5, #0]
 80021e8:	b083      	sub	sp, #12
 80021ea:	9301      	str	r3, [sp, #4]
 80021ec:	b1b4      	cbz	r4, 800221c <chThdResumeI+0x3c>
 80021ee:	f894 3020 	ldrb.w	r3, [r4, #32]
 80021f2:	2b03      	cmp	r3, #3
 80021f4:	4606      	mov	r6, r0
 80021f6:	460f      	mov	r7, r1
 80021f8:	d10c      	bne.n	8002214 <chThdResumeI+0x34>
 80021fa:	2300      	movs	r3, #0
 80021fc:	6033      	str	r3, [r6, #0]
 80021fe:	9a01      	ldr	r2, [sp, #4]
 8002200:	682b      	ldr	r3, [r5, #0]
 8002202:	62a7      	str	r7, [r4, #40]	; 0x28
 8002204:	429a      	cmp	r2, r3
 8002206:	d10f      	bne.n	8002228 <chThdResumeI+0x48>
 8002208:	4620      	mov	r0, r4
 800220a:	b003      	add	sp, #12
 800220c:	e8bd 40f0 	ldmia.w	sp!, {r4, r5, r6, r7, lr}
 8002210:	f7ff bc26 	b.w	8001a60 <chSchReadyI>
 8002214:	4806      	ldr	r0, [pc, #24]	; (8002230 <chThdResumeI+0x50>)
 8002216:	f7ff f9eb 	bl	80015f0 <chSysHalt>
 800221a:	e7ee      	b.n	80021fa <chThdResumeI+0x1a>
 800221c:	9a01      	ldr	r2, [sp, #4]
 800221e:	682b      	ldr	r3, [r5, #0]
 8002220:	429a      	cmp	r2, r3
 8002222:	d101      	bne.n	8002228 <chThdResumeI+0x48>
 8002224:	b003      	add	sp, #12
 8002226:	bdf0      	pop	{r4, r5, r6, r7, pc}
 8002228:	f7ff f802 	bl	8001230 <__stack_chk_fail>
 800222c:	20000800 	.word	0x20000800
 8002230:	08008b00 	.word	0x08008b00
	...

08002240 <chThdDequeueNextI>:
 8002240:	b570      	push	{r4, r5, r6, lr}
 8002242:	4d12      	ldr	r5, [pc, #72]	; (800228c <chThdDequeueNextI+0x4c>)
 8002244:	6804      	ldr	r4, [r0, #0]
 8002246:	682b      	ldr	r3, [r5, #0]
 8002248:	b082      	sub	sp, #8
 800224a:	42a0      	cmp	r0, r4
 800224c:	9301      	str	r3, [sp, #4]
 800224e:	d015      	beq.n	800227c <chThdDequeueNextI+0x3c>
 8002250:	6823      	ldr	r3, [r4, #0]
 8002252:	6003      	str	r3, [r0, #0]
 8002254:	6058      	str	r0, [r3, #4]
 8002256:	f894 3020 	ldrb.w	r3, [r4, #32]
 800225a:	2b04      	cmp	r3, #4
 800225c:	460e      	mov	r6, r1
 800225e:	d002      	beq.n	8002266 <chThdDequeueNextI+0x26>
 8002260:	480b      	ldr	r0, [pc, #44]	; (8002290 <chThdDequeueNextI+0x50>)
 8002262:	f7ff f9c5 	bl	80015f0 <chSysHalt>
 8002266:	9a01      	ldr	r2, [sp, #4]
 8002268:	682b      	ldr	r3, [r5, #0]
 800226a:	62a6      	str	r6, [r4, #40]	; 0x28
 800226c:	429a      	cmp	r2, r3
 800226e:	d10b      	bne.n	8002288 <chThdDequeueNextI+0x48>
 8002270:	4620      	mov	r0, r4
 8002272:	b002      	add	sp, #8
 8002274:	e8bd 4070 	ldmia.w	sp!, {r4, r5, r6, lr}
 8002278:	f7ff bbf2 	b.w	8001a60 <chSchReadyI>
 800227c:	9a01      	ldr	r2, [sp, #4]
 800227e:	682b      	ldr	r3, [r5, #0]
 8002280:	429a      	cmp	r2, r3
 8002282:	d101      	bne.n	8002288 <chThdDequeueNextI+0x48>
 8002284:	b002      	add	sp, #8
 8002286:	bd70      	pop	{r4, r5, r6, pc}
 8002288:	f7fe ffd2 	bl	8001230 <__stack_chk_fail>
 800228c:	20000800 	.word	0x20000800
 8002290:	08008ac0 	.word	0x08008ac0
	...

080022a0 <chThdDequeueAllI>:
 80022a0:	e92d 41f0 	stmdb	sp!, {r4, r5, r6, r7, r8, lr}
 80022a4:	f8df 8050 	ldr.w	r8, [pc, #80]	; 80022f8 <chThdDequeueAllI+0x58>
 80022a8:	6804      	ldr	r4, [r0, #0]
 80022aa:	f8d8 3000 	ldr.w	r3, [r8]
 80022ae:	b082      	sub	sp, #8
 80022b0:	42a0      	cmp	r0, r4
 80022b2:	9301      	str	r3, [sp, #4]
 80022b4:	d013      	beq.n	80022de <chThdDequeueAllI+0x3e>
 80022b6:	4f0f      	ldr	r7, [pc, #60]	; (80022f4 <chThdDequeueAllI+0x54>)
 80022b8:	4605      	mov	r5, r0
 80022ba:	460e      	mov	r6, r1
 80022bc:	6823      	ldr	r3, [r4, #0]
 80022be:	602b      	str	r3, [r5, #0]
 80022c0:	605d      	str	r5, [r3, #4]
 80022c2:	f894 3020 	ldrb.w	r3, [r4, #32]
 80022c6:	2b04      	cmp	r3, #4
 80022c8:	d002      	beq.n	80022d0 <chThdDequeueAllI+0x30>
 80022ca:	4638      	mov	r0, r7
 80022cc:	f7ff f990 	bl	80015f0 <chSysHalt>
 80022d0:	62a6      	str	r6, [r4, #40]	; 0x28
 80022d2:	4620      	mov	r0, r4
 80022d4:	f7ff fbc4 	bl	8001a60 <chSchReadyI>
 80022d8:	682c      	ldr	r4, [r5, #0]
 80022da:	42a5      	cmp	r5, r4
 80022dc:	d1ee      	bne.n	80022bc <chThdDequeueAllI+0x1c>
 80022de:	9a01      	ldr	r2, [sp, #4]
 80022e0:	f8d8 3000 	ldr.w	r3, [r8]
 80022e4:	429a      	cmp	r2, r3
 80022e6:	d102      	bne.n	80022ee <chThdDequeueAllI+0x4e>
 80022e8:	b002      	add	sp, #8
 80022ea:	e8bd 81f0 	ldmia.w	sp!, {r4, r5, r6, r7, r8, pc}
 80022ee:	f7fe ff9f 	bl	8001230 <__stack_chk_fail>
 80022f2:	bf00      	nop
 80022f4:	08008ac0 	.word	0x08008ac0
 80022f8:	20000800 	.word	0x20000800
 80022fc:	00000000 	.word	0x00000000

08002300 <chTMObjectInit>:
 8002300:	b530      	push	{r4, r5, lr}
 8002302:	4b0b      	ldr	r3, [pc, #44]	; (8002330 <chTMObjectInit+0x30>)
 8002304:	b083      	sub	sp, #12
 8002306:	681a      	ldr	r2, [r3, #0]
 8002308:	9201      	str	r2, [sp, #4]
 800230a:	f04f 32ff 	mov.w	r2, #4294967295
 800230e:	6002      	str	r2, [r0, #0]
 8002310:	9901      	ldr	r1, [sp, #4]
 8002312:	681a      	ldr	r2, [r3, #0]
 8002314:	2400      	movs	r4, #0
 8002316:	2300      	movs	r3, #0
 8002318:	2500      	movs	r5, #0
 800231a:	4291      	cmp	r1, r2
 800231c:	e9c0 4504 	strd	r4, r5, [r0, #16]
 8002320:	e9c0 3301 	strd	r3, r3, [r0, #4]
 8002324:	60c3      	str	r3, [r0, #12]
 8002326:	d101      	bne.n	800232c <chTMObjectInit+0x2c>
 8002328:	b003      	add	sp, #12
 800232a:	bd30      	pop	{r4, r5, pc}
 800232c:	f7fe ff80 	bl	8001230 <__stack_chk_fail>
 8002330:	20000800 	.word	0x20000800
	...

08002340 <chTMStartMeasurementX>:
 8002340:	b500      	push	{lr}
 8002342:	4b08      	ldr	r3, [pc, #32]	; (8002364 <chTMStartMeasurementX+0x24>)
 8002344:	4a08      	ldr	r2, [pc, #32]	; (8002368 <chTMStartMeasurementX+0x28>)
 8002346:	6819      	ldr	r1, [r3, #0]
 8002348:	b083      	sub	sp, #12
 800234a:	9101      	str	r1, [sp, #4]
 800234c:	6851      	ldr	r1, [r2, #4]
 800234e:	9a01      	ldr	r2, [sp, #4]
 8002350:	681b      	ldr	r3, [r3, #0]
 8002352:	6081      	str	r1, [r0, #8]
 8002354:	429a      	cmp	r2, r3
 8002356:	d102      	bne.n	800235e <chTMStartMeasurementX+0x1e>
 8002358:	b003      	add	sp, #12
 800235a:	f85d fb04 	ldr.w	pc, [sp], #4
 800235e:	f7fe ff67 	bl	8001230 <__stack_chk_fail>
 8002362:	bf00      	nop
 8002364:	20000800 	.word	0x20000800
 8002368:	e0001000 	.word	0xe0001000
 800236c:	00000000 	.word	0x00000000

08002370 <chTMStopMeasurementX>:
 8002370:	b5f0      	push	{r4, r5, r6, r7, lr}
 8002372:	4914      	ldr	r1, [pc, #80]	; (80023c4 <chTMStopMeasurementX+0x54>)
 8002374:	4b14      	ldr	r3, [pc, #80]	; (80023c8 <chTMStopMeasurementX+0x58>)
 8002376:	680a      	ldr	r2, [r1, #0]
 8002378:	6884      	ldr	r4, [r0, #8]
 800237a:	b083      	sub	sp, #12
 800237c:	9201      	str	r2, [sp, #4]
 800237e:	4a13      	ldr	r2, [pc, #76]	; (80023cc <chTMStopMeasurementX+0x5c>)
 8002380:	685b      	ldr	r3, [r3, #4]
 8002382:	f8d2 64a8 	ldr.w	r6, [r2, #1192]	; 0x4a8
 8002386:	68c2      	ldr	r2, [r0, #12]
 8002388:	1b1b      	subs	r3, r3, r4
 800238a:	e9d0 4504 	ldrd	r4, r5, [r0, #16]
 800238e:	3201      	adds	r2, #1
 8002390:	1b9b      	subs	r3, r3, r6
 8002392:	60c2      	str	r2, [r0, #12]
 8002394:	6842      	ldr	r2, [r0, #4]
 8002396:	6083      	str	r3, [r0, #8]
 8002398:	18e6      	adds	r6, r4, r3
 800239a:	f145 0700 	adc.w	r7, r5, #0
 800239e:	4293      	cmp	r3, r2
 80023a0:	e9c0 6704 	strd	r6, r7, [r0, #16]
 80023a4:	d809      	bhi.n	80023ba <chTMStopMeasurementX+0x4a>
 80023a6:	6802      	ldr	r2, [r0, #0]
 80023a8:	4293      	cmp	r3, r2
 80023aa:	bf38      	it	cc
 80023ac:	6003      	strcc	r3, [r0, #0]
 80023ae:	9a01      	ldr	r2, [sp, #4]
 80023b0:	680b      	ldr	r3, [r1, #0]
 80023b2:	429a      	cmp	r2, r3
 80023b4:	d103      	bne.n	80023be <chTMStopMeasurementX+0x4e>
 80023b6:	b003      	add	sp, #12
 80023b8:	bdf0      	pop	{r4, r5, r6, r7, pc}
 80023ba:	6043      	str	r3, [r0, #4]
 80023bc:	e7f7      	b.n	80023ae <chTMStopMeasurementX+0x3e>
 80023be:	f7fe ff37 	bl	8001230 <__stack_chk_fail>
 80023c2:	bf00      	nop
 80023c4:	20000800 	.word	0x20000800
 80023c8:	e0001000 	.word	0xe0001000
 80023cc:	20001458 	.word	0x20001458

080023d0 <chTMChainMeasurementToX>:
 80023d0:	e92d 4870 	stmdb	sp!, {r4, r5, r6, fp, lr}
 80023d4:	4e13      	ldr	r6, [pc, #76]	; (8002424 <chTMChainMeasurementToX+0x54>)
 80023d6:	4b14      	ldr	r3, [pc, #80]	; (8002428 <chTMChainMeasurementToX+0x58>)
 80023d8:	6832      	ldr	r2, [r6, #0]
 80023da:	b083      	sub	sp, #12
 80023dc:	9201      	str	r2, [sp, #4]
 80023de:	685b      	ldr	r3, [r3, #4]
 80023e0:	608b      	str	r3, [r1, #8]
 80023e2:	e9d0 4102 	ldrd	r4, r1, [r0, #8]
 80023e6:	1b1b      	subs	r3, r3, r4
 80023e8:	e9d0 4504 	ldrd	r4, r5, [r0, #16]
 80023ec:	6842      	ldr	r2, [r0, #4]
 80023ee:	eb14 0b03 	adds.w	fp, r4, r3
 80023f2:	f145 0c00 	adc.w	ip, r5, #0
 80023f6:	3101      	adds	r1, #1
 80023f8:	4293      	cmp	r3, r2
 80023fa:	e9c0 3102 	strd	r3, r1, [r0, #8]
 80023fe:	e9c0 bc04 	strd	fp, ip, [r0, #16]
 8002402:	d80a      	bhi.n	800241a <chTMChainMeasurementToX+0x4a>
 8002404:	6802      	ldr	r2, [r0, #0]
 8002406:	4293      	cmp	r3, r2
 8002408:	bf38      	it	cc
 800240a:	6003      	strcc	r3, [r0, #0]
 800240c:	9a01      	ldr	r2, [sp, #4]
 800240e:	6833      	ldr	r3, [r6, #0]
 8002410:	429a      	cmp	r2, r3
 8002412:	d104      	bne.n	800241e <chTMChainMeasurementToX+0x4e>
 8002414:	b003      	add	sp, #12
 8002416:	e8bd 8870 	ldmia.w	sp!, {r4, r5, r6, fp, pc}
 800241a:	6043      	str	r3, [r0, #4]
 800241c:	e7f6      	b.n	800240c <chTMChainMeasurementToX+0x3c>
 800241e:	f7fe ff07 	bl	8001230 <__stack_chk_fail>
 8002422:	bf00      	nop
 8002424:	20000800 	.word	0x20000800
 8002428:	e0001000 	.word	0xe0001000
 800242c:	00000000 	.word	0x00000000

08002430 <_stats_increase_irq>:
 8002430:	b500      	push	{lr}
 8002432:	4909      	ldr	r1, [pc, #36]	; (8002458 <_stats_increase_irq+0x28>)
 8002434:	4a09      	ldr	r2, [pc, #36]	; (800245c <_stats_increase_irq+0x2c>)
 8002436:	680b      	ldr	r3, [r1, #0]
 8002438:	b083      	sub	sp, #12
 800243a:	9301      	str	r3, [sp, #4]
 800243c:	9801      	ldr	r0, [sp, #4]
 800243e:	f8d2 34b0 	ldr.w	r3, [r2, #1200]	; 0x4b0
 8002442:	6809      	ldr	r1, [r1, #0]
 8002444:	3301      	adds	r3, #1
 8002446:	4288      	cmp	r0, r1
 8002448:	f8c2 34b0 	str.w	r3, [r2, #1200]	; 0x4b0
 800244c:	d102      	bne.n	8002454 <_stats_increase_irq+0x24>
 800244e:	b003      	add	sp, #12
 8002450:	f85d fb04 	ldr.w	pc, [sp], #4
 8002454:	f7fe feec 	bl	8001230 <__stack_chk_fail>
 8002458:	20000800 	.word	0x20000800
 800245c:	20001458 	.word	0x20001458

08002460 <_stats_ctxswc>:
 8002460:	b570      	push	{r4, r5, r6, lr}
 8002462:	4c0d      	ldr	r4, [pc, #52]	; (8002498 <_stats_ctxswc+0x38>)
 8002464:	4a0d      	ldr	r2, [pc, #52]	; (800249c <_stats_ctxswc+0x3c>)
 8002466:	6823      	ldr	r3, [r4, #0]
 8002468:	b082      	sub	sp, #8
 800246a:	9301      	str	r3, [sp, #4]
 800246c:	9d01      	ldr	r5, [sp, #4]
 800246e:	f8d2 34b4 	ldr.w	r3, [r2, #1204]	; 0x4b4
 8002472:	6824      	ldr	r4, [r4, #0]
 8002474:	3301      	adds	r3, #1
 8002476:	42a5      	cmp	r5, r4
 8002478:	f8c2 34b4 	str.w	r3, [r2, #1204]	; 0x4b4
 800247c:	d109      	bne.n	8002492 <_stats_ctxswc+0x32>
 800247e:	460e      	mov	r6, r1
 8002480:	f100 0150 	add.w	r1, r0, #80	; 0x50
 8002484:	f106 0050 	add.w	r0, r6, #80	; 0x50
 8002488:	b002      	add	sp, #8
 800248a:	e8bd 4070 	ldmia.w	sp!, {r4, r5, r6, lr}
 800248e:	f7ff bf9f 	b.w	80023d0 <chTMChainMeasurementToX>
 8002492:	f7fe fecd 	bl	8001230 <__stack_chk_fail>
 8002496:	bf00      	nop
 8002498:	20000800 	.word	0x20000800
 800249c:	20001458 	.word	0x20001458

080024a0 <_stats_start_measure_crit_thd>:
 80024a0:	b500      	push	{lr}
 80024a2:	4b08      	ldr	r3, [pc, #32]	; (80024c4 <_stats_start_measure_crit_thd+0x24>)
 80024a4:	b083      	sub	sp, #12
 80024a6:	681a      	ldr	r2, [r3, #0]
 80024a8:	9201      	str	r2, [sp, #4]
 80024aa:	9a01      	ldr	r2, [sp, #4]
 80024ac:	681b      	ldr	r3, [r3, #0]
 80024ae:	429a      	cmp	r2, r3
 80024b0:	d105      	bne.n	80024be <_stats_start_measure_crit_thd+0x1e>
 80024b2:	4805      	ldr	r0, [pc, #20]	; (80024c8 <_stats_start_measure_crit_thd+0x28>)
 80024b4:	b003      	add	sp, #12
 80024b6:	f85d eb04 	ldr.w	lr, [sp], #4
 80024ba:	f7ff bf41 	b.w	8002340 <chTMStartMeasurementX>
 80024be:	f7fe feb7 	bl	8001230 <__stack_chk_fail>
 80024c2:	bf00      	nop
 80024c4:	20000800 	.word	0x20000800
 80024c8:	20001910 	.word	0x20001910
 80024cc:	00000000 	.word	0x00000000

080024d0 <_stats_stop_measure_crit_thd>:
 80024d0:	b500      	push	{lr}
 80024d2:	4b08      	ldr	r3, [pc, #32]	; (80024f4 <_stats_stop_measure_crit_thd+0x24>)
 80024d4:	b083      	sub	sp, #12
 80024d6:	681a      	ldr	r2, [r3, #0]
 80024d8:	9201      	str	r2, [sp, #4]
 80024da:	9a01      	ldr	r2, [sp, #4]
 80024dc:	681b      	ldr	r3, [r3, #0]
 80024de:	429a      	cmp	r2, r3
 80024e0:	d105      	bne.n	80024ee <_stats_stop_measure_crit_thd+0x1e>
 80024e2:	4805      	ldr	r0, [pc, #20]	; (80024f8 <_stats_stop_measure_crit_thd+0x28>)
 80024e4:	b003      	add	sp, #12
 80024e6:	f85d eb04 	ldr.w	lr, [sp], #4
 80024ea:	f7ff bf41 	b.w	8002370 <chTMStopMeasurementX>
 80024ee:	f7fe fe9f 	bl	8001230 <__stack_chk_fail>
 80024f2:	bf00      	nop
 80024f4:	20000800 	.word	0x20000800
 80024f8:	20001910 	.word	0x20001910
 80024fc:	00000000 	.word	0x00000000

08002500 <_stats_start_measure_crit_isr>:
 8002500:	b500      	push	{lr}
 8002502:	4b08      	ldr	r3, [pc, #32]	; (8002524 <_stats_start_measure_crit_isr+0x24>)
 8002504:	b083      	sub	sp, #12
 8002506:	681a      	ldr	r2, [r3, #0]
 8002508:	9201      	str	r2, [sp, #4]
 800250a:	9a01      	ldr	r2, [sp, #4]
 800250c:	681b      	ldr	r3, [r3, #0]
 800250e:	429a      	cmp	r2, r3
 8002510:	d105      	bne.n	800251e <_stats_start_measure_crit_isr+0x1e>
 8002512:	4805      	ldr	r0, [pc, #20]	; (8002528 <_stats_start_measure_crit_isr+0x28>)
 8002514:	b003      	add	sp, #12
 8002516:	f85d eb04 	ldr.w	lr, [sp], #4
 800251a:	f7ff bf11 	b.w	8002340 <chTMStartMeasurementX>
 800251e:	f7fe fe87 	bl	8001230 <__stack_chk_fail>
 8002522:	bf00      	nop
 8002524:	20000800 	.word	0x20000800
 8002528:	20001928 	.word	0x20001928
 800252c:	00000000 	.word	0x00000000

08002530 <_stats_stop_measure_crit_isr>:
 8002530:	b500      	push	{lr}
 8002532:	4b08      	ldr	r3, [pc, #32]	; (8002554 <_stats_stop_measure_crit_isr+0x24>)
 8002534:	b083      	sub	sp, #12
 8002536:	681a      	ldr	r2, [r3, #0]
 8002538:	9201      	str	r2, [sp, #4]
 800253a:	9a01      	ldr	r2, [sp, #4]
 800253c:	681b      	ldr	r3, [r3, #0]
 800253e:	429a      	cmp	r2, r3
 8002540:	d105      	bne.n	800254e <_stats_stop_measure_crit_isr+0x1e>
 8002542:	4805      	ldr	r0, [pc, #20]	; (8002558 <_stats_stop_measure_crit_isr+0x28>)
 8002544:	b003      	add	sp, #12
 8002546:	f85d eb04 	ldr.w	lr, [sp], #4
 800254a:	f7ff bf11 	b.w	8002370 <chTMStopMeasurementX>
 800254e:	f7fe fe6f 	bl	8001230 <__stack_chk_fail>
 8002552:	bf00      	nop
 8002554:	20000800 	.word	0x20000800
 8002558:	20001928 	.word	0x20001928
 800255c:	00000000 	.word	0x00000000

08002560 <chMtxLockS>:
 8002560:	b5f0      	push	{r4, r5, r6, r7, lr}
 8002562:	4e5d      	ldr	r6, [pc, #372]	; (80026d8 <chMtxLockS+0x178>)
 8002564:	4b5d      	ldr	r3, [pc, #372]	; (80026dc <chMtxLockS+0x17c>)
 8002566:	6832      	ldr	r2, [r6, #0]
 8002568:	699d      	ldr	r5, [r3, #24]
 800256a:	b083      	sub	sp, #12
 800256c:	4604      	mov	r4, r0
 800256e:	9201      	str	r2, [sp, #4]
 8002570:	f7ff f9ae 	bl	80018d0 <chDbgCheckClassS>
 8002574:	2c00      	cmp	r4, #0
 8002576:	f000 8084 	beq.w	8002682 <chMtxLockS+0x122>
 800257a:	68a0      	ldr	r0, [r4, #8]
 800257c:	6923      	ldr	r3, [r4, #16]
 800257e:	2800      	cmp	r0, #0
 8002580:	d043      	beq.n	800260a <chMtxLockS+0xaa>
 8002582:	2b00      	cmp	r3, #0
 8002584:	f340 8097 	ble.w	80026b6 <chMtxLockS+0x156>
 8002588:	4285      	cmp	r5, r0
 800258a:	d076      	beq.n	800267a <chMtxLockS+0x11a>
 800258c:	68aa      	ldr	r2, [r5, #8]
 800258e:	6883      	ldr	r3, [r0, #8]
 8002590:	429a      	cmp	r2, r3
 8002592:	d908      	bls.n	80025a6 <chMtxLockS+0x46>
 8002594:	f890 3020 	ldrb.w	r3, [r0, #32]
 8002598:	6082      	str	r2, [r0, #8]
 800259a:	2b06      	cmp	r3, #6
 800259c:	d040      	beq.n	8002620 <chMtxLockS+0xc0>
 800259e:	2b07      	cmp	r3, #7
 80025a0:	d073      	beq.n	800268a <chMtxLockS+0x12a>
 80025a2:	2b00      	cmp	r3, #0
 80025a4:	d05d      	beq.n	8002662 <chMtxLockS+0x102>
 80025a6:	4627      	mov	r7, r4
 80025a8:	4623      	mov	r3, r4
 80025aa:	e003      	b.n	80025b4 <chMtxLockS+0x54>
 80025ac:	6899      	ldr	r1, [r3, #8]
 80025ae:	68aa      	ldr	r2, [r5, #8]
 80025b0:	4291      	cmp	r1, r2
 80025b2:	d333      	bcc.n	800261c <chMtxLockS+0xbc>
 80025b4:	681b      	ldr	r3, [r3, #0]
 80025b6:	429c      	cmp	r4, r3
 80025b8:	d1f8      	bne.n	80025ac <chMtxLockS+0x4c>
 80025ba:	602f      	str	r7, [r5, #0]
 80025bc:	687b      	ldr	r3, [r7, #4]
 80025be:	606b      	str	r3, [r5, #4]
 80025c0:	2006      	movs	r0, #6
 80025c2:	601d      	str	r5, [r3, #0]
 80025c4:	607d      	str	r5, [r7, #4]
 80025c6:	62ac      	str	r4, [r5, #40]	; 0x28
 80025c8:	f7ff faca 	bl	8001b60 <chSchGoSleepS>
 80025cc:	68a3      	ldr	r3, [r4, #8]
 80025ce:	42ab      	cmp	r3, r5
 80025d0:	d002      	beq.n	80025d8 <chMtxLockS+0x78>
 80025d2:	4843      	ldr	r0, [pc, #268]	; (80026e0 <chMtxLockS+0x180>)
 80025d4:	f7ff f80c 	bl	80015f0 <chSysHalt>
 80025d8:	6c2b      	ldr	r3, [r5, #64]	; 0x40
 80025da:	42a3      	cmp	r3, r4
 80025dc:	d002      	beq.n	80025e4 <chMtxLockS+0x84>
 80025de:	4840      	ldr	r0, [pc, #256]	; (80026e0 <chMtxLockS+0x180>)
 80025e0:	f7ff f806 	bl	80015f0 <chSysHalt>
 80025e4:	6923      	ldr	r3, [r4, #16]
 80025e6:	2b01      	cmp	r3, #1
 80025e8:	d105      	bne.n	80025f6 <chMtxLockS+0x96>
 80025ea:	9a01      	ldr	r2, [sp, #4]
 80025ec:	6833      	ldr	r3, [r6, #0]
 80025ee:	429a      	cmp	r2, r3
 80025f0:	d16f      	bne.n	80026d2 <chMtxLockS+0x172>
 80025f2:	b003      	add	sp, #12
 80025f4:	bdf0      	pop	{r4, r5, r6, r7, pc}
 80025f6:	9a01      	ldr	r2, [sp, #4]
 80025f8:	6833      	ldr	r3, [r6, #0]
 80025fa:	429a      	cmp	r2, r3
 80025fc:	d169      	bne.n	80026d2 <chMtxLockS+0x172>
 80025fe:	4838      	ldr	r0, [pc, #224]	; (80026e0 <chMtxLockS+0x180>)
 8002600:	b003      	add	sp, #12
 8002602:	e8bd 40f0 	ldmia.w	sp!, {r4, r5, r6, r7, lr}
 8002606:	f7fe bff3 	b.w	80015f0 <chSysHalt>
 800260a:	2b00      	cmp	r3, #0
 800260c:	d158      	bne.n	80026c0 <chMtxLockS+0x160>
 800260e:	3301      	adds	r3, #1
 8002610:	60a5      	str	r5, [r4, #8]
 8002612:	6123      	str	r3, [r4, #16]
 8002614:	6c2b      	ldr	r3, [r5, #64]	; 0x40
 8002616:	60e3      	str	r3, [r4, #12]
 8002618:	642c      	str	r4, [r5, #64]	; 0x40
 800261a:	e7e6      	b.n	80025ea <chMtxLockS+0x8a>
 800261c:	461f      	mov	r7, r3
 800261e:	e7cc      	b.n	80025ba <chMtxLockS+0x5a>
 8002620:	e9d0 2300 	ldrd	r2, r3, [r0]
 8002624:	601a      	str	r2, [r3, #0]
 8002626:	e9d0 3200 	ldrd	r3, r2, [r0]
 800262a:	605a      	str	r2, [r3, #4]
 800262c:	6a87      	ldr	r7, [r0, #40]	; 0x28
 800262e:	463b      	mov	r3, r7
 8002630:	e003      	b.n	800263a <chMtxLockS+0xda>
 8002632:	6899      	ldr	r1, [r3, #8]
 8002634:	6882      	ldr	r2, [r0, #8]
 8002636:	4291      	cmp	r1, r2
 8002638:	d347      	bcc.n	80026ca <chMtxLockS+0x16a>
 800263a:	681b      	ldr	r3, [r3, #0]
 800263c:	429f      	cmp	r7, r3
 800263e:	d1f8      	bne.n	8002632 <chMtxLockS+0xd2>
 8002640:	6007      	str	r7, [r0, #0]
 8002642:	687b      	ldr	r3, [r7, #4]
 8002644:	6043      	str	r3, [r0, #4]
 8002646:	6018      	str	r0, [r3, #0]
 8002648:	6078      	str	r0, [r7, #4]
 800264a:	6a83      	ldr	r3, [r0, #40]	; 0x28
 800264c:	68aa      	ldr	r2, [r5, #8]
 800264e:	6898      	ldr	r0, [r3, #8]
 8002650:	6883      	ldr	r3, [r0, #8]
 8002652:	4293      	cmp	r3, r2
 8002654:	d2a7      	bcs.n	80025a6 <chMtxLockS+0x46>
 8002656:	f890 3020 	ldrb.w	r3, [r0, #32]
 800265a:	6082      	str	r2, [r0, #8]
 800265c:	2b06      	cmp	r3, #6
 800265e:	d19e      	bne.n	800259e <chMtxLockS+0x3e>
 8002660:	e7de      	b.n	8002620 <chMtxLockS+0xc0>
 8002662:	e9d0 2300 	ldrd	r2, r3, [r0]
 8002666:	2101      	movs	r1, #1
 8002668:	f880 1020 	strb.w	r1, [r0, #32]
 800266c:	601a      	str	r2, [r3, #0]
 800266e:	e9d0 3200 	ldrd	r3, r2, [r0]
 8002672:	605a      	str	r2, [r3, #4]
 8002674:	f7ff f9f4 	bl	8001a60 <chSchReadyI>
 8002678:	e795      	b.n	80025a6 <chMtxLockS+0x46>
 800267a:	6923      	ldr	r3, [r4, #16]
 800267c:	3301      	adds	r3, #1
 800267e:	6123      	str	r3, [r4, #16]
 8002680:	e7b3      	b.n	80025ea <chMtxLockS+0x8a>
 8002682:	4817      	ldr	r0, [pc, #92]	; (80026e0 <chMtxLockS+0x180>)
 8002684:	f7fe ffb4 	bl	80015f0 <chSysHalt>
 8002688:	e777      	b.n	800257a <chMtxLockS+0x1a>
 800268a:	e9d0 2300 	ldrd	r2, r3, [r0]
 800268e:	601a      	str	r2, [r3, #0]
 8002690:	e9d0 3200 	ldrd	r3, r2, [r0]
 8002694:	605a      	str	r2, [r3, #4]
 8002696:	6a87      	ldr	r7, [r0, #40]	; 0x28
 8002698:	463b      	mov	r3, r7
 800269a:	e003      	b.n	80026a4 <chMtxLockS+0x144>
 800269c:	6899      	ldr	r1, [r3, #8]
 800269e:	6882      	ldr	r2, [r0, #8]
 80026a0:	4291      	cmp	r1, r2
 80026a2:	d314      	bcc.n	80026ce <chMtxLockS+0x16e>
 80026a4:	681b      	ldr	r3, [r3, #0]
 80026a6:	429f      	cmp	r7, r3
 80026a8:	d1f8      	bne.n	800269c <chMtxLockS+0x13c>
 80026aa:	6007      	str	r7, [r0, #0]
 80026ac:	687b      	ldr	r3, [r7, #4]
 80026ae:	6043      	str	r3, [r0, #4]
 80026b0:	6018      	str	r0, [r3, #0]
 80026b2:	6078      	str	r0, [r7, #4]
 80026b4:	e777      	b.n	80025a6 <chMtxLockS+0x46>
 80026b6:	480a      	ldr	r0, [pc, #40]	; (80026e0 <chMtxLockS+0x180>)
 80026b8:	f7fe ff9a 	bl	80015f0 <chSysHalt>
 80026bc:	68a0      	ldr	r0, [r4, #8]
 80026be:	e763      	b.n	8002588 <chMtxLockS+0x28>
 80026c0:	4807      	ldr	r0, [pc, #28]	; (80026e0 <chMtxLockS+0x180>)
 80026c2:	f7fe ff95 	bl	80015f0 <chSysHalt>
 80026c6:	6923      	ldr	r3, [r4, #16]
 80026c8:	e7a1      	b.n	800260e <chMtxLockS+0xae>
 80026ca:	461f      	mov	r7, r3
 80026cc:	e7b8      	b.n	8002640 <chMtxLockS+0xe0>
 80026ce:	461f      	mov	r7, r3
 80026d0:	e7eb      	b.n	80026aa <chMtxLockS+0x14a>
 80026d2:	f7fe fdad 	bl	8001230 <__stack_chk_fail>
 80026d6:	bf00      	nop
 80026d8:	20000800 	.word	0x20000800
 80026dc:	20001458 	.word	0x20001458
 80026e0:	08008b20 	.word	0x08008b20
	...

080026f0 <chMtxLock>:
 80026f0:	b530      	push	{r4, r5, lr}
 80026f2:	4c15      	ldr	r4, [pc, #84]	; (8002748 <chMtxLock+0x58>)
 80026f4:	b083      	sub	sp, #12
 80026f6:	6823      	ldr	r3, [r4, #0]
 80026f8:	9301      	str	r3, [sp, #4]
 80026fa:	4605      	mov	r5, r0
 80026fc:	2320      	movs	r3, #32
 80026fe:	f383 8811 	msr	BASEPRI, r3
 8002702:	f7ff fecd 	bl	80024a0 <_stats_start_measure_crit_thd>
 8002706:	f7fe ffeb 	bl	80016e0 <_dbg_check_lock>
 800270a:	4628      	mov	r0, r5
 800270c:	f7ff ff28 	bl	8002560 <chMtxLockS>
 8002710:	f7ff f806 	bl	8001720 <_dbg_check_unlock>
 8002714:	f7ff fedc 	bl	80024d0 <_stats_stop_measure_crit_thd>
 8002718:	4b0c      	ldr	r3, [pc, #48]	; (800274c <chMtxLock+0x5c>)
 800271a:	681a      	ldr	r2, [r3, #0]
 800271c:	429a      	cmp	r2, r3
 800271e:	d004      	beq.n	800272a <chMtxLock+0x3a>
 8002720:	6999      	ldr	r1, [r3, #24]
 8002722:	6893      	ldr	r3, [r2, #8]
 8002724:	688a      	ldr	r2, [r1, #8]
 8002726:	429a      	cmp	r2, r3
 8002728:	d308      	bcc.n	800273c <chMtxLock+0x4c>
 800272a:	2300      	movs	r3, #0
 800272c:	f383 8811 	msr	BASEPRI, r3
 8002730:	9a01      	ldr	r2, [sp, #4]
 8002732:	6823      	ldr	r3, [r4, #0]
 8002734:	429a      	cmp	r2, r3
 8002736:	d105      	bne.n	8002744 <chMtxLock+0x54>
 8002738:	b003      	add	sp, #12
 800273a:	bd30      	pop	{r4, r5, pc}
 800273c:	4804      	ldr	r0, [pc, #16]	; (8002750 <chMtxLock+0x60>)
 800273e:	f7fe ff57 	bl	80015f0 <chSysHalt>
 8002742:	e7f2      	b.n	800272a <chMtxLock+0x3a>
 8002744:	f7fe fd74 	bl	8001230 <__stack_chk_fail>
 8002748:	20000800 	.word	0x20000800
 800274c:	20001458 	.word	0x20001458
 8002750:	08008b10 	.word	0x08008b10
	...

08002760 <chMtxUnlock>:
 8002760:	e92d 43f0 	stmdb	sp!, {r4, r5, r6, r7, r8, r9, lr}
 8002764:	f8df 8100 	ldr.w	r8, [pc, #256]	; 8002868 <chMtxUnlock+0x108>
 8002768:	4f3c      	ldr	r7, [pc, #240]	; (800285c <chMtxUnlock+0xfc>)
 800276a:	f8d8 3000 	ldr.w	r3, [r8]
 800276e:	69be      	ldr	r6, [r7, #24]
 8002770:	b083      	sub	sp, #12
 8002772:	4605      	mov	r5, r0
 8002774:	9301      	str	r3, [sp, #4]
 8002776:	2800      	cmp	r0, #0
 8002778:	d064      	beq.n	8002844 <chMtxUnlock+0xe4>
 800277a:	2320      	movs	r3, #32
 800277c:	f383 8811 	msr	BASEPRI, r3
 8002780:	f7ff fe8e 	bl	80024a0 <_stats_start_measure_crit_thd>
 8002784:	f7fe ffac 	bl	80016e0 <_dbg_check_lock>
 8002788:	6c33      	ldr	r3, [r6, #64]	; 0x40
 800278a:	2b00      	cmp	r3, #0
 800278c:	d05e      	beq.n	800284c <chMtxUnlock+0xec>
 800278e:	689b      	ldr	r3, [r3, #8]
 8002790:	42b3      	cmp	r3, r6
 8002792:	d002      	beq.n	800279a <chMtxUnlock+0x3a>
 8002794:	4832      	ldr	r0, [pc, #200]	; (8002860 <chMtxUnlock+0x100>)
 8002796:	f7fe ff2b 	bl	80015f0 <chSysHalt>
 800279a:	692b      	ldr	r3, [r5, #16]
 800279c:	2b00      	cmp	r3, #0
 800279e:	dd49      	ble.n	8002834 <chMtxUnlock+0xd4>
 80027a0:	3b01      	subs	r3, #1
 80027a2:	612b      	str	r3, [r5, #16]
 80027a4:	bb5b      	cbnz	r3, 80027fe <chMtxUnlock+0x9e>
 80027a6:	6c33      	ldr	r3, [r6, #64]	; 0x40
 80027a8:	42ab      	cmp	r3, r5
 80027aa:	d002      	beq.n	80027b2 <chMtxUnlock+0x52>
 80027ac:	482c      	ldr	r0, [pc, #176]	; (8002860 <chMtxUnlock+0x100>)
 80027ae:	f7fe ff1f 	bl	80015f0 <chSysHalt>
 80027b2:	68eb      	ldr	r3, [r5, #12]
 80027b4:	6433      	str	r3, [r6, #64]	; 0x40
 80027b6:	f7ff f88b 	bl	80018d0 <chDbgCheckClassS>
 80027ba:	682b      	ldr	r3, [r5, #0]
 80027bc:	429d      	cmp	r5, r3
 80027be:	d03e      	beq.n	800283e <chMtxUnlock+0xde>
 80027c0:	e9d6 4910 	ldrd	r4, r9, [r6, #64]	; 0x40
 80027c4:	b15c      	cbz	r4, 80027de <chMtxUnlock+0x7e>
 80027c6:	f7ff f883 	bl	80018d0 <chDbgCheckClassS>
 80027ca:	6823      	ldr	r3, [r4, #0]
 80027cc:	429c      	cmp	r4, r3
 80027ce:	d003      	beq.n	80027d8 <chMtxUnlock+0x78>
 80027d0:	689b      	ldr	r3, [r3, #8]
 80027d2:	4599      	cmp	r9, r3
 80027d4:	bf38      	it	cc
 80027d6:	4699      	movcc	r9, r3
 80027d8:	68e4      	ldr	r4, [r4, #12]
 80027da:	2c00      	cmp	r4, #0
 80027dc:	d1f3      	bne.n	80027c6 <chMtxUnlock+0x66>
 80027de:	f8c6 9008 	str.w	r9, [r6, #8]
 80027e2:	682b      	ldr	r3, [r5, #0]
 80027e4:	2201      	movs	r2, #1
 80027e6:	612a      	str	r2, [r5, #16]
 80027e8:	681a      	ldr	r2, [r3, #0]
 80027ea:	602a      	str	r2, [r5, #0]
 80027ec:	6055      	str	r5, [r2, #4]
 80027ee:	60ab      	str	r3, [r5, #8]
 80027f0:	6c1a      	ldr	r2, [r3, #64]	; 0x40
 80027f2:	60ea      	str	r2, [r5, #12]
 80027f4:	4618      	mov	r0, r3
 80027f6:	641d      	str	r5, [r3, #64]	; 0x40
 80027f8:	2100      	movs	r1, #0
 80027fa:	f7ff fa29 	bl	8001c50 <chSchWakeupS>
 80027fe:	f7fe ff8f 	bl	8001720 <_dbg_check_unlock>
 8002802:	f7ff fe65 	bl	80024d0 <_stats_stop_measure_crit_thd>
 8002806:	683b      	ldr	r3, [r7, #0]
 8002808:	42bb      	cmp	r3, r7
 800280a:	d004      	beq.n	8002816 <chMtxUnlock+0xb6>
 800280c:	69ba      	ldr	r2, [r7, #24]
 800280e:	689b      	ldr	r3, [r3, #8]
 8002810:	6892      	ldr	r2, [r2, #8]
 8002812:	429a      	cmp	r2, r3
 8002814:	d30a      	bcc.n	800282c <chMtxUnlock+0xcc>
 8002816:	2300      	movs	r3, #0
 8002818:	f383 8811 	msr	BASEPRI, r3
 800281c:	9a01      	ldr	r2, [sp, #4]
 800281e:	f8d8 3000 	ldr.w	r3, [r8]
 8002822:	429a      	cmp	r2, r3
 8002824:	d117      	bne.n	8002856 <chMtxUnlock+0xf6>
 8002826:	b003      	add	sp, #12
 8002828:	e8bd 83f0 	ldmia.w	sp!, {r4, r5, r6, r7, r8, r9, pc}
 800282c:	480d      	ldr	r0, [pc, #52]	; (8002864 <chMtxUnlock+0x104>)
 800282e:	f7fe fedf 	bl	80015f0 <chSysHalt>
 8002832:	e7f0      	b.n	8002816 <chMtxUnlock+0xb6>
 8002834:	480a      	ldr	r0, [pc, #40]	; (8002860 <chMtxUnlock+0x100>)
 8002836:	f7fe fedb 	bl	80015f0 <chSysHalt>
 800283a:	692b      	ldr	r3, [r5, #16]
 800283c:	e7b0      	b.n	80027a0 <chMtxUnlock+0x40>
 800283e:	2300      	movs	r3, #0
 8002840:	60ab      	str	r3, [r5, #8]
 8002842:	e7dc      	b.n	80027fe <chMtxUnlock+0x9e>
 8002844:	4806      	ldr	r0, [pc, #24]	; (8002860 <chMtxUnlock+0x100>)
 8002846:	f7fe fed3 	bl	80015f0 <chSysHalt>
 800284a:	e796      	b.n	800277a <chMtxUnlock+0x1a>
 800284c:	4804      	ldr	r0, [pc, #16]	; (8002860 <chMtxUnlock+0x100>)
 800284e:	f7fe fecf 	bl	80015f0 <chSysHalt>
 8002852:	6c33      	ldr	r3, [r6, #64]	; 0x40
 8002854:	e79b      	b.n	800278e <chMtxUnlock+0x2e>
 8002856:	f7fe fceb 	bl	8001230 <__stack_chk_fail>
 800285a:	bf00      	nop
 800285c:	20001458 	.word	0x20001458
 8002860:	08008b30 	.word	0x08008b30
 8002864:	08008b10 	.word	0x08008b10
 8002868:	20000800 	.word	0x20000800
 800286c:	00000000 	.word	0x00000000

08002870 <chEvtSignalI>:
 8002870:	b570      	push	{r4, r5, r6, lr}
 8002872:	4e18      	ldr	r6, [pc, #96]	; (80028d4 <chEvtSignalI+0x64>)
 8002874:	b082      	sub	sp, #8
 8002876:	4604      	mov	r4, r0
 8002878:	6833      	ldr	r3, [r6, #0]
 800287a:	9301      	str	r3, [sp, #4]
 800287c:	460d      	mov	r5, r1
 800287e:	f7fe ffff 	bl	8001880 <chDbgCheckClassI>
 8002882:	b30c      	cbz	r4, 80028c8 <chEvtSignalI+0x58>
 8002884:	6be1      	ldr	r1, [r4, #60]	; 0x3c
 8002886:	f894 3020 	ldrb.w	r3, [r4, #32]
 800288a:	4329      	orrs	r1, r5
 800288c:	2b0a      	cmp	r3, #10
 800288e:	63e1      	str	r1, [r4, #60]	; 0x3c
 8002890:	d016      	beq.n	80028c0 <chEvtSignalI+0x50>
 8002892:	2b0b      	cmp	r3, #11
 8002894:	d005      	beq.n	80028a2 <chEvtSignalI+0x32>
 8002896:	9a01      	ldr	r2, [sp, #4]
 8002898:	6833      	ldr	r3, [r6, #0]
 800289a:	429a      	cmp	r2, r3
 800289c:	d118      	bne.n	80028d0 <chEvtSignalI+0x60>
 800289e:	b002      	add	sp, #8
 80028a0:	bd70      	pop	{r4, r5, r6, pc}
 80028a2:	6aa3      	ldr	r3, [r4, #40]	; 0x28
 80028a4:	438b      	bics	r3, r1
 80028a6:	d1f6      	bne.n	8002896 <chEvtSignalI+0x26>
 80028a8:	9a01      	ldr	r2, [sp, #4]
 80028aa:	6833      	ldr	r3, [r6, #0]
 80028ac:	2100      	movs	r1, #0
 80028ae:	429a      	cmp	r2, r3
 80028b0:	62a1      	str	r1, [r4, #40]	; 0x28
 80028b2:	d10d      	bne.n	80028d0 <chEvtSignalI+0x60>
 80028b4:	4620      	mov	r0, r4
 80028b6:	b002      	add	sp, #8
 80028b8:	e8bd 4070 	ldmia.w	sp!, {r4, r5, r6, lr}
 80028bc:	f7ff b8d0 	b.w	8001a60 <chSchReadyI>
 80028c0:	6aa3      	ldr	r3, [r4, #40]	; 0x28
 80028c2:	4219      	tst	r1, r3
 80028c4:	d1f0      	bne.n	80028a8 <chEvtSignalI+0x38>
 80028c6:	e7e6      	b.n	8002896 <chEvtSignalI+0x26>
 80028c8:	4803      	ldr	r0, [pc, #12]	; (80028d8 <chEvtSignalI+0x68>)
 80028ca:	f7fe fe91 	bl	80015f0 <chSysHalt>
 80028ce:	e7d9      	b.n	8002884 <chEvtSignalI+0x14>
 80028d0:	f7fe fcae 	bl	8001230 <__stack_chk_fail>
 80028d4:	20000800 	.word	0x20000800
 80028d8:	08008b60 	.word	0x08008b60
 80028dc:	00000000 	.word	0x00000000

080028e0 <chEvtBroadcastFlagsI>:
 80028e0:	b5f0      	push	{r4, r5, r6, r7, lr}
 80028e2:	4f13      	ldr	r7, [pc, #76]	; (8002930 <chEvtBroadcastFlagsI+0x50>)
 80028e4:	b083      	sub	sp, #12
 80028e6:	4606      	mov	r6, r0
 80028e8:	683b      	ldr	r3, [r7, #0]
 80028ea:	9301      	str	r3, [sp, #4]
 80028ec:	460d      	mov	r5, r1
 80028ee:	f7fe ffc7 	bl	8001880 <chDbgCheckClassI>
 80028f2:	b1b6      	cbz	r6, 8002922 <chEvtBroadcastFlagsI+0x42>
 80028f4:	6834      	ldr	r4, [r6, #0]
 80028f6:	42a6      	cmp	r6, r4
 80028f8:	d00d      	beq.n	8002916 <chEvtBroadcastFlagsI+0x36>
 80028fa:	68e3      	ldr	r3, [r4, #12]
 80028fc:	432b      	orrs	r3, r5
 80028fe:	60e3      	str	r3, [r4, #12]
 8002900:	b115      	cbz	r5, 8002908 <chEvtBroadcastFlagsI+0x28>
 8002902:	6922      	ldr	r2, [r4, #16]
 8002904:	4213      	tst	r3, r2
 8002906:	d003      	beq.n	8002910 <chEvtBroadcastFlagsI+0x30>
 8002908:	e9d4 0101 	ldrd	r0, r1, [r4, #4]
 800290c:	f7ff ffb0 	bl	8002870 <chEvtSignalI>
 8002910:	6824      	ldr	r4, [r4, #0]
 8002912:	42a6      	cmp	r6, r4
 8002914:	d1f1      	bne.n	80028fa <chEvtBroadcastFlagsI+0x1a>
 8002916:	9a01      	ldr	r2, [sp, #4]
 8002918:	683b      	ldr	r3, [r7, #0]
 800291a:	429a      	cmp	r2, r3
 800291c:	d105      	bne.n	800292a <chEvtBroadcastFlagsI+0x4a>
 800291e:	b003      	add	sp, #12
 8002920:	bdf0      	pop	{r4, r5, r6, r7, pc}
 8002922:	4804      	ldr	r0, [pc, #16]	; (8002934 <chEvtBroadcastFlagsI+0x54>)
 8002924:	f7fe fe64 	bl	80015f0 <chSysHalt>
 8002928:	e7e4      	b.n	80028f4 <chEvtBroadcastFlagsI+0x14>
 800292a:	f7fe fc81 	bl	8001230 <__stack_chk_fail>
 800292e:	bf00      	nop
 8002930:	20000800 	.word	0x20000800
 8002934:	08008b40 	.word	0x08008b40
	...

08002940 <chIQPutI>:
 8002940:	b570      	push	{r4, r5, r6, lr}
 8002942:	4d16      	ldr	r5, [pc, #88]	; (800299c <chIQPutI+0x5c>)
 8002944:	b082      	sub	sp, #8
 8002946:	4604      	mov	r4, r0
 8002948:	682b      	ldr	r3, [r5, #0]
 800294a:	9301      	str	r3, [sp, #4]
 800294c:	460e      	mov	r6, r1
 800294e:	f7fe ff97 	bl	8001880 <chDbgCheckClassI>
 8002952:	f7fe ff95 	bl	8001880 <chDbgCheckClassI>
 8002956:	e9d4 2305 	ldrd	r2, r3, [r4, #20]
 800295a:	429a      	cmp	r2, r3
 800295c:	68a3      	ldr	r3, [r4, #8]
 800295e:	d016      	beq.n	800298e <chIQPutI+0x4e>
 8002960:	3301      	adds	r3, #1
 8002962:	1c51      	adds	r1, r2, #1
 8002964:	60a3      	str	r3, [r4, #8]
 8002966:	6161      	str	r1, [r4, #20]
 8002968:	7016      	strb	r6, [r2, #0]
 800296a:	e9d4 3204 	ldrd	r3, r2, [r4, #16]
 800296e:	429a      	cmp	r2, r3
 8002970:	d20a      	bcs.n	8002988 <chIQPutI+0x48>
 8002972:	4620      	mov	r0, r4
 8002974:	2100      	movs	r1, #0
 8002976:	f7ff fc63 	bl	8002240 <chThdDequeueNextI>
 800297a:	2000      	movs	r0, #0
 800297c:	9a01      	ldr	r2, [sp, #4]
 800297e:	682b      	ldr	r3, [r5, #0]
 8002980:	429a      	cmp	r2, r3
 8002982:	d109      	bne.n	8002998 <chIQPutI+0x58>
 8002984:	b002      	add	sp, #8
 8002986:	bd70      	pop	{r4, r5, r6, pc}
 8002988:	68e3      	ldr	r3, [r4, #12]
 800298a:	6163      	str	r3, [r4, #20]
 800298c:	e7f1      	b.n	8002972 <chIQPutI+0x32>
 800298e:	2b00      	cmp	r3, #0
 8002990:	d0e6      	beq.n	8002960 <chIQPutI+0x20>
 8002992:	f06f 0003 	mvn.w	r0, #3
 8002996:	e7f1      	b.n	800297c <chIQPutI+0x3c>
 8002998:	f7fe fc4a 	bl	8001230 <__stack_chk_fail>
 800299c:	20000800 	.word	0x20000800

080029a0 <chOQGetI>:
 80029a0:	b570      	push	{r4, r5, r6, lr}
 80029a2:	4e15      	ldr	r6, [pc, #84]	; (80029f8 <chOQGetI+0x58>)
 80029a4:	b082      	sub	sp, #8
 80029a6:	4604      	mov	r4, r0
 80029a8:	6833      	ldr	r3, [r6, #0]
 80029aa:	9301      	str	r3, [sp, #4]
 80029ac:	f7fe ff68 	bl	8001880 <chDbgCheckClassI>
 80029b0:	f7fe ff66 	bl	8001880 <chDbgCheckClassI>
 80029b4:	e9d4 3205 	ldrd	r3, r2, [r4, #20]
 80029b8:	4293      	cmp	r3, r2
 80029ba:	68a3      	ldr	r3, [r4, #8]
 80029bc:	d015      	beq.n	80029ea <chOQGetI+0x4a>
 80029be:	6920      	ldr	r0, [r4, #16]
 80029c0:	1c51      	adds	r1, r2, #1
 80029c2:	3301      	adds	r3, #1
 80029c4:	60a3      	str	r3, [r4, #8]
 80029c6:	61a1      	str	r1, [r4, #24]
 80029c8:	4281      	cmp	r1, r0
 80029ca:	7815      	ldrb	r5, [r2, #0]
 80029cc:	d20a      	bcs.n	80029e4 <chOQGetI+0x44>
 80029ce:	4620      	mov	r0, r4
 80029d0:	2100      	movs	r1, #0
 80029d2:	f7ff fc35 	bl	8002240 <chThdDequeueNextI>
 80029d6:	4628      	mov	r0, r5
 80029d8:	9a01      	ldr	r2, [sp, #4]
 80029da:	6833      	ldr	r3, [r6, #0]
 80029dc:	429a      	cmp	r2, r3
 80029de:	d109      	bne.n	80029f4 <chOQGetI+0x54>
 80029e0:	b002      	add	sp, #8
 80029e2:	bd70      	pop	{r4, r5, r6, pc}
 80029e4:	68e3      	ldr	r3, [r4, #12]
 80029e6:	61a3      	str	r3, [r4, #24]
 80029e8:	e7f1      	b.n	80029ce <chOQGetI+0x2e>
 80029ea:	2b00      	cmp	r3, #0
 80029ec:	d0e7      	beq.n	80029be <chOQGetI+0x1e>
 80029ee:	f06f 0002 	mvn.w	r0, #2
 80029f2:	e7f1      	b.n	80029d8 <chOQGetI+0x38>
 80029f4:	f7fe fc1c 	bl	8001230 <__stack_chk_fail>
 80029f8:	20000800 	.word	0x20000800
 80029fc:	00000000 	.word	0x00000000

08002a00 <chCoreAlloc>:
 8002a00:	b570      	push	{r4, r5, r6, lr}
 8002a02:	4e1c      	ldr	r6, [pc, #112]	; (8002a74 <chCoreAlloc+0x74>)
 8002a04:	b082      	sub	sp, #8
 8002a06:	6833      	ldr	r3, [r6, #0]
 8002a08:	9301      	str	r3, [sp, #4]
 8002a0a:	4604      	mov	r4, r0
 8002a0c:	2320      	movs	r3, #32
 8002a0e:	f383 8811 	msr	BASEPRI, r3
 8002a12:	f7ff fd45 	bl	80024a0 <_stats_start_measure_crit_thd>
 8002a16:	f7fe fe63 	bl	80016e0 <_dbg_check_lock>
 8002a1a:	f7fe ff31 	bl	8001880 <chDbgCheckClassI>
 8002a1e:	4a16      	ldr	r2, [pc, #88]	; (8002a78 <chCoreAlloc+0x78>)
 8002a20:	4b16      	ldr	r3, [pc, #88]	; (8002a7c <chCoreAlloc+0x7c>)
 8002a22:	6815      	ldr	r5, [r2, #0]
 8002a24:	681b      	ldr	r3, [r3, #0]
 8002a26:	1de0      	adds	r0, r4, #7
 8002a28:	f020 0007 	bic.w	r0, r0, #7
 8002a2c:	1b5b      	subs	r3, r3, r5
 8002a2e:	4298      	cmp	r0, r3
 8002a30:	bf9a      	itte	ls
 8002a32:	1940      	addls	r0, r0, r5
 8002a34:	6010      	strls	r0, [r2, #0]
 8002a36:	2500      	movhi	r5, #0
 8002a38:	f7fe fe72 	bl	8001720 <_dbg_check_unlock>
 8002a3c:	f7ff fd48 	bl	80024d0 <_stats_stop_measure_crit_thd>
 8002a40:	4b0f      	ldr	r3, [pc, #60]	; (8002a80 <chCoreAlloc+0x80>)
 8002a42:	681a      	ldr	r2, [r3, #0]
 8002a44:	429a      	cmp	r2, r3
 8002a46:	d004      	beq.n	8002a52 <chCoreAlloc+0x52>
 8002a48:	6999      	ldr	r1, [r3, #24]
 8002a4a:	6893      	ldr	r3, [r2, #8]
 8002a4c:	688a      	ldr	r2, [r1, #8]
 8002a4e:	429a      	cmp	r2, r3
 8002a50:	d309      	bcc.n	8002a66 <chCoreAlloc+0x66>
 8002a52:	2300      	movs	r3, #0
 8002a54:	f383 8811 	msr	BASEPRI, r3
 8002a58:	9a01      	ldr	r2, [sp, #4]
 8002a5a:	6833      	ldr	r3, [r6, #0]
 8002a5c:	429a      	cmp	r2, r3
 8002a5e:	4628      	mov	r0, r5
 8002a60:	d105      	bne.n	8002a6e <chCoreAlloc+0x6e>
 8002a62:	b002      	add	sp, #8
 8002a64:	bd70      	pop	{r4, r5, r6, pc}
 8002a66:	4807      	ldr	r0, [pc, #28]	; (8002a84 <chCoreAlloc+0x84>)
 8002a68:	f7fe fdc2 	bl	80015f0 <chSysHalt>
 8002a6c:	e7f1      	b.n	8002a52 <chCoreAlloc+0x52>
 8002a6e:	f7fe fbdf 	bl	8001230 <__stack_chk_fail>
 8002a72:	bf00      	nop
 8002a74:	20000800 	.word	0x20000800
 8002a78:	20001acc 	.word	0x20001acc
 8002a7c:	20001ac8 	.word	0x20001ac8
 8002a80:	20001458 	.word	0x20001458
 8002a84:	08008b70 	.word	0x08008b70
	...

08002a90 <SVC_Handler>:
 8002a90:	b580      	push	{r7, lr}
 8002a92:	4a0d      	ldr	r2, [pc, #52]	; (8002ac8 <SVC_Handler+0x38>)
 8002a94:	490d      	ldr	r1, [pc, #52]	; (8002acc <SVC_Handler+0x3c>)
 8002a96:	b082      	sub	sp, #8
 8002a98:	af00      	add	r7, sp, #0
 8002a9a:	6813      	ldr	r3, [r2, #0]
 8002a9c:	607b      	str	r3, [r7, #4]
 8002a9e:	684b      	ldr	r3, [r1, #4]
 8002aa0:	f023 0301 	bic.w	r3, r3, #1
 8002aa4:	604b      	str	r3, [r1, #4]
 8002aa6:	f3ef 8309 	mrs	r3, PSP
 8002aaa:	3368      	adds	r3, #104	; 0x68
 8002aac:	f383 8809 	msr	PSP, r3
 8002ab0:	2300      	movs	r3, #0
 8002ab2:	f383 8811 	msr	BASEPRI, r3
 8002ab6:	6879      	ldr	r1, [r7, #4]
 8002ab8:	6813      	ldr	r3, [r2, #0]
 8002aba:	4299      	cmp	r1, r3
 8002abc:	d102      	bne.n	8002ac4 <SVC_Handler+0x34>
 8002abe:	3708      	adds	r7, #8
 8002ac0:	46bd      	mov	sp, r7
 8002ac2:	bd80      	pop	{r7, pc}
 8002ac4:	f7fe fbb4 	bl	8001230 <__stack_chk_fail>
 8002ac8:	20000800 	.word	0x20000800
 8002acc:	e000ef30 	.word	0xe000ef30

08002ad0 <_port_irq_epilogue>:
 8002ad0:	b5b0      	push	{r4, r5, r7, lr}
 8002ad2:	4c19      	ldr	r4, [pc, #100]	; (8002b38 <_port_irq_epilogue+0x68>)
 8002ad4:	b082      	sub	sp, #8
 8002ad6:	af00      	add	r7, sp, #0
 8002ad8:	6823      	ldr	r3, [r4, #0]
 8002ada:	607b      	str	r3, [r7, #4]
 8002adc:	2320      	movs	r3, #32
 8002ade:	f383 8811 	msr	BASEPRI, r3
 8002ae2:	4b16      	ldr	r3, [pc, #88]	; (8002b3c <_port_irq_epilogue+0x6c>)
 8002ae4:	685b      	ldr	r3, [r3, #4]
 8002ae6:	f413 6300 	ands.w	r3, r3, #2048	; 0x800
 8002aea:	d108      	bne.n	8002afe <_port_irq_epilogue+0x2e>
 8002aec:	f383 8811 	msr	BASEPRI, r3
 8002af0:	687a      	ldr	r2, [r7, #4]
 8002af2:	6823      	ldr	r3, [r4, #0]
 8002af4:	429a      	cmp	r2, r3
 8002af6:	d11d      	bne.n	8002b34 <_port_irq_epilogue+0x64>
 8002af8:	3708      	adds	r7, #8
 8002afa:	46bd      	mov	sp, r7
 8002afc:	bdb0      	pop	{r4, r5, r7, pc}
 8002afe:	eef1 3a10 	vmrs	r3, fpscr
 8002b02:	f3ef 8509 	mrs	r5, PSP
 8002b06:	f04f 7280 	mov.w	r2, #16777216	; 0x1000000
 8002b0a:	4b0d      	ldr	r3, [pc, #52]	; (8002b40 <_port_irq_epilogue+0x70>)
 8002b0c:	f845 2c4c 	str.w	r2, [r5, #-76]
 8002b10:	68db      	ldr	r3, [r3, #12]
 8002b12:	f845 3c08 	str.w	r3, [r5, #-8]
 8002b16:	f1a5 0368 	sub.w	r3, r5, #104	; 0x68
 8002b1a:	f383 8809 	msr	PSP, r3
 8002b1e:	f7ff f8df 	bl	8001ce0 <chSchIsPreemptionRequired>
 8002b22:	b118      	cbz	r0, 8002b2c <_port_irq_epilogue+0x5c>
 8002b24:	4b07      	ldr	r3, [pc, #28]	; (8002b44 <_port_irq_epilogue+0x74>)
 8002b26:	f845 3c50 	str.w	r3, [r5, #-80]
 8002b2a:	e7e1      	b.n	8002af0 <_port_irq_epilogue+0x20>
 8002b2c:	4b06      	ldr	r3, [pc, #24]	; (8002b48 <_port_irq_epilogue+0x78>)
 8002b2e:	f845 3c50 	str.w	r3, [r5, #-80]
 8002b32:	e7dd      	b.n	8002af0 <_port_irq_epilogue+0x20>
 8002b34:	f7fe fb7c 	bl	8001230 <__stack_chk_fail>
 8002b38:	20000800 	.word	0x20000800
 8002b3c:	e000ed00 	.word	0xe000ed00
 8002b40:	e000ef30 	.word	0xe000ef30
 8002b44:	080002e1 	.word	0x080002e1
 8002b48:	080002f4 	.word	0x080002f4
 8002b4c:	00000000 	.word	0x00000000

08002b50 <sdIncomingDataI>:
 8002b50:	b570      	push	{r4, r5, r6, lr}
 8002b52:	4d17      	ldr	r5, [pc, #92]	; (8002bb0 <sdIncomingDataI+0x60>)
 8002b54:	b082      	sub	sp, #8
 8002b56:	4604      	mov	r4, r0
 8002b58:	682b      	ldr	r3, [r5, #0]
 8002b5a:	9301      	str	r3, [sp, #4]
 8002b5c:	460e      	mov	r6, r1
 8002b5e:	f7fe fe8f 	bl	8001880 <chDbgCheckClassI>
 8002b62:	b1f4      	cbz	r4, 8002ba2 <sdIncomingDataI+0x52>
 8002b64:	f7fe fe8c 	bl	8001880 <chDbgCheckClassI>
 8002b68:	6963      	ldr	r3, [r4, #20]
 8002b6a:	b163      	cbz	r3, 8002b86 <sdIncomingDataI+0x36>
 8002b6c:	4631      	mov	r1, r6
 8002b6e:	f104 000c 	add.w	r0, r4, #12
 8002b72:	f7ff fee5 	bl	8002940 <chIQPutI>
 8002b76:	2800      	cmp	r0, #0
 8002b78:	9a01      	ldr	r2, [sp, #4]
 8002b7a:	682b      	ldr	r3, [r5, #0]
 8002b7c:	db08      	blt.n	8002b90 <sdIncomingDataI+0x40>
 8002b7e:	429a      	cmp	r2, r3
 8002b80:	d113      	bne.n	8002baa <sdIncomingDataI+0x5a>
 8002b82:	b002      	add	sp, #8
 8002b84:	bd70      	pop	{r4, r5, r6, pc}
 8002b86:	2104      	movs	r1, #4
 8002b88:	1860      	adds	r0, r4, r1
 8002b8a:	f7ff fea9 	bl	80028e0 <chEvtBroadcastFlagsI>
 8002b8e:	e7ed      	b.n	8002b6c <sdIncomingDataI+0x1c>
 8002b90:	429a      	cmp	r2, r3
 8002b92:	d10a      	bne.n	8002baa <sdIncomingDataI+0x5a>
 8002b94:	1d20      	adds	r0, r4, #4
 8002b96:	2180      	movs	r1, #128	; 0x80
 8002b98:	b002      	add	sp, #8
 8002b9a:	e8bd 4070 	ldmia.w	sp!, {r4, r5, r6, lr}
 8002b9e:	f7ff be9f 	b.w	80028e0 <chEvtBroadcastFlagsI>
 8002ba2:	4804      	ldr	r0, [pc, #16]	; (8002bb4 <sdIncomingDataI+0x64>)
 8002ba4:	f7fe fd24 	bl	80015f0 <chSysHalt>
 8002ba8:	e7dc      	b.n	8002b64 <sdIncomingDataI+0x14>
 8002baa:	f7fe fb41 	bl	8001230 <__stack_chk_fail>
 8002bae:	bf00      	nop
 8002bb0:	20000800 	.word	0x20000800
 8002bb4:	08008b80 	.word	0x08008b80
	...

08002bc0 <usbStartReceiveI>:
 8002bc0:	b5f0      	push	{r4, r5, r6, r7, lr}
 8002bc2:	4d12      	ldr	r5, [pc, #72]	; (8002c0c <usbStartReceiveI+0x4c>)
 8002bc4:	b083      	sub	sp, #12
 8002bc6:	4604      	mov	r4, r0
 8002bc8:	682b      	ldr	r3, [r5, #0]
 8002bca:	9301      	str	r3, [sp, #4]
 8002bcc:	460e      	mov	r6, r1
 8002bce:	f7fe fe57 	bl	8001880 <chDbgCheckClassI>
 8002bd2:	b1a4      	cbz	r4, 8002bfe <usbStartReceiveI+0x3e>
 8002bd4:	2001      	movs	r0, #1
 8002bd6:	fa00 f306 	lsl.w	r3, r0, r6
 8002bda:	8962      	ldrh	r2, [r4, #10]
 8002bdc:	b29b      	uxth	r3, r3
 8002bde:	ea12 0703 	ands.w	r7, r2, r3
 8002be2:	d106      	bne.n	8002bf2 <usbStartReceiveI+0x32>
 8002be4:	4313      	orrs	r3, r2
 8002be6:	4620      	mov	r0, r4
 8002be8:	8163      	strh	r3, [r4, #10]
 8002bea:	4631      	mov	r1, r6
 8002bec:	f001 ff00 	bl	80049f0 <usb_lld_start_out>
 8002bf0:	4638      	mov	r0, r7
 8002bf2:	9a01      	ldr	r2, [sp, #4]
 8002bf4:	682b      	ldr	r3, [r5, #0]
 8002bf6:	429a      	cmp	r2, r3
 8002bf8:	d105      	bne.n	8002c06 <usbStartReceiveI+0x46>
 8002bfa:	b003      	add	sp, #12
 8002bfc:	bdf0      	pop	{r4, r5, r6, r7, pc}
 8002bfe:	4804      	ldr	r0, [pc, #16]	; (8002c10 <usbStartReceiveI+0x50>)
 8002c00:	f7fe fcf6 	bl	80015f0 <chSysHalt>
 8002c04:	e7e6      	b.n	8002bd4 <usbStartReceiveI+0x14>
 8002c06:	f7fe fb13 	bl	8001230 <__stack_chk_fail>
 8002c0a:	bf00      	nop
 8002c0c:	20000800 	.word	0x20000800
 8002c10:	08008b90 	.word	0x08008b90
	...

08002c20 <usbStartTransmitI>:
 8002c20:	b5f0      	push	{r4, r5, r6, r7, lr}
 8002c22:	4d12      	ldr	r5, [pc, #72]	; (8002c6c <usbStartTransmitI+0x4c>)
 8002c24:	b083      	sub	sp, #12
 8002c26:	4604      	mov	r4, r0
 8002c28:	682b      	ldr	r3, [r5, #0]
 8002c2a:	9301      	str	r3, [sp, #4]
 8002c2c:	460e      	mov	r6, r1
 8002c2e:	f7fe fe27 	bl	8001880 <chDbgCheckClassI>
 8002c32:	b1a4      	cbz	r4, 8002c5e <usbStartTransmitI+0x3e>
 8002c34:	2001      	movs	r0, #1
 8002c36:	fa00 f306 	lsl.w	r3, r0, r6
 8002c3a:	8922      	ldrh	r2, [r4, #8]
 8002c3c:	b29b      	uxth	r3, r3
 8002c3e:	ea12 0703 	ands.w	r7, r2, r3
 8002c42:	d106      	bne.n	8002c52 <usbStartTransmitI+0x32>
 8002c44:	4313      	orrs	r3, r2
 8002c46:	4620      	mov	r0, r4
 8002c48:	8123      	strh	r3, [r4, #8]
 8002c4a:	4631      	mov	r1, r6
 8002c4c:	f001 fef0 	bl	8004a30 <usb_lld_start_in>
 8002c50:	4638      	mov	r0, r7
 8002c52:	9a01      	ldr	r2, [sp, #4]
 8002c54:	682b      	ldr	r3, [r5, #0]
 8002c56:	429a      	cmp	r2, r3
 8002c58:	d105      	bne.n	8002c66 <usbStartTransmitI+0x46>
 8002c5a:	b003      	add	sp, #12
 8002c5c:	bdf0      	pop	{r4, r5, r6, r7, pc}
 8002c5e:	4804      	ldr	r0, [pc, #16]	; (8002c70 <usbStartTransmitI+0x50>)
 8002c60:	f7fe fcc6 	bl	80015f0 <chSysHalt>
 8002c64:	e7e6      	b.n	8002c34 <usbStartTransmitI+0x14>
 8002c66:	f7fe fae3 	bl	8001230 <__stack_chk_fail>
 8002c6a:	bf00      	nop
 8002c6c:	20000800 	.word	0x20000800
 8002c70:	08008bb0 	.word	0x08008bb0
	...

08002c80 <_usb_reset>:
 8002c80:	b510      	push	{r4, lr}
 8002c82:	4a0d      	ldr	r2, [pc, #52]	; (8002cb8 <_usb_reset+0x38>)
 8002c84:	b082      	sub	sp, #8
 8002c86:	6811      	ldr	r1, [r2, #0]
 8002c88:	9101      	str	r1, [sp, #4]
 8002c8a:	2102      	movs	r1, #2
 8002c8c:	7001      	strb	r1, [r0, #0]
 8002c8e:	9c01      	ldr	r4, [sp, #4]
 8002c90:	6811      	ldr	r1, [r2, #0]
 8002c92:	2200      	movs	r2, #0
 8002c94:	428c      	cmp	r4, r1
 8002c96:	64c2      	str	r2, [r0, #76]	; 0x4c
 8002c98:	e9c0 2202 	strd	r2, r2, [r0, #8]
 8002c9c:	e9c0 2204 	strd	r2, r2, [r0, #16]
 8002ca0:	6182      	str	r2, [r0, #24]
 8002ca2:	f880 2034 	strb.w	r2, [r0, #52]	; 0x34
 8002ca6:	d104      	bne.n	8002cb2 <_usb_reset+0x32>
 8002ca8:	b002      	add	sp, #8
 8002caa:	e8bd 4010 	ldmia.w	sp!, {r4, lr}
 8002cae:	f001 bbb7 	b.w	8004420 <usb_lld_reset>
 8002cb2:	f7fe fabd 	bl	8001230 <__stack_chk_fail>
 8002cb6:	bf00      	nop
 8002cb8:	20000800 	.word	0x20000800
 8002cbc:	00000000 	.word	0x00000000

08002cc0 <_usb_ep0setup>:
 8002cc0:	b5f0      	push	{r4, r5, r6, r7, lr}
 8002cc2:	4dc3      	ldr	r5, [pc, #780]	; (8002fd0 <_usb_ep0setup+0x310>)
 8002cc4:	b083      	sub	sp, #12
 8002cc6:	4604      	mov	r4, r0
 8002cc8:	2200      	movs	r2, #0
 8002cca:	682b      	ldr	r3, [r5, #0]
 8002ccc:	f880 2034 	strb.w	r2, [r0, #52]	; 0x34
 8002cd0:	f100 0244 	add.w	r2, r0, #68	; 0x44
 8002cd4:	9301      	str	r3, [sp, #4]
 8002cd6:	f001 fc7b 	bl	80045d0 <usb_lld_read_setup>
 8002cda:	6863      	ldr	r3, [r4, #4]
 8002cdc:	689b      	ldr	r3, [r3, #8]
 8002cde:	2b00      	cmp	r3, #0
 8002ce0:	d036      	beq.n	8002d50 <_usb_ep0setup+0x90>
 8002ce2:	4620      	mov	r0, r4
 8002ce4:	4798      	blx	r3
 8002ce6:	b398      	cbz	r0, 8002d50 <_usb_ep0setup+0x90>
 8002ce8:	6be1      	ldr	r1, [r4, #60]	; 0x3c
 8002cea:	f894 3044 	ldrb.w	r3, [r4, #68]	; 0x44
 8002cee:	f894 004b 	ldrb.w	r0, [r4, #75]	; 0x4b
 8002cf2:	f894 204a 	ldrb.w	r2, [r4, #74]	; 0x4a
 8002cf6:	ea42 2200 	orr.w	r2, r2, r0, lsl #8
 8002cfa:	428a      	cmp	r2, r1
 8002cfc:	bf2c      	ite	cs
 8002cfe:	460a      	movcs	r2, r1
 8002d00:	63e2      	strcc	r2, [r4, #60]	; 0x3c
 8002d02:	0618      	lsls	r0, r3, #24
 8002d04:	68e1      	ldr	r1, [r4, #12]
 8002d06:	f100 80a6 	bmi.w	8002e56 <_usb_ep0setup+0x196>
 8002d0a:	2a00      	cmp	r2, #0
 8002d0c:	f000 8084 	beq.w	8002e18 <_usb_ep0setup+0x158>
 8002d10:	2304      	movs	r3, #4
 8002d12:	f884 3034 	strb.w	r3, [r4, #52]	; 0x34
 8002d16:	698b      	ldr	r3, [r1, #24]
 8002d18:	6ba1      	ldr	r1, [r4, #56]	; 0x38
 8002d1a:	60d9      	str	r1, [r3, #12]
 8002d1c:	2600      	movs	r6, #0
 8002d1e:	605a      	str	r2, [r3, #4]
 8002d20:	701e      	strb	r6, [r3, #0]
 8002d22:	609e      	str	r6, [r3, #8]
 8002d24:	4631      	mov	r1, r6
 8002d26:	4620      	mov	r0, r4
 8002d28:	f001 fc6a 	bl	8004600 <usb_lld_prepare_receive>
 8002d2c:	2320      	movs	r3, #32
 8002d2e:	f383 8811 	msr	BASEPRI, r3
 8002d32:	f7ff fbe5 	bl	8002500 <_stats_start_measure_crit_isr>
 8002d36:	f7fe fd13 	bl	8001760 <_dbg_check_lock_from_isr>
 8002d3a:	4631      	mov	r1, r6
 8002d3c:	4620      	mov	r0, r4
 8002d3e:	f7ff ff3f 	bl	8002bc0 <usbStartReceiveI>
 8002d42:	f7fe fd2d 	bl	80017a0 <_dbg_check_unlock_from_isr>
 8002d46:	f7ff fbf3 	bl	8002530 <_stats_stop_measure_crit_isr>
 8002d4a:	f386 8811 	msr	BASEPRI, r6
 8002d4e:	e016      	b.n	8002d7e <_usb_ep0setup+0xbe>
 8002d50:	f894 3044 	ldrb.w	r3, [r4, #68]	; 0x44
 8002d54:	f013 0660 	ands.w	r6, r3, #96	; 0x60
 8002d58:	4618      	mov	r0, r3
 8002d5a:	d017      	beq.n	8002d8c <_usb_ep0setup+0xcc>
 8002d5c:	2100      	movs	r1, #0
 8002d5e:	4620      	mov	r0, r4
 8002d60:	f001 feae 	bl	8004ac0 <usb_lld_stall_in>
 8002d64:	2100      	movs	r1, #0
 8002d66:	4620      	mov	r0, r4
 8002d68:	f001 fe8a 	bl	8004a80 <usb_lld_stall_out>
 8002d6c:	6863      	ldr	r3, [r4, #4]
 8002d6e:	681b      	ldr	r3, [r3, #0]
 8002d70:	b113      	cbz	r3, 8002d78 <_usb_ep0setup+0xb8>
 8002d72:	2105      	movs	r1, #5
 8002d74:	4620      	mov	r0, r4
 8002d76:	4798      	blx	r3
 8002d78:	2306      	movs	r3, #6
 8002d7a:	f884 3034 	strb.w	r3, [r4, #52]	; 0x34
 8002d7e:	9a01      	ldr	r2, [sp, #4]
 8002d80:	682b      	ldr	r3, [r5, #0]
 8002d82:	429a      	cmp	r2, r3
 8002d84:	f040 813a 	bne.w	8002ffc <_usb_ep0setup+0x33c>
 8002d88:	b003      	add	sp, #12
 8002d8a:	bdf0      	pop	{r4, r5, r6, r7, pc}
 8002d8c:	f894 1045 	ldrb.w	r1, [r4, #69]	; 0x45
 8002d90:	f003 027f 	and.w	r2, r3, #127	; 0x7f
 8002d94:	ea42 2201 	orr.w	r2, r2, r1, lsl #8
 8002d98:	f5b2 7f40 	cmp.w	r2, #768	; 0x300
 8002d9c:	f000 8105 	beq.w	8002faa <_usb_ep0setup+0x2ea>
 8002da0:	d917      	bls.n	8002dd2 <_usb_ep0setup+0x112>
 8002da2:	f5b2 6fc0 	cmp.w	r2, #1536	; 0x600
 8002da6:	f000 80c6 	beq.w	8002f36 <_usb_ep0setup+0x276>
 8002daa:	f240 808a 	bls.w	8002ec2 <_usb_ep0setup+0x202>
 8002dae:	f5b2 6f10 	cmp.w	r2, #2304	; 0x900
 8002db2:	d064      	beq.n	8002e7e <_usb_ep0setup+0x1be>
 8002db4:	f640 4102 	movw	r1, #3074	; 0xc02
 8002db8:	428a      	cmp	r2, r1
 8002dba:	f000 80d8 	beq.w	8002f6e <_usb_ep0setup+0x2ae>
 8002dbe:	f5b2 6f00 	cmp.w	r2, #2048	; 0x800
 8002dc2:	d1cb      	bne.n	8002d5c <_usb_ep0setup+0x9c>
 8002dc4:	f104 024f 	add.w	r2, r4, #79	; 0x4f
 8002dc8:	2101      	movs	r1, #1
 8002dca:	6426      	str	r6, [r4, #64]	; 0x40
 8002dcc:	e9c4 210e 	strd	r2, r1, [r4, #56]	; 0x38
 8002dd0:	e78d      	b.n	8002cee <_usb_ep0setup+0x2e>
 8002dd2:	2a02      	cmp	r2, #2
 8002dd4:	f000 80d2 	beq.w	8002f7c <_usb_ep0setup+0x2bc>
 8002dd8:	f240 8092 	bls.w	8002f00 <_usb_ep0setup+0x240>
 8002ddc:	f5b2 7f80 	cmp.w	r2, #256	; 0x100
 8002de0:	d060      	beq.n	8002ea4 <_usb_ep0setup+0x1e4>
 8002de2:	f5b2 7f81 	cmp.w	r2, #258	; 0x102
 8002de6:	d1b9      	bne.n	8002d5c <_usb_ep0setup+0x9c>
 8002de8:	f894 3046 	ldrb.w	r3, [r4, #70]	; 0x46
 8002dec:	2b00      	cmp	r3, #0
 8002dee:	d1b5      	bne.n	8002d5c <_usb_ep0setup+0x9c>
 8002df0:	f894 3048 	ldrb.w	r3, [r4, #72]	; 0x48
 8002df4:	f013 010f 	ands.w	r1, r3, #15
 8002df8:	d007      	beq.n	8002e0a <_usb_ep0setup+0x14a>
 8002dfa:	061f      	lsls	r7, r3, #24
 8002dfc:	4620      	mov	r0, r4
 8002dfe:	f100 80f3 	bmi.w	8002fe8 <_usb_ep0setup+0x328>
 8002e02:	f001 fe7d 	bl	8004b00 <usb_lld_clear_out>
 8002e06:	f894 0044 	ldrb.w	r0, [r4, #68]	; 0x44
 8002e0a:	2300      	movs	r3, #0
 8002e0c:	e9c4 330e 	strd	r3, r3, [r4, #56]	; 0x38
 8002e10:	6423      	str	r3, [r4, #64]	; 0x40
 8002e12:	0603      	lsls	r3, r0, #24
 8002e14:	68e1      	ldr	r1, [r4, #12]
 8002e16:	d429      	bmi.n	8002e6c <_usb_ep0setup+0x1ac>
 8002e18:	2305      	movs	r3, #5
 8002e1a:	f884 3034 	strb.w	r3, [r4, #52]	; 0x34
 8002e1e:	694b      	ldr	r3, [r1, #20]
 8002e20:	2600      	movs	r6, #0
 8002e22:	701e      	strb	r6, [r3, #0]
 8002e24:	60de      	str	r6, [r3, #12]
 8002e26:	605e      	str	r6, [r3, #4]
 8002e28:	609e      	str	r6, [r3, #8]
 8002e2a:	4631      	mov	r1, r6
 8002e2c:	4620      	mov	r0, r4
 8002e2e:	f001 fc87 	bl	8004740 <usb_lld_prepare_transmit>
 8002e32:	2320      	movs	r3, #32
 8002e34:	f383 8811 	msr	BASEPRI, r3
 8002e38:	f7ff fb62 	bl	8002500 <_stats_start_measure_crit_isr>
 8002e3c:	f7fe fc90 	bl	8001760 <_dbg_check_lock_from_isr>
 8002e40:	4631      	mov	r1, r6
 8002e42:	4620      	mov	r0, r4
 8002e44:	f7ff feec 	bl	8002c20 <usbStartTransmitI>
 8002e48:	f7fe fcaa 	bl	80017a0 <_dbg_check_unlock_from_isr>
 8002e4c:	f7ff fb70 	bl	8002530 <_stats_stop_measure_crit_isr>
 8002e50:	f386 8811 	msr	BASEPRI, r6
 8002e54:	e793      	b.n	8002d7e <_usb_ep0setup+0xbe>
 8002e56:	b14a      	cbz	r2, 8002e6c <_usb_ep0setup+0x1ac>
 8002e58:	2301      	movs	r3, #1
 8002e5a:	f884 3034 	strb.w	r3, [r4, #52]	; 0x34
 8002e5e:	694b      	ldr	r3, [r1, #20]
 8002e60:	6ba1      	ldr	r1, [r4, #56]	; 0x38
 8002e62:	60d9      	str	r1, [r3, #12]
 8002e64:	2600      	movs	r6, #0
 8002e66:	605a      	str	r2, [r3, #4]
 8002e68:	701e      	strb	r6, [r3, #0]
 8002e6a:	e7dd      	b.n	8002e28 <_usb_ep0setup+0x168>
 8002e6c:	2303      	movs	r3, #3
 8002e6e:	f884 3034 	strb.w	r3, [r4, #52]	; 0x34
 8002e72:	698b      	ldr	r3, [r1, #24]
 8002e74:	2600      	movs	r6, #0
 8002e76:	701e      	strb	r6, [r3, #0]
 8002e78:	60de      	str	r6, [r3, #12]
 8002e7a:	605e      	str	r6, [r3, #4]
 8002e7c:	e751      	b.n	8002d22 <_usb_ep0setup+0x62>
 8002e7e:	f894 3046 	ldrb.w	r3, [r4, #70]	; 0x46
 8002e82:	f884 304f 	strb.w	r3, [r4, #79]	; 0x4f
 8002e86:	2b00      	cmp	r3, #0
 8002e88:	f040 809e 	bne.w	8002fc8 <_usb_ep0setup+0x308>
 8002e8c:	2303      	movs	r3, #3
 8002e8e:	7023      	strb	r3, [r4, #0]
 8002e90:	6863      	ldr	r3, [r4, #4]
 8002e92:	681b      	ldr	r3, [r3, #0]
 8002e94:	2b00      	cmp	r3, #0
 8002e96:	d0b8      	beq.n	8002e0a <_usb_ep0setup+0x14a>
 8002e98:	4620      	mov	r0, r4
 8002e9a:	2102      	movs	r1, #2
 8002e9c:	4798      	blx	r3
 8002e9e:	f894 0044 	ldrb.w	r0, [r4, #68]	; 0x44
 8002ea2:	e7b2      	b.n	8002e0a <_usb_ep0setup+0x14a>
 8002ea4:	f894 3046 	ldrb.w	r3, [r4, #70]	; 0x46
 8002ea8:	2b01      	cmp	r3, #1
 8002eaa:	f47f af57 	bne.w	8002d5c <_usb_ep0setup+0x9c>
 8002eae:	f8b4 304c 	ldrh.w	r3, [r4, #76]	; 0x4c
 8002eb2:	63a6      	str	r6, [r4, #56]	; 0x38
 8002eb4:	f023 0302 	bic.w	r3, r3, #2
 8002eb8:	e9c4 660f 	strd	r6, r6, [r4, #60]	; 0x3c
 8002ebc:	f8a4 304c 	strh.w	r3, [r4, #76]	; 0x4c
 8002ec0:	e7a7      	b.n	8002e12 <_usb_ep0setup+0x152>
 8002ec2:	f240 3302 	movw	r3, #770	; 0x302
 8002ec6:	429a      	cmp	r2, r3
 8002ec8:	d022      	beq.n	8002f10 <_usb_ep0setup+0x250>
 8002eca:	f5b2 6fa0 	cmp.w	r2, #1280	; 0x500
 8002ece:	f47f af45 	bne.w	8002d5c <_usb_ep0setup+0x9c>
 8002ed2:	f8b4 3044 	ldrh.w	r3, [r4, #68]	; 0x44
 8002ed6:	f5b3 6fa0 	cmp.w	r3, #1280	; 0x500
 8002eda:	d196      	bne.n	8002e0a <_usb_ep0setup+0x14a>
 8002edc:	f894 3046 	ldrb.w	r3, [r4, #70]	; 0x46
 8002ee0:	f884 304e 	strb.w	r3, [r4, #78]	; 0x4e
 8002ee4:	4620      	mov	r0, r4
 8002ee6:	f001 fb13 	bl	8004510 <usb_lld_set_address>
 8002eea:	6863      	ldr	r3, [r4, #4]
 8002eec:	681b      	ldr	r3, [r3, #0]
 8002eee:	b113      	cbz	r3, 8002ef6 <_usb_ep0setup+0x236>
 8002ef0:	2101      	movs	r1, #1
 8002ef2:	4620      	mov	r0, r4
 8002ef4:	4798      	blx	r3
 8002ef6:	2303      	movs	r3, #3
 8002ef8:	f894 0044 	ldrb.w	r0, [r4, #68]	; 0x44
 8002efc:	7023      	strb	r3, [r4, #0]
 8002efe:	e784      	b.n	8002e0a <_usb_ep0setup+0x14a>
 8002f00:	bb92      	cbnz	r2, 8002f68 <_usb_ep0setup+0x2a8>
 8002f02:	f104 004c 	add.w	r0, r4, #76	; 0x4c
 8002f06:	2102      	movs	r1, #2
 8002f08:	6422      	str	r2, [r4, #64]	; 0x40
 8002f0a:	e9c4 010e 	strd	r0, r1, [r4, #56]	; 0x38
 8002f0e:	e6ee      	b.n	8002cee <_usb_ep0setup+0x2e>
 8002f10:	f894 3046 	ldrb.w	r3, [r4, #70]	; 0x46
 8002f14:	2b00      	cmp	r3, #0
 8002f16:	f47f af21 	bne.w	8002d5c <_usb_ep0setup+0x9c>
 8002f1a:	f894 3048 	ldrb.w	r3, [r4, #72]	; 0x48
 8002f1e:	f013 010f 	ands.w	r1, r3, #15
 8002f22:	f43f af72 	beq.w	8002e0a <_usb_ep0setup+0x14a>
 8002f26:	061e      	lsls	r6, r3, #24
 8002f28:	4620      	mov	r0, r4
 8002f2a:	d462      	bmi.n	8002ff2 <_usb_ep0setup+0x332>
 8002f2c:	f001 fda8 	bl	8004a80 <usb_lld_stall_out>
 8002f30:	f894 0044 	ldrb.w	r0, [r4, #68]	; 0x44
 8002f34:	e769      	b.n	8002e0a <_usb_ep0setup+0x14a>
 8002f36:	f894 0049 	ldrb.w	r0, [r4, #73]	; 0x49
 8002f3a:	6861      	ldr	r1, [r4, #4]
 8002f3c:	f894 3048 	ldrb.w	r3, [r4, #72]	; 0x48
 8002f40:	684f      	ldr	r7, [r1, #4]
 8002f42:	f894 2046 	ldrb.w	r2, [r4, #70]	; 0x46
 8002f46:	f894 1047 	ldrb.w	r1, [r4, #71]	; 0x47
 8002f4a:	ea43 2300 	orr.w	r3, r3, r0, lsl #8
 8002f4e:	4620      	mov	r0, r4
 8002f50:	47b8      	blx	r7
 8002f52:	2800      	cmp	r0, #0
 8002f54:	f43f af02 	beq.w	8002d5c <_usb_ep0setup+0x9c>
 8002f58:	6843      	ldr	r3, [r0, #4]
 8002f5a:	63a3      	str	r3, [r4, #56]	; 0x38
 8002f5c:	6801      	ldr	r1, [r0, #0]
 8002f5e:	f894 3044 	ldrb.w	r3, [r4, #68]	; 0x44
 8002f62:	e9c4 160f 	strd	r1, r6, [r4, #60]	; 0x3c
 8002f66:	e6c2      	b.n	8002cee <_usb_ep0setup+0x2e>
 8002f68:	2a01      	cmp	r2, #1
 8002f6a:	f47f aef7 	bne.w	8002d5c <_usb_ep0setup+0x9c>
 8002f6e:	4a19      	ldr	r2, [pc, #100]	; (8002fd4 <_usb_ep0setup+0x314>)
 8002f70:	63a2      	str	r2, [r4, #56]	; 0x38
 8002f72:	2102      	movs	r1, #2
 8002f74:	2200      	movs	r2, #0
 8002f76:	e9c4 120f 	strd	r1, r2, [r4, #60]	; 0x3c
 8002f7a:	e6b8      	b.n	8002cee <_usb_ep0setup+0x2e>
 8002f7c:	f894 3048 	ldrb.w	r3, [r4, #72]	; 0x48
 8002f80:	f003 010f 	and.w	r1, r3, #15
 8002f84:	061b      	lsls	r3, r3, #24
 8002f86:	4620      	mov	r0, r4
 8002f88:	d428      	bmi.n	8002fdc <_usb_ep0setup+0x31c>
 8002f8a:	f001 fae1 	bl	8004550 <usb_lld_get_status_out>
 8002f8e:	2801      	cmp	r0, #1
 8002f90:	d028      	beq.n	8002fe4 <_usb_ep0setup+0x324>
 8002f92:	2802      	cmp	r0, #2
 8002f94:	f47f aee2 	bne.w	8002d5c <_usb_ep0setup+0x9c>
 8002f98:	4b0f      	ldr	r3, [pc, #60]	; (8002fd8 <_usb_ep0setup+0x318>)
 8002f9a:	63a3      	str	r3, [r4, #56]	; 0x38
 8002f9c:	2102      	movs	r1, #2
 8002f9e:	2300      	movs	r3, #0
 8002fa0:	e9c4 130f 	strd	r1, r3, [r4, #60]	; 0x3c
 8002fa4:	f894 3044 	ldrb.w	r3, [r4, #68]	; 0x44
 8002fa8:	e6a1      	b.n	8002cee <_usb_ep0setup+0x2e>
 8002faa:	f894 3046 	ldrb.w	r3, [r4, #70]	; 0x46
 8002fae:	2b01      	cmp	r3, #1
 8002fb0:	f47f aed4 	bne.w	8002d5c <_usb_ep0setup+0x9c>
 8002fb4:	f8b4 304c 	ldrh.w	r3, [r4, #76]	; 0x4c
 8002fb8:	63a6      	str	r6, [r4, #56]	; 0x38
 8002fba:	f043 0302 	orr.w	r3, r3, #2
 8002fbe:	e9c4 660f 	strd	r6, r6, [r4, #60]	; 0x3c
 8002fc2:	f8a4 304c 	strh.w	r3, [r4, #76]	; 0x4c
 8002fc6:	e724      	b.n	8002e12 <_usb_ep0setup+0x152>
 8002fc8:	2304      	movs	r3, #4
 8002fca:	7023      	strb	r3, [r4, #0]
 8002fcc:	e760      	b.n	8002e90 <_usb_ep0setup+0x1d0>
 8002fce:	bf00      	nop
 8002fd0:	20000800 	.word	0x20000800
 8002fd4:	08008c10 	.word	0x08008c10
 8002fd8:	08008bf0 	.word	0x08008bf0
 8002fdc:	f001 fad8 	bl	8004590 <usb_lld_get_status_in>
 8002fe0:	2801      	cmp	r0, #1
 8002fe2:	d1d6      	bne.n	8002f92 <_usb_ep0setup+0x2d2>
 8002fe4:	4b06      	ldr	r3, [pc, #24]	; (8003000 <_usb_ep0setup+0x340>)
 8002fe6:	e7d8      	b.n	8002f9a <_usb_ep0setup+0x2da>
 8002fe8:	f001 fdaa 	bl	8004b40 <usb_lld_clear_in>
 8002fec:	f894 0044 	ldrb.w	r0, [r4, #68]	; 0x44
 8002ff0:	e70b      	b.n	8002e0a <_usb_ep0setup+0x14a>
 8002ff2:	f001 fd65 	bl	8004ac0 <usb_lld_stall_in>
 8002ff6:	f894 0044 	ldrb.w	r0, [r4, #68]	; 0x44
 8002ffa:	e706      	b.n	8002e0a <_usb_ep0setup+0x14a>
 8002ffc:	f7fe f918 	bl	8001230 <__stack_chk_fail>
 8003000:	08008c00 	.word	0x08008c00
	...

08003010 <_usb_ep0in>:
 8003010:	b570      	push	{r4, r5, r6, lr}
 8003012:	4d45      	ldr	r5, [pc, #276]	; (8003128 <_usb_ep0in+0x118>)
 8003014:	f890 3034 	ldrb.w	r3, [r0, #52]	; 0x34
 8003018:	682a      	ldr	r2, [r5, #0]
 800301a:	b082      	sub	sp, #8
 800301c:	4604      	mov	r4, r0
 800301e:	9201      	str	r2, [sp, #4]
 8003020:	2b06      	cmp	r3, #6
 8003022:	d857      	bhi.n	80030d4 <_usb_ep0in+0xc4>
 8003024:	e8df f003 	tbb	[pc, r3]
 8003028:	04542504 	.word	0x04542504
 800302c:	1e04      	.short	0x1e04
 800302e:	07          	.byte	0x07
 800302f:	00          	.byte	0x00
 8003030:	483e      	ldr	r0, [pc, #248]	; (800312c <_usb_ep0in+0x11c>)
 8003032:	f7fe fadd 	bl	80015f0 <chSysHalt>
 8003036:	2100      	movs	r1, #0
 8003038:	4620      	mov	r0, r4
 800303a:	f001 fd41 	bl	8004ac0 <usb_lld_stall_in>
 800303e:	2100      	movs	r1, #0
 8003040:	4620      	mov	r0, r4
 8003042:	f001 fd1d 	bl	8004a80 <usb_lld_stall_out>
 8003046:	6863      	ldr	r3, [r4, #4]
 8003048:	681b      	ldr	r3, [r3, #0]
 800304a:	b113      	cbz	r3, 8003052 <_usb_ep0in+0x42>
 800304c:	2105      	movs	r1, #5
 800304e:	4620      	mov	r0, r4
 8003050:	4798      	blx	r3
 8003052:	2306      	movs	r3, #6
 8003054:	f884 3034 	strb.w	r3, [r4, #52]	; 0x34
 8003058:	9a01      	ldr	r2, [sp, #4]
 800305a:	682b      	ldr	r3, [r5, #0]
 800305c:	429a      	cmp	r2, r3
 800305e:	d161      	bne.n	8003124 <_usb_ep0in+0x114>
 8003060:	b002      	add	sp, #8
 8003062:	bd70      	pop	{r4, r5, r6, pc}
 8003064:	6c03      	ldr	r3, [r0, #64]	; 0x40
 8003066:	b103      	cbz	r3, 800306a <_usb_ep0in+0x5a>
 8003068:	4798      	blx	r3
 800306a:	2300      	movs	r3, #0
 800306c:	f884 3034 	strb.w	r3, [r4, #52]	; 0x34
 8003070:	e7f2      	b.n	8003058 <_usb_ep0in+0x48>
 8003072:	f890 004b 	ldrb.w	r0, [r0, #75]	; 0x4b
 8003076:	f894 204a 	ldrb.w	r2, [r4, #74]	; 0x4a
 800307a:	6be1      	ldr	r1, [r4, #60]	; 0x3c
 800307c:	68e3      	ldr	r3, [r4, #12]
 800307e:	ea42 2200 	orr.w	r2, r2, r0, lsl #8
 8003082:	4291      	cmp	r1, r2
 8003084:	d205      	bcs.n	8003092 <_usb_ep0in+0x82>
 8003086:	8a1a      	ldrh	r2, [r3, #16]
 8003088:	fbb1 f6f2 	udiv	r6, r1, r2
 800308c:	fb02 1616 	mls	r6, r2, r6, r1
 8003090:	b356      	cbz	r6, 80030e8 <_usb_ep0in+0xd8>
 8003092:	2203      	movs	r2, #3
 8003094:	f884 2034 	strb.w	r2, [r4, #52]	; 0x34
 8003098:	699b      	ldr	r3, [r3, #24]
 800309a:	2600      	movs	r6, #0
 800309c:	701e      	strb	r6, [r3, #0]
 800309e:	60de      	str	r6, [r3, #12]
 80030a0:	e9c3 6601 	strd	r6, r6, [r3, #4]
 80030a4:	4631      	mov	r1, r6
 80030a6:	4620      	mov	r0, r4
 80030a8:	f001 faaa 	bl	8004600 <usb_lld_prepare_receive>
 80030ac:	2320      	movs	r3, #32
 80030ae:	f383 8811 	msr	BASEPRI, r3
 80030b2:	f7ff fa25 	bl	8002500 <_stats_start_measure_crit_isr>
 80030b6:	f7fe fb53 	bl	8001760 <_dbg_check_lock_from_isr>
 80030ba:	4631      	mov	r1, r6
 80030bc:	4620      	mov	r0, r4
 80030be:	f7ff fd7f 	bl	8002bc0 <usbStartReceiveI>
 80030c2:	f7fe fb6d 	bl	80017a0 <_dbg_check_unlock_from_isr>
 80030c6:	f7ff fa33 	bl	8002530 <_stats_stop_measure_crit_isr>
 80030ca:	f386 8811 	msr	BASEPRI, r6
 80030ce:	e7c3      	b.n	8003058 <_usb_ep0in+0x48>
 80030d0:	68c3      	ldr	r3, [r0, #12]
 80030d2:	e7de      	b.n	8003092 <_usb_ep0in+0x82>
 80030d4:	9a01      	ldr	r2, [sp, #4]
 80030d6:	682b      	ldr	r3, [r5, #0]
 80030d8:	429a      	cmp	r2, r3
 80030da:	d123      	bne.n	8003124 <_usb_ep0in+0x114>
 80030dc:	4813      	ldr	r0, [pc, #76]	; (800312c <_usb_ep0in+0x11c>)
 80030de:	b002      	add	sp, #8
 80030e0:	e8bd 4070 	ldmia.w	sp!, {r4, r5, r6, lr}
 80030e4:	f7fe ba84 	b.w	80015f0 <chSysHalt>
 80030e8:	695b      	ldr	r3, [r3, #20]
 80030ea:	4631      	mov	r1, r6
 80030ec:	701e      	strb	r6, [r3, #0]
 80030ee:	60de      	str	r6, [r3, #12]
 80030f0:	e9c3 6601 	strd	r6, r6, [r3, #4]
 80030f4:	4620      	mov	r0, r4
 80030f6:	f001 fb23 	bl	8004740 <usb_lld_prepare_transmit>
 80030fa:	2320      	movs	r3, #32
 80030fc:	f383 8811 	msr	BASEPRI, r3
 8003100:	f7ff f9fe 	bl	8002500 <_stats_start_measure_crit_isr>
 8003104:	f7fe fb2c 	bl	8001760 <_dbg_check_lock_from_isr>
 8003108:	4631      	mov	r1, r6
 800310a:	4620      	mov	r0, r4
 800310c:	f7ff fd88 	bl	8002c20 <usbStartTransmitI>
 8003110:	f7fe fb46 	bl	80017a0 <_dbg_check_unlock_from_isr>
 8003114:	f7ff fa0c 	bl	8002530 <_stats_stop_measure_crit_isr>
 8003118:	f386 8811 	msr	BASEPRI, r6
 800311c:	2302      	movs	r3, #2
 800311e:	f884 3034 	strb.w	r3, [r4, #52]	; 0x34
 8003122:	e799      	b.n	8003058 <_usb_ep0in+0x48>
 8003124:	f7fe f884 	bl	8001230 <__stack_chk_fail>
 8003128:	20000800 	.word	0x20000800
 800312c:	08008bd0 	.word	0x08008bd0

08003130 <_usb_ep0out>:
 8003130:	b570      	push	{r4, r5, r6, lr}
 8003132:	4d30      	ldr	r5, [pc, #192]	; (80031f4 <_usb_ep0out+0xc4>)
 8003134:	f890 3034 	ldrb.w	r3, [r0, #52]	; 0x34
 8003138:	682a      	ldr	r2, [r5, #0]
 800313a:	b082      	sub	sp, #8
 800313c:	4604      	mov	r4, r0
 800313e:	9201      	str	r2, [sp, #4]
 8003140:	2b06      	cmp	r3, #6
 8003142:	d84a      	bhi.n	80031da <_usb_ep0out+0xaa>
 8003144:	e8df f003 	tbb	[pc, r3]
 8003148:	3d040404 	.word	0x3d040404
 800314c:	041e      	.short	0x041e
 800314e:	07          	.byte	0x07
 800314f:	00          	.byte	0x00
 8003150:	4829      	ldr	r0, [pc, #164]	; (80031f8 <_usb_ep0out+0xc8>)
 8003152:	f7fe fa4d 	bl	80015f0 <chSysHalt>
 8003156:	2100      	movs	r1, #0
 8003158:	4620      	mov	r0, r4
 800315a:	f001 fcb1 	bl	8004ac0 <usb_lld_stall_in>
 800315e:	2100      	movs	r1, #0
 8003160:	4620      	mov	r0, r4
 8003162:	f001 fc8d 	bl	8004a80 <usb_lld_stall_out>
 8003166:	6863      	ldr	r3, [r4, #4]
 8003168:	681b      	ldr	r3, [r3, #0]
 800316a:	b113      	cbz	r3, 8003172 <_usb_ep0out+0x42>
 800316c:	2105      	movs	r1, #5
 800316e:	4620      	mov	r0, r4
 8003170:	4798      	blx	r3
 8003172:	2306      	movs	r3, #6
 8003174:	f884 3034 	strb.w	r3, [r4, #52]	; 0x34
 8003178:	9a01      	ldr	r2, [sp, #4]
 800317a:	682b      	ldr	r3, [r5, #0]
 800317c:	429a      	cmp	r2, r3
 800317e:	d136      	bne.n	80031ee <_usb_ep0out+0xbe>
 8003180:	b002      	add	sp, #8
 8003182:	bd70      	pop	{r4, r5, r6, pc}
 8003184:	68c3      	ldr	r3, [r0, #12]
 8003186:	2205      	movs	r2, #5
 8003188:	f880 2034 	strb.w	r2, [r0, #52]	; 0x34
 800318c:	695b      	ldr	r3, [r3, #20]
 800318e:	2600      	movs	r6, #0
 8003190:	701e      	strb	r6, [r3, #0]
 8003192:	60de      	str	r6, [r3, #12]
 8003194:	e9c3 6601 	strd	r6, r6, [r3, #4]
 8003198:	4631      	mov	r1, r6
 800319a:	f001 fad1 	bl	8004740 <usb_lld_prepare_transmit>
 800319e:	2320      	movs	r3, #32
 80031a0:	f383 8811 	msr	BASEPRI, r3
 80031a4:	f7ff f9ac 	bl	8002500 <_stats_start_measure_crit_isr>
 80031a8:	f7fe fada 	bl	8001760 <_dbg_check_lock_from_isr>
 80031ac:	4631      	mov	r1, r6
 80031ae:	4620      	mov	r0, r4
 80031b0:	f7ff fd36 	bl	8002c20 <usbStartTransmitI>
 80031b4:	f7fe faf4 	bl	80017a0 <_dbg_check_unlock_from_isr>
 80031b8:	f7ff f9ba 	bl	8002530 <_stats_stop_measure_crit_isr>
 80031bc:	f386 8811 	msr	BASEPRI, r6
 80031c0:	e7da      	b.n	8003178 <_usb_ep0out+0x48>
 80031c2:	68c3      	ldr	r3, [r0, #12]
 80031c4:	699b      	ldr	r3, [r3, #24]
 80031c6:	689b      	ldr	r3, [r3, #8]
 80031c8:	2b00      	cmp	r3, #0
 80031ca:	d1d5      	bne.n	8003178 <_usb_ep0out+0x48>
 80031cc:	6c03      	ldr	r3, [r0, #64]	; 0x40
 80031ce:	b103      	cbz	r3, 80031d2 <_usb_ep0out+0xa2>
 80031d0:	4798      	blx	r3
 80031d2:	2300      	movs	r3, #0
 80031d4:	f884 3034 	strb.w	r3, [r4, #52]	; 0x34
 80031d8:	e7ce      	b.n	8003178 <_usb_ep0out+0x48>
 80031da:	9a01      	ldr	r2, [sp, #4]
 80031dc:	682b      	ldr	r3, [r5, #0]
 80031de:	429a      	cmp	r2, r3
 80031e0:	d105      	bne.n	80031ee <_usb_ep0out+0xbe>
 80031e2:	4805      	ldr	r0, [pc, #20]	; (80031f8 <_usb_ep0out+0xc8>)
 80031e4:	b002      	add	sp, #8
 80031e6:	e8bd 4070 	ldmia.w	sp!, {r4, r5, r6, lr}
 80031ea:	f7fe ba01 	b.w	80015f0 <chSysHalt>
 80031ee:	f7fe f81f 	bl	8001230 <__stack_chk_fail>
 80031f2:	bf00      	nop
 80031f4:	20000800 	.word	0x20000800
 80031f8:	08008be0 	.word	0x08008be0
 80031fc:	00000000 	.word	0x00000000

08003200 <Vector6C>:
 8003200:	b510      	push	{r4, lr}
 8003202:	4c0f      	ldr	r4, [pc, #60]	; (8003240 <Vector6C+0x40>)
 8003204:	b082      	sub	sp, #8
 8003206:	6823      	ldr	r3, [r4, #0]
 8003208:	9301      	str	r3, [sp, #4]
 800320a:	f7ff f911 	bl	8002430 <_stats_increase_irq>
 800320e:	f7fe fae7 	bl	80017e0 <_dbg_check_enter_isr>
 8003212:	4b0c      	ldr	r3, [pc, #48]	; (8003244 <Vector6C+0x44>)
 8003214:	4a0c      	ldr	r2, [pc, #48]	; (8003248 <Vector6C+0x48>)
 8003216:	6819      	ldr	r1, [r3, #0]
 8003218:	f001 013d 	and.w	r1, r1, #61	; 0x3d
 800321c:	6099      	str	r1, [r3, #8]
 800321e:	6813      	ldr	r3, [r2, #0]
 8003220:	b10b      	cbz	r3, 8003226 <Vector6C+0x26>
 8003222:	6850      	ldr	r0, [r2, #4]
 8003224:	4798      	blx	r3
 8003226:	f7fe fb03 	bl	8001830 <_dbg_check_leave_isr>
 800322a:	9a01      	ldr	r2, [sp, #4]
 800322c:	6823      	ldr	r3, [r4, #0]
 800322e:	429a      	cmp	r2, r3
 8003230:	d104      	bne.n	800323c <Vector6C+0x3c>
 8003232:	b002      	add	sp, #8
 8003234:	e8bd 4010 	ldmia.w	sp!, {r4, lr}
 8003238:	f7ff bc4a 	b.w	8002ad0 <_port_irq_epilogue>
 800323c:	f7fd fff8 	bl	8001230 <__stack_chk_fail>
 8003240:	20000800 	.word	0x20000800
 8003244:	40026000 	.word	0x40026000
 8003248:	20001ad0 	.word	0x20001ad0
 800324c:	00000000 	.word	0x00000000

08003250 <Vector70>:
 8003250:	b530      	push	{r4, r5, lr}
 8003252:	4c10      	ldr	r4, [pc, #64]	; (8003294 <Vector70+0x44>)
 8003254:	b083      	sub	sp, #12
 8003256:	6823      	ldr	r3, [r4, #0]
 8003258:	9301      	str	r3, [sp, #4]
 800325a:	f7ff f8e9 	bl	8002430 <_stats_increase_irq>
 800325e:	f7fe fabf 	bl	80017e0 <_dbg_check_enter_isr>
 8003262:	4b0d      	ldr	r3, [pc, #52]	; (8003298 <Vector70+0x48>)
 8003264:	480d      	ldr	r0, [pc, #52]	; (800329c <Vector70+0x4c>)
 8003266:	6819      	ldr	r1, [r3, #0]
 8003268:	6882      	ldr	r2, [r0, #8]
 800326a:	0989      	lsrs	r1, r1, #6
 800326c:	f001 013d 	and.w	r1, r1, #61	; 0x3d
 8003270:	018d      	lsls	r5, r1, #6
 8003272:	609d      	str	r5, [r3, #8]
 8003274:	b10a      	cbz	r2, 800327a <Vector70+0x2a>
 8003276:	68c0      	ldr	r0, [r0, #12]
 8003278:	4790      	blx	r2
 800327a:	f7fe fad9 	bl	8001830 <_dbg_check_leave_isr>
 800327e:	9a01      	ldr	r2, [sp, #4]
 8003280:	6823      	ldr	r3, [r4, #0]
 8003282:	429a      	cmp	r2, r3
 8003284:	d104      	bne.n	8003290 <Vector70+0x40>
 8003286:	b003      	add	sp, #12
 8003288:	e8bd 4030 	ldmia.w	sp!, {r4, r5, lr}
 800328c:	f7ff bc20 	b.w	8002ad0 <_port_irq_epilogue>
 8003290:	f7fd ffce 	bl	8001230 <__stack_chk_fail>
 8003294:	20000800 	.word	0x20000800
 8003298:	40026000 	.word	0x40026000
 800329c:	20001ad0 	.word	0x20001ad0

080032a0 <Vector74>:
 80032a0:	b530      	push	{r4, r5, lr}
 80032a2:	4c10      	ldr	r4, [pc, #64]	; (80032e4 <Vector74+0x44>)
 80032a4:	b083      	sub	sp, #12
 80032a6:	6823      	ldr	r3, [r4, #0]
 80032a8:	9301      	str	r3, [sp, #4]
 80032aa:	f7ff f8c1 	bl	8002430 <_stats_increase_irq>
 80032ae:	f7fe fa97 	bl	80017e0 <_dbg_check_enter_isr>
 80032b2:	4b0d      	ldr	r3, [pc, #52]	; (80032e8 <Vector74+0x48>)
 80032b4:	480d      	ldr	r0, [pc, #52]	; (80032ec <Vector74+0x4c>)
 80032b6:	6819      	ldr	r1, [r3, #0]
 80032b8:	6902      	ldr	r2, [r0, #16]
 80032ba:	0c09      	lsrs	r1, r1, #16
 80032bc:	f001 013d 	and.w	r1, r1, #61	; 0x3d
 80032c0:	040d      	lsls	r5, r1, #16
 80032c2:	609d      	str	r5, [r3, #8]
 80032c4:	b10a      	cbz	r2, 80032ca <Vector74+0x2a>
 80032c6:	6940      	ldr	r0, [r0, #20]
 80032c8:	4790      	blx	r2
 80032ca:	f7fe fab1 	bl	8001830 <_dbg_check_leave_isr>
 80032ce:	9a01      	ldr	r2, [sp, #4]
 80032d0:	6823      	ldr	r3, [r4, #0]
 80032d2:	429a      	cmp	r2, r3
 80032d4:	d104      	bne.n	80032e0 <Vector74+0x40>
 80032d6:	b003      	add	sp, #12
 80032d8:	e8bd 4030 	ldmia.w	sp!, {r4, r5, lr}
 80032dc:	f7ff bbf8 	b.w	8002ad0 <_port_irq_epilogue>
 80032e0:	f7fd ffa6 	bl	8001230 <__stack_chk_fail>
 80032e4:	20000800 	.word	0x20000800
 80032e8:	40026000 	.word	0x40026000
 80032ec:	20001ad0 	.word	0x20001ad0

080032f0 <Vector78>:
 80032f0:	b530      	push	{r4, r5, lr}
 80032f2:	4c10      	ldr	r4, [pc, #64]	; (8003334 <Vector78+0x44>)
 80032f4:	b083      	sub	sp, #12
 80032f6:	6823      	ldr	r3, [r4, #0]
 80032f8:	9301      	str	r3, [sp, #4]
 80032fa:	f7ff f899 	bl	8002430 <_stats_increase_irq>
 80032fe:	f7fe fa6f 	bl	80017e0 <_dbg_check_enter_isr>
 8003302:	4b0d      	ldr	r3, [pc, #52]	; (8003338 <Vector78+0x48>)
 8003304:	480d      	ldr	r0, [pc, #52]	; (800333c <Vector78+0x4c>)
 8003306:	6819      	ldr	r1, [r3, #0]
 8003308:	6982      	ldr	r2, [r0, #24]
 800330a:	0d89      	lsrs	r1, r1, #22
 800330c:	f001 013d 	and.w	r1, r1, #61	; 0x3d
 8003310:	058d      	lsls	r5, r1, #22
 8003312:	609d      	str	r5, [r3, #8]
 8003314:	b10a      	cbz	r2, 800331a <Vector78+0x2a>
 8003316:	69c0      	ldr	r0, [r0, #28]
 8003318:	4790      	blx	r2
 800331a:	f7fe fa89 	bl	8001830 <_dbg_check_leave_isr>
 800331e:	9a01      	ldr	r2, [sp, #4]
 8003320:	6823      	ldr	r3, [r4, #0]
 8003322:	429a      	cmp	r2, r3
 8003324:	d104      	bne.n	8003330 <Vector78+0x40>
 8003326:	b003      	add	sp, #12
 8003328:	e8bd 4030 	ldmia.w	sp!, {r4, r5, lr}
 800332c:	f7ff bbd0 	b.w	8002ad0 <_port_irq_epilogue>
 8003330:	f7fd ff7e 	bl	8001230 <__stack_chk_fail>
 8003334:	20000800 	.word	0x20000800
 8003338:	40026000 	.word	0x40026000
 800333c:	20001ad0 	.word	0x20001ad0

08003340 <Vector7C>:
 8003340:	b510      	push	{r4, lr}
 8003342:	4c0f      	ldr	r4, [pc, #60]	; (8003380 <Vector7C+0x40>)
 8003344:	b082      	sub	sp, #8
 8003346:	6823      	ldr	r3, [r4, #0]
 8003348:	9301      	str	r3, [sp, #4]
 800334a:	f7ff f871 	bl	8002430 <_stats_increase_irq>
 800334e:	f7fe fa47 	bl	80017e0 <_dbg_check_enter_isr>
 8003352:	4b0c      	ldr	r3, [pc, #48]	; (8003384 <Vector7C+0x44>)
 8003354:	480c      	ldr	r0, [pc, #48]	; (8003388 <Vector7C+0x48>)
 8003356:	6859      	ldr	r1, [r3, #4]
 8003358:	6a02      	ldr	r2, [r0, #32]
 800335a:	f001 013d 	and.w	r1, r1, #61	; 0x3d
 800335e:	60d9      	str	r1, [r3, #12]
 8003360:	b10a      	cbz	r2, 8003366 <Vector7C+0x26>
 8003362:	6a40      	ldr	r0, [r0, #36]	; 0x24
 8003364:	4790      	blx	r2
 8003366:	f7fe fa63 	bl	8001830 <_dbg_check_leave_isr>
 800336a:	9a01      	ldr	r2, [sp, #4]
 800336c:	6823      	ldr	r3, [r4, #0]
 800336e:	429a      	cmp	r2, r3
 8003370:	d104      	bne.n	800337c <Vector7C+0x3c>
 8003372:	b002      	add	sp, #8
 8003374:	e8bd 4010 	ldmia.w	sp!, {r4, lr}
 8003378:	f7ff bbaa 	b.w	8002ad0 <_port_irq_epilogue>
 800337c:	f7fd ff58 	bl	8001230 <__stack_chk_fail>
 8003380:	20000800 	.word	0x20000800
 8003384:	40026000 	.word	0x40026000
 8003388:	20001ad0 	.word	0x20001ad0
 800338c:	00000000 	.word	0x00000000

08003390 <Vector80>:
 8003390:	b530      	push	{r4, r5, lr}
 8003392:	4c10      	ldr	r4, [pc, #64]	; (80033d4 <Vector80+0x44>)
 8003394:	b083      	sub	sp, #12
 8003396:	6823      	ldr	r3, [r4, #0]
 8003398:	9301      	str	r3, [sp, #4]
 800339a:	f7ff f849 	bl	8002430 <_stats_increase_irq>
 800339e:	f7fe fa1f 	bl	80017e0 <_dbg_check_enter_isr>
 80033a2:	4b0d      	ldr	r3, [pc, #52]	; (80033d8 <Vector80+0x48>)
 80033a4:	480d      	ldr	r0, [pc, #52]	; (80033dc <Vector80+0x4c>)
 80033a6:	6859      	ldr	r1, [r3, #4]
 80033a8:	6a82      	ldr	r2, [r0, #40]	; 0x28
 80033aa:	0989      	lsrs	r1, r1, #6
 80033ac:	f001 013d 	and.w	r1, r1, #61	; 0x3d
 80033b0:	018d      	lsls	r5, r1, #6
 80033b2:	60dd      	str	r5, [r3, #12]
 80033b4:	b10a      	cbz	r2, 80033ba <Vector80+0x2a>
 80033b6:	6ac0      	ldr	r0, [r0, #44]	; 0x2c
 80033b8:	4790      	blx	r2
 80033ba:	f7fe fa39 	bl	8001830 <_dbg_check_leave_isr>
 80033be:	9a01      	ldr	r2, [sp, #4]
 80033c0:	6823      	ldr	r3, [r4, #0]
 80033c2:	429a      	cmp	r2, r3
 80033c4:	d104      	bne.n	80033d0 <Vector80+0x40>
 80033c6:	b003      	add	sp, #12
 80033c8:	e8bd 4030 	ldmia.w	sp!, {r4, r5, lr}
 80033cc:	f7ff bb80 	b.w	8002ad0 <_port_irq_epilogue>
 80033d0:	f7fd ff2e 	bl	8001230 <__stack_chk_fail>
 80033d4:	20000800 	.word	0x20000800
 80033d8:	40026000 	.word	0x40026000
 80033dc:	20001ad0 	.word	0x20001ad0

080033e0 <Vector84>:
 80033e0:	b530      	push	{r4, r5, lr}
 80033e2:	4c10      	ldr	r4, [pc, #64]	; (8003424 <Vector84+0x44>)
 80033e4:	b083      	sub	sp, #12
 80033e6:	6823      	ldr	r3, [r4, #0]
 80033e8:	9301      	str	r3, [sp, #4]
 80033ea:	f7ff f821 	bl	8002430 <_stats_increase_irq>
 80033ee:	f7fe f9f7 	bl	80017e0 <_dbg_check_enter_isr>
 80033f2:	4b0d      	ldr	r3, [pc, #52]	; (8003428 <Vector84+0x48>)
 80033f4:	480d      	ldr	r0, [pc, #52]	; (800342c <Vector84+0x4c>)
 80033f6:	6859      	ldr	r1, [r3, #4]
 80033f8:	6b02      	ldr	r2, [r0, #48]	; 0x30
 80033fa:	0c09      	lsrs	r1, r1, #16
 80033fc:	f001 013d 	and.w	r1, r1, #61	; 0x3d
 8003400:	040d      	lsls	r5, r1, #16
 8003402:	60dd      	str	r5, [r3, #12]
 8003404:	b10a      	cbz	r2, 800340a <Vector84+0x2a>
 8003406:	6b40      	ldr	r0, [r0, #52]	; 0x34
 8003408:	4790      	blx	r2
 800340a:	f7fe fa11 	bl	8001830 <_dbg_check_leave_isr>
 800340e:	9a01      	ldr	r2, [sp, #4]
 8003410:	6823      	ldr	r3, [r4, #0]
 8003412:	429a      	cmp	r2, r3
 8003414:	d104      	bne.n	8003420 <Vector84+0x40>
 8003416:	b003      	add	sp, #12
 8003418:	e8bd 4030 	ldmia.w	sp!, {r4, r5, lr}
 800341c:	f7ff bb58 	b.w	8002ad0 <_port_irq_epilogue>
 8003420:	f7fd ff06 	bl	8001230 <__stack_chk_fail>
 8003424:	20000800 	.word	0x20000800
 8003428:	40026000 	.word	0x40026000
 800342c:	20001ad0 	.word	0x20001ad0

08003430 <VectorFC>:
 8003430:	b530      	push	{r4, r5, lr}
 8003432:	4c10      	ldr	r4, [pc, #64]	; (8003474 <VectorFC+0x44>)
 8003434:	b083      	sub	sp, #12
 8003436:	6823      	ldr	r3, [r4, #0]
 8003438:	9301      	str	r3, [sp, #4]
 800343a:	f7fe fff9 	bl	8002430 <_stats_increase_irq>
 800343e:	f7fe f9cf 	bl	80017e0 <_dbg_check_enter_isr>
 8003442:	4b0d      	ldr	r3, [pc, #52]	; (8003478 <VectorFC+0x48>)
 8003444:	480d      	ldr	r0, [pc, #52]	; (800347c <VectorFC+0x4c>)
 8003446:	6859      	ldr	r1, [r3, #4]
 8003448:	6b82      	ldr	r2, [r0, #56]	; 0x38
 800344a:	0d89      	lsrs	r1, r1, #22
 800344c:	f001 013d 	and.w	r1, r1, #61	; 0x3d
 8003450:	058d      	lsls	r5, r1, #22
 8003452:	60dd      	str	r5, [r3, #12]
 8003454:	b10a      	cbz	r2, 800345a <VectorFC+0x2a>
 8003456:	6bc0      	ldr	r0, [r0, #60]	; 0x3c
 8003458:	4790      	blx	r2
 800345a:	f7fe f9e9 	bl	8001830 <_dbg_check_leave_isr>
 800345e:	9a01      	ldr	r2, [sp, #4]
 8003460:	6823      	ldr	r3, [r4, #0]
 8003462:	429a      	cmp	r2, r3
 8003464:	d104      	bne.n	8003470 <VectorFC+0x40>
 8003466:	b003      	add	sp, #12
 8003468:	e8bd 4030 	ldmia.w	sp!, {r4, r5, lr}
 800346c:	f7ff bb30 	b.w	8002ad0 <_port_irq_epilogue>
 8003470:	f7fd fede 	bl	8001230 <__stack_chk_fail>
 8003474:	20000800 	.word	0x20000800
 8003478:	40026000 	.word	0x40026000
 800347c:	20001ad0 	.word	0x20001ad0

08003480 <Vector120>:
 8003480:	b510      	push	{r4, lr}
 8003482:	4c0f      	ldr	r4, [pc, #60]	; (80034c0 <Vector120+0x40>)
 8003484:	b082      	sub	sp, #8
 8003486:	6823      	ldr	r3, [r4, #0]
 8003488:	9301      	str	r3, [sp, #4]
 800348a:	f7fe ffd1 	bl	8002430 <_stats_increase_irq>
 800348e:	f7fe f9a7 	bl	80017e0 <_dbg_check_enter_isr>
 8003492:	4b0c      	ldr	r3, [pc, #48]	; (80034c4 <Vector120+0x44>)
 8003494:	480c      	ldr	r0, [pc, #48]	; (80034c8 <Vector120+0x48>)
 8003496:	6819      	ldr	r1, [r3, #0]
 8003498:	6c02      	ldr	r2, [r0, #64]	; 0x40
 800349a:	f001 013d 	and.w	r1, r1, #61	; 0x3d
 800349e:	6099      	str	r1, [r3, #8]
 80034a0:	b10a      	cbz	r2, 80034a6 <Vector120+0x26>
 80034a2:	6c40      	ldr	r0, [r0, #68]	; 0x44
 80034a4:	4790      	blx	r2
 80034a6:	f7fe f9c3 	bl	8001830 <_dbg_check_leave_isr>
 80034aa:	9a01      	ldr	r2, [sp, #4]
 80034ac:	6823      	ldr	r3, [r4, #0]
 80034ae:	429a      	cmp	r2, r3
 80034b0:	d104      	bne.n	80034bc <Vector120+0x3c>
 80034b2:	b002      	add	sp, #8
 80034b4:	e8bd 4010 	ldmia.w	sp!, {r4, lr}
 80034b8:	f7ff bb0a 	b.w	8002ad0 <_port_irq_epilogue>
 80034bc:	f7fd feb8 	bl	8001230 <__stack_chk_fail>
 80034c0:	20000800 	.word	0x20000800
 80034c4:	40026400 	.word	0x40026400
 80034c8:	20001ad0 	.word	0x20001ad0
 80034cc:	00000000 	.word	0x00000000

080034d0 <Vector124>:
 80034d0:	b530      	push	{r4, r5, lr}
 80034d2:	4c10      	ldr	r4, [pc, #64]	; (8003514 <Vector124+0x44>)
 80034d4:	b083      	sub	sp, #12
 80034d6:	6823      	ldr	r3, [r4, #0]
 80034d8:	9301      	str	r3, [sp, #4]
 80034da:	f7fe ffa9 	bl	8002430 <_stats_increase_irq>
 80034de:	f7fe f97f 	bl	80017e0 <_dbg_check_enter_isr>
 80034e2:	4b0d      	ldr	r3, [pc, #52]	; (8003518 <Vector124+0x48>)
 80034e4:	480d      	ldr	r0, [pc, #52]	; (800351c <Vector124+0x4c>)
 80034e6:	6819      	ldr	r1, [r3, #0]
 80034e8:	6c82      	ldr	r2, [r0, #72]	; 0x48
 80034ea:	0989      	lsrs	r1, r1, #6
 80034ec:	f001 013d 	and.w	r1, r1, #61	; 0x3d
 80034f0:	018d      	lsls	r5, r1, #6
 80034f2:	609d      	str	r5, [r3, #8]
 80034f4:	b10a      	cbz	r2, 80034fa <Vector124+0x2a>
 80034f6:	6cc0      	ldr	r0, [r0, #76]	; 0x4c
 80034f8:	4790      	blx	r2
 80034fa:	f7fe f999 	bl	8001830 <_dbg_check_leave_isr>
 80034fe:	9a01      	ldr	r2, [sp, #4]
 8003500:	6823      	ldr	r3, [r4, #0]
 8003502:	429a      	cmp	r2, r3
 8003504:	d104      	bne.n	8003510 <Vector124+0x40>
 8003506:	b003      	add	sp, #12
 8003508:	e8bd 4030 	ldmia.w	sp!, {r4, r5, lr}
 800350c:	f7ff bae0 	b.w	8002ad0 <_port_irq_epilogue>
 8003510:	f7fd fe8e 	bl	8001230 <__stack_chk_fail>
 8003514:	20000800 	.word	0x20000800
 8003518:	40026400 	.word	0x40026400
 800351c:	20001ad0 	.word	0x20001ad0

08003520 <Vector128>:
 8003520:	b530      	push	{r4, r5, lr}
 8003522:	4c10      	ldr	r4, [pc, #64]	; (8003564 <Vector128+0x44>)
 8003524:	b083      	sub	sp, #12
 8003526:	6823      	ldr	r3, [r4, #0]
 8003528:	9301      	str	r3, [sp, #4]
 800352a:	f7fe ff81 	bl	8002430 <_stats_increase_irq>
 800352e:	f7fe f957 	bl	80017e0 <_dbg_check_enter_isr>
 8003532:	4b0d      	ldr	r3, [pc, #52]	; (8003568 <Vector128+0x48>)
 8003534:	480d      	ldr	r0, [pc, #52]	; (800356c <Vector128+0x4c>)
 8003536:	6819      	ldr	r1, [r3, #0]
 8003538:	6d02      	ldr	r2, [r0, #80]	; 0x50
 800353a:	0c09      	lsrs	r1, r1, #16
 800353c:	f001 013d 	and.w	r1, r1, #61	; 0x3d
 8003540:	040d      	lsls	r5, r1, #16
 8003542:	609d      	str	r5, [r3, #8]
 8003544:	b10a      	cbz	r2, 800354a <Vector128+0x2a>
 8003546:	6d40      	ldr	r0, [r0, #84]	; 0x54
 8003548:	4790      	blx	r2
 800354a:	f7fe f971 	bl	8001830 <_dbg_check_leave_isr>
 800354e:	9a01      	ldr	r2, [sp, #4]
 8003550:	6823      	ldr	r3, [r4, #0]
 8003552:	429a      	cmp	r2, r3
 8003554:	d104      	bne.n	8003560 <Vector128+0x40>
 8003556:	b003      	add	sp, #12
 8003558:	e8bd 4030 	ldmia.w	sp!, {r4, r5, lr}
 800355c:	f7ff bab8 	b.w	8002ad0 <_port_irq_epilogue>
 8003560:	f7fd fe66 	bl	8001230 <__stack_chk_fail>
 8003564:	20000800 	.word	0x20000800
 8003568:	40026400 	.word	0x40026400
 800356c:	20001ad0 	.word	0x20001ad0

08003570 <Vector12C>:
 8003570:	b530      	push	{r4, r5, lr}
 8003572:	4c10      	ldr	r4, [pc, #64]	; (80035b4 <Vector12C+0x44>)
 8003574:	b083      	sub	sp, #12
 8003576:	6823      	ldr	r3, [r4, #0]
 8003578:	9301      	str	r3, [sp, #4]
 800357a:	f7fe ff59 	bl	8002430 <_stats_increase_irq>
 800357e:	f7fe f92f 	bl	80017e0 <_dbg_check_enter_isr>
 8003582:	4b0d      	ldr	r3, [pc, #52]	; (80035b8 <Vector12C+0x48>)
 8003584:	480d      	ldr	r0, [pc, #52]	; (80035bc <Vector12C+0x4c>)
 8003586:	6819      	ldr	r1, [r3, #0]
 8003588:	6d82      	ldr	r2, [r0, #88]	; 0x58
 800358a:	0d89      	lsrs	r1, r1, #22
 800358c:	f001 013d 	and.w	r1, r1, #61	; 0x3d
 8003590:	058d      	lsls	r5, r1, #22
 8003592:	609d      	str	r5, [r3, #8]
 8003594:	b10a      	cbz	r2, 800359a <Vector12C+0x2a>
 8003596:	6dc0      	ldr	r0, [r0, #92]	; 0x5c
 8003598:	4790      	blx	r2
 800359a:	f7fe f949 	bl	8001830 <_dbg_check_leave_isr>
 800359e:	9a01      	ldr	r2, [sp, #4]
 80035a0:	6823      	ldr	r3, [r4, #0]
 80035a2:	429a      	cmp	r2, r3
 80035a4:	d104      	bne.n	80035b0 <Vector12C+0x40>
 80035a6:	b003      	add	sp, #12
 80035a8:	e8bd 4030 	ldmia.w	sp!, {r4, r5, lr}
 80035ac:	f7ff ba90 	b.w	8002ad0 <_port_irq_epilogue>
 80035b0:	f7fd fe3e 	bl	8001230 <__stack_chk_fail>
 80035b4:	20000800 	.word	0x20000800
 80035b8:	40026400 	.word	0x40026400
 80035bc:	20001ad0 	.word	0x20001ad0

080035c0 <Vector130>:
 80035c0:	b510      	push	{r4, lr}
 80035c2:	4c0f      	ldr	r4, [pc, #60]	; (8003600 <Vector130+0x40>)
 80035c4:	b082      	sub	sp, #8
 80035c6:	6823      	ldr	r3, [r4, #0]
 80035c8:	9301      	str	r3, [sp, #4]
 80035ca:	f7fe ff31 	bl	8002430 <_stats_increase_irq>
 80035ce:	f7fe f907 	bl	80017e0 <_dbg_check_enter_isr>
 80035d2:	4b0c      	ldr	r3, [pc, #48]	; (8003604 <Vector130+0x44>)
 80035d4:	480c      	ldr	r0, [pc, #48]	; (8003608 <Vector130+0x48>)
 80035d6:	6859      	ldr	r1, [r3, #4]
 80035d8:	6e02      	ldr	r2, [r0, #96]	; 0x60
 80035da:	f001 013d 	and.w	r1, r1, #61	; 0x3d
 80035de:	60d9      	str	r1, [r3, #12]
 80035e0:	b10a      	cbz	r2, 80035e6 <Vector130+0x26>
 80035e2:	6e40      	ldr	r0, [r0, #100]	; 0x64
 80035e4:	4790      	blx	r2
 80035e6:	f7fe f923 	bl	8001830 <_dbg_check_leave_isr>
 80035ea:	9a01      	ldr	r2, [sp, #4]
 80035ec:	6823      	ldr	r3, [r4, #0]
 80035ee:	429a      	cmp	r2, r3
 80035f0:	d104      	bne.n	80035fc <Vector130+0x3c>
 80035f2:	b002      	add	sp, #8
 80035f4:	e8bd 4010 	ldmia.w	sp!, {r4, lr}
 80035f8:	f7ff ba6a 	b.w	8002ad0 <_port_irq_epilogue>
 80035fc:	f7fd fe18 	bl	8001230 <__stack_chk_fail>
 8003600:	20000800 	.word	0x20000800
 8003604:	40026400 	.word	0x40026400
 8003608:	20001ad0 	.word	0x20001ad0
 800360c:	00000000 	.word	0x00000000

08003610 <Vector150>:
 8003610:	b530      	push	{r4, r5, lr}
 8003612:	4c10      	ldr	r4, [pc, #64]	; (8003654 <Vector150+0x44>)
 8003614:	b083      	sub	sp, #12
 8003616:	6823      	ldr	r3, [r4, #0]
 8003618:	9301      	str	r3, [sp, #4]
 800361a:	f7fe ff09 	bl	8002430 <_stats_increase_irq>
 800361e:	f7fe f8df 	bl	80017e0 <_dbg_check_enter_isr>
 8003622:	4b0d      	ldr	r3, [pc, #52]	; (8003658 <Vector150+0x48>)
 8003624:	480d      	ldr	r0, [pc, #52]	; (800365c <Vector150+0x4c>)
 8003626:	6859      	ldr	r1, [r3, #4]
 8003628:	6e82      	ldr	r2, [r0, #104]	; 0x68
 800362a:	0989      	lsrs	r1, r1, #6
 800362c:	f001 013d 	and.w	r1, r1, #61	; 0x3d
 8003630:	018d      	lsls	r5, r1, #6
 8003632:	60dd      	str	r5, [r3, #12]
 8003634:	b10a      	cbz	r2, 800363a <Vector150+0x2a>
 8003636:	6ec0      	ldr	r0, [r0, #108]	; 0x6c
 8003638:	4790      	blx	r2
 800363a:	f7fe f8f9 	bl	8001830 <_dbg_check_leave_isr>
 800363e:	9a01      	ldr	r2, [sp, #4]
 8003640:	6823      	ldr	r3, [r4, #0]
 8003642:	429a      	cmp	r2, r3
 8003644:	d104      	bne.n	8003650 <Vector150+0x40>
 8003646:	b003      	add	sp, #12
 8003648:	e8bd 4030 	ldmia.w	sp!, {r4, r5, lr}
 800364c:	f7ff ba40 	b.w	8002ad0 <_port_irq_epilogue>
 8003650:	f7fd fdee 	bl	8001230 <__stack_chk_fail>
 8003654:	20000800 	.word	0x20000800
 8003658:	40026400 	.word	0x40026400
 800365c:	20001ad0 	.word	0x20001ad0

08003660 <Vector154>:
 8003660:	b530      	push	{r4, r5, lr}
 8003662:	4c10      	ldr	r4, [pc, #64]	; (80036a4 <Vector154+0x44>)
 8003664:	b083      	sub	sp, #12
 8003666:	6823      	ldr	r3, [r4, #0]
 8003668:	9301      	str	r3, [sp, #4]
 800366a:	f7fe fee1 	bl	8002430 <_stats_increase_irq>
 800366e:	f7fe f8b7 	bl	80017e0 <_dbg_check_enter_isr>
 8003672:	4b0d      	ldr	r3, [pc, #52]	; (80036a8 <Vector154+0x48>)
 8003674:	480d      	ldr	r0, [pc, #52]	; (80036ac <Vector154+0x4c>)
 8003676:	6859      	ldr	r1, [r3, #4]
 8003678:	6f02      	ldr	r2, [r0, #112]	; 0x70
 800367a:	0c09      	lsrs	r1, r1, #16
 800367c:	f001 013d 	and.w	r1, r1, #61	; 0x3d
 8003680:	040d      	lsls	r5, r1, #16
 8003682:	60dd      	str	r5, [r3, #12]
 8003684:	b10a      	cbz	r2, 800368a <Vector154+0x2a>
 8003686:	6f40      	ldr	r0, [r0, #116]	; 0x74
 8003688:	4790      	blx	r2
 800368a:	f7fe f8d1 	bl	8001830 <_dbg_check_leave_isr>
 800368e:	9a01      	ldr	r2, [sp, #4]
 8003690:	6823      	ldr	r3, [r4, #0]
 8003692:	429a      	cmp	r2, r3
 8003694:	d104      	bne.n	80036a0 <Vector154+0x40>
 8003696:	b003      	add	sp, #12
 8003698:	e8bd 4030 	ldmia.w	sp!, {r4, r5, lr}
 800369c:	f7ff ba18 	b.w	8002ad0 <_port_irq_epilogue>
 80036a0:	f7fd fdc6 	bl	8001230 <__stack_chk_fail>
 80036a4:	20000800 	.word	0x20000800
 80036a8:	40026400 	.word	0x40026400
 80036ac:	20001ad0 	.word	0x20001ad0

080036b0 <Vector158>:
 80036b0:	b530      	push	{r4, r5, lr}
 80036b2:	4c10      	ldr	r4, [pc, #64]	; (80036f4 <Vector158+0x44>)
 80036b4:	b083      	sub	sp, #12
 80036b6:	6823      	ldr	r3, [r4, #0]
 80036b8:	9301      	str	r3, [sp, #4]
 80036ba:	f7fe feb9 	bl	8002430 <_stats_increase_irq>
 80036be:	f7fe f88f 	bl	80017e0 <_dbg_check_enter_isr>
 80036c2:	4b0d      	ldr	r3, [pc, #52]	; (80036f8 <Vector158+0x48>)
 80036c4:	480d      	ldr	r0, [pc, #52]	; (80036fc <Vector158+0x4c>)
 80036c6:	6859      	ldr	r1, [r3, #4]
 80036c8:	6f82      	ldr	r2, [r0, #120]	; 0x78
 80036ca:	0d89      	lsrs	r1, r1, #22
 80036cc:	f001 013d 	and.w	r1, r1, #61	; 0x3d
 80036d0:	058d      	lsls	r5, r1, #22
 80036d2:	60dd      	str	r5, [r3, #12]
 80036d4:	b10a      	cbz	r2, 80036da <Vector158+0x2a>
 80036d6:	6fc0      	ldr	r0, [r0, #124]	; 0x7c
 80036d8:	4790      	blx	r2
 80036da:	f7fe f8a9 	bl	8001830 <_dbg_check_leave_isr>
 80036de:	9a01      	ldr	r2, [sp, #4]
 80036e0:	6823      	ldr	r3, [r4, #0]
 80036e2:	429a      	cmp	r2, r3
 80036e4:	d104      	bne.n	80036f0 <Vector158+0x40>
 80036e6:	b003      	add	sp, #12
 80036e8:	e8bd 4030 	ldmia.w	sp!, {r4, r5, lr}
 80036ec:	f7ff b9f0 	b.w	8002ad0 <_port_irq_epilogue>
 80036f0:	f7fd fd9e 	bl	8001230 <__stack_chk_fail>
 80036f4:	20000800 	.word	0x20000800
 80036f8:	40026400 	.word	0x40026400
 80036fc:	20001ad0 	.word	0x20001ad0

08003700 <stm32_clock_init>:
 8003700:	b510      	push	{r4, lr}
 8003702:	4936      	ldr	r1, [pc, #216]	; (80037dc <stm32_clock_init+0xdc>)
 8003704:	4b36      	ldr	r3, [pc, #216]	; (80037e0 <stm32_clock_init+0xe0>)
 8003706:	6808      	ldr	r0, [r1, #0]
 8003708:	4a36      	ldr	r2, [pc, #216]	; (80037e4 <stm32_clock_init+0xe4>)
 800370a:	b082      	sub	sp, #8
 800370c:	f04f 5480 	mov.w	r4, #268435456	; 0x10000000
 8003710:	9001      	str	r0, [sp, #4]
 8003712:	f44f 4040 	mov.w	r0, #49152	; 0xc000
 8003716:	641c      	str	r4, [r3, #64]	; 0x40
 8003718:	6010      	str	r0, [r2, #0]
 800371a:	681a      	ldr	r2, [r3, #0]
 800371c:	f042 0201 	orr.w	r2, r2, #1
 8003720:	601a      	str	r2, [r3, #0]
 8003722:	681a      	ldr	r2, [r3, #0]
 8003724:	0790      	lsls	r0, r2, #30
 8003726:	d5fc      	bpl.n	8003722 <stm32_clock_init+0x22>
 8003728:	6898      	ldr	r0, [r3, #8]
 800372a:	4a2d      	ldr	r2, [pc, #180]	; (80037e0 <stm32_clock_init+0xe0>)
 800372c:	f020 0003 	bic.w	r0, r0, #3
 8003730:	6098      	str	r0, [r3, #8]
 8003732:	6898      	ldr	r0, [r3, #8]
 8003734:	6098      	str	r0, [r3, #8]
 8003736:	6893      	ldr	r3, [r2, #8]
 8003738:	f013 030c 	ands.w	r3, r3, #12
 800373c:	d1fb      	bne.n	8003736 <stm32_clock_init+0x36>
 800373e:	6814      	ldr	r4, [r2, #0]
 8003740:	4827      	ldr	r0, [pc, #156]	; (80037e0 <stm32_clock_init+0xe0>)
 8003742:	f004 04f9 	and.w	r4, r4, #249	; 0xf9
 8003746:	6014      	str	r4, [r2, #0]
 8003748:	6093      	str	r3, [r2, #8]
 800374a:	6813      	ldr	r3, [r2, #0]
 800374c:	f443 23a0 	orr.w	r3, r3, #327680	; 0x50000
 8003750:	6013      	str	r3, [r2, #0]
 8003752:	6803      	ldr	r3, [r0, #0]
 8003754:	039a      	lsls	r2, r3, #14
 8003756:	d5fc      	bpl.n	8003752 <stm32_clock_init+0x52>
 8003758:	6f43      	ldr	r3, [r0, #116]	; 0x74
 800375a:	4a21      	ldr	r2, [pc, #132]	; (80037e0 <stm32_clock_init+0xe0>)
 800375c:	f043 0301 	orr.w	r3, r3, #1
 8003760:	6743      	str	r3, [r0, #116]	; 0x74
 8003762:	6f53      	ldr	r3, [r2, #116]	; 0x74
 8003764:	079b      	lsls	r3, r3, #30
 8003766:	d5fc      	bpl.n	8003762 <stm32_clock_init+0x62>
 8003768:	4b1f      	ldr	r3, [pc, #124]	; (80037e8 <stm32_clock_init+0xe8>)
 800376a:	6053      	str	r3, [r2, #4]
 800376c:	6813      	ldr	r3, [r2, #0]
 800376e:	481d      	ldr	r0, [pc, #116]	; (80037e4 <stm32_clock_init+0xe4>)
 8003770:	f043 7380 	orr.w	r3, r3, #16777216	; 0x1000000
 8003774:	6013      	str	r3, [r2, #0]
 8003776:	6843      	ldr	r3, [r0, #4]
 8003778:	045c      	lsls	r4, r3, #17
 800377a:	d5fc      	bpl.n	8003776 <stm32_clock_init+0x76>
 800377c:	4a18      	ldr	r2, [pc, #96]	; (80037e0 <stm32_clock_init+0xe0>)
 800377e:	6813      	ldr	r3, [r2, #0]
 8003780:	0198      	lsls	r0, r3, #6
 8003782:	d5fc      	bpl.n	800377e <stm32_clock_init+0x7e>
 8003784:	4b19      	ldr	r3, [pc, #100]	; (80037ec <stm32_clock_init+0xec>)
 8003786:	f8c2 3084 	str.w	r3, [r2, #132]	; 0x84
 800378a:	6813      	ldr	r3, [r2, #0]
 800378c:	4814      	ldr	r0, [pc, #80]	; (80037e0 <stm32_clock_init+0xe0>)
 800378e:	f043 6380 	orr.w	r3, r3, #67108864	; 0x4000000
 8003792:	6013      	str	r3, [r2, #0]
 8003794:	6803      	ldr	r3, [r0, #0]
 8003796:	011b      	lsls	r3, r3, #4
 8003798:	d5fc      	bpl.n	8003794 <stm32_clock_init+0x94>
 800379a:	4b15      	ldr	r3, [pc, #84]	; (80037f0 <stm32_clock_init+0xf0>)
 800379c:	4a15      	ldr	r2, [pc, #84]	; (80037f4 <stm32_clock_init+0xf4>)
 800379e:	6082      	str	r2, [r0, #8]
 80037a0:	f240 7205 	movw	r2, #1797	; 0x705
 80037a4:	601a      	str	r2, [r3, #0]
 80037a6:	6883      	ldr	r3, [r0, #8]
 80037a8:	4a0d      	ldr	r2, [pc, #52]	; (80037e0 <stm32_clock_init+0xe0>)
 80037aa:	f043 0302 	orr.w	r3, r3, #2
 80037ae:	6083      	str	r3, [r0, #8]
 80037b0:	6893      	ldr	r3, [r2, #8]
 80037b2:	f003 030c 	and.w	r3, r3, #12
 80037b6:	2b08      	cmp	r3, #8
 80037b8:	d1fa      	bne.n	80037b0 <stm32_clock_init+0xb0>
 80037ba:	6c53      	ldr	r3, [r2, #68]	; 0x44
 80037bc:	f443 4380 	orr.w	r3, r3, #16384	; 0x4000
 80037c0:	6453      	str	r3, [r2, #68]	; 0x44
 80037c2:	6e53      	ldr	r3, [r2, #100]	; 0x64
 80037c4:	f443 4380 	orr.w	r3, r3, #16384	; 0x4000
 80037c8:	6653      	str	r3, [r2, #100]	; 0x64
 80037ca:	9a01      	ldr	r2, [sp, #4]
 80037cc:	680b      	ldr	r3, [r1, #0]
 80037ce:	429a      	cmp	r2, r3
 80037d0:	d101      	bne.n	80037d6 <stm32_clock_init+0xd6>
 80037d2:	b002      	add	sp, #8
 80037d4:	bd10      	pop	{r4, pc}
 80037d6:	f7fd fd2b 	bl	8001230 <__stack_chk_fail>
 80037da:	bf00      	nop
 80037dc:	20000800 	.word	0x20000800
 80037e0:	40023800 	.word	0x40023800
 80037e4:	40007000 	.word	0x40007000
 80037e8:	07405418 	.word	0x07405418
 80037ec:	60003000 	.word	0x60003000
 80037f0:	40023c00 	.word	0x40023c00
 80037f4:	38089400 	.word	0x38089400
	...

08003800 <adc_lld_stop_conversion>:
 8003800:	b530      	push	{r4, r5, lr}
 8003802:	6b02      	ldr	r2, [r0, #48]	; 0x30
 8003804:	4c11      	ldr	r4, [pc, #68]	; (800384c <adc_lld_stop_conversion+0x4c>)
 8003806:	6812      	ldr	r2, [r2, #0]
 8003808:	6823      	ldr	r3, [r4, #0]
 800380a:	b083      	sub	sp, #12
 800380c:	9301      	str	r3, [sp, #4]
 800380e:	6813      	ldr	r3, [r2, #0]
 8003810:	f023 031f 	bic.w	r3, r3, #31
 8003814:	6013      	str	r3, [r2, #0]
 8003816:	6b01      	ldr	r1, [r0, #48]	; 0x30
 8003818:	680a      	ldr	r2, [r1, #0]
 800381a:	6813      	ldr	r3, [r2, #0]
 800381c:	f013 0301 	ands.w	r3, r3, #1
 8003820:	d1fb      	bne.n	800381a <adc_lld_stop_conversion+0x1a>
 8003822:	7a0d      	ldrb	r5, [r1, #8]
 8003824:	6849      	ldr	r1, [r1, #4]
 8003826:	223d      	movs	r2, #61	; 0x3d
 8003828:	40aa      	lsls	r2, r5
 800382a:	600a      	str	r2, [r1, #0]
 800382c:	6ac2      	ldr	r2, [r0, #44]	; 0x2c
 800382e:	6053      	str	r3, [r2, #4]
 8003830:	6ac2      	ldr	r2, [r0, #44]	; 0x2c
 8003832:	6093      	str	r3, [r2, #8]
 8003834:	6ac3      	ldr	r3, [r0, #44]	; 0x2c
 8003836:	2201      	movs	r2, #1
 8003838:	609a      	str	r2, [r3, #8]
 800383a:	9a01      	ldr	r2, [sp, #4]
 800383c:	6823      	ldr	r3, [r4, #0]
 800383e:	429a      	cmp	r2, r3
 8003840:	d101      	bne.n	8003846 <adc_lld_stop_conversion+0x46>
 8003842:	b003      	add	sp, #12
 8003844:	bd30      	pop	{r4, r5, pc}
 8003846:	f7fd fcf3 	bl	8001230 <__stack_chk_fail>
 800384a:	bf00      	nop
 800384c:	20000800 	.word	0x20000800

08003850 <Vector88>:
 8003850:	b570      	push	{r4, r5, r6, lr}
 8003852:	4c57      	ldr	r4, [pc, #348]	; (80039b0 <Vector88+0x160>)
 8003854:	b082      	sub	sp, #8
 8003856:	6823      	ldr	r3, [r4, #0]
 8003858:	9301      	str	r3, [sp, #4]
 800385a:	f7fe fde9 	bl	8002430 <_stats_increase_irq>
 800385e:	f7fd ffbf 	bl	80017e0 <_dbg_check_enter_isr>
 8003862:	4b54      	ldr	r3, [pc, #336]	; (80039b4 <Vector88+0x164>)
 8003864:	681a      	ldr	r2, [r3, #0]
 8003866:	2100      	movs	r1, #0
 8003868:	6019      	str	r1, [r3, #0]
 800386a:	0691      	lsls	r1, r2, #26
 800386c:	d505      	bpl.n	800387a <Vector88+0x2a>
 800386e:	4d52      	ldr	r5, [pc, #328]	; (80039b8 <Vector88+0x168>)
 8003870:	6b2b      	ldr	r3, [r5, #48]	; 0x30
 8003872:	681b      	ldr	r3, [r3, #0]
 8003874:	685b      	ldr	r3, [r3, #4]
 8003876:	2b00      	cmp	r3, #0
 8003878:	d16f      	bne.n	800395a <Vector88+0x10a>
 800387a:	4b50      	ldr	r3, [pc, #320]	; (80039bc <Vector88+0x16c>)
 800387c:	681a      	ldr	r2, [r3, #0]
 800387e:	2100      	movs	r1, #0
 8003880:	0692      	lsls	r2, r2, #26
 8003882:	6019      	str	r1, [r3, #0]
 8003884:	d505      	bpl.n	8003892 <Vector88+0x42>
 8003886:	4d4e      	ldr	r5, [pc, #312]	; (80039c0 <Vector88+0x170>)
 8003888:	6b2b      	ldr	r3, [r5, #48]	; 0x30
 800388a:	681b      	ldr	r3, [r3, #0]
 800388c:	685b      	ldr	r3, [r3, #4]
 800388e:	2b00      	cmp	r3, #0
 8003890:	d13b      	bne.n	800390a <Vector88+0xba>
 8003892:	4b4c      	ldr	r3, [pc, #304]	; (80039c4 <Vector88+0x174>)
 8003894:	681a      	ldr	r2, [r3, #0]
 8003896:	2100      	movs	r1, #0
 8003898:	6019      	str	r1, [r3, #0]
 800389a:	0693      	lsls	r3, r2, #26
 800389c:	d52a      	bpl.n	80038f4 <Vector88+0xa4>
 800389e:	4d4a      	ldr	r5, [pc, #296]	; (80039c8 <Vector88+0x178>)
 80038a0:	6b2b      	ldr	r3, [r5, #48]	; 0x30
 80038a2:	681b      	ldr	r3, [r3, #0]
 80038a4:	685b      	ldr	r3, [r3, #4]
 80038a6:	b32b      	cbz	r3, 80038f4 <Vector88+0xa4>
 80038a8:	692b      	ldr	r3, [r5, #16]
 80038aa:	b31b      	cbz	r3, 80038f4 <Vector88+0xa4>
 80038ac:	4628      	mov	r0, r5
 80038ae:	f7ff ffa7 	bl	8003800 <adc_lld_stop_conversion>
 80038b2:	692b      	ldr	r3, [r5, #16]
 80038b4:	689b      	ldr	r3, [r3, #8]
 80038b6:	b14b      	cbz	r3, 80038cc <Vector88+0x7c>
 80038b8:	2205      	movs	r2, #5
 80038ba:	702a      	strb	r2, [r5, #0]
 80038bc:	2101      	movs	r1, #1
 80038be:	4628      	mov	r0, r5
 80038c0:	4798      	blx	r3
 80038c2:	782b      	ldrb	r3, [r5, #0]
 80038c4:	2b05      	cmp	r3, #5
 80038c6:	bf04      	itt	eq
 80038c8:	2302      	moveq	r3, #2
 80038ca:	702b      	strbeq	r3, [r5, #0]
 80038cc:	2600      	movs	r6, #0
 80038ce:	612e      	str	r6, [r5, #16]
 80038d0:	2320      	movs	r3, #32
 80038d2:	f383 8811 	msr	BASEPRI, r3
 80038d6:	f7fe fe13 	bl	8002500 <_stats_start_measure_crit_isr>
 80038da:	f7fd ff41 	bl	8001760 <_dbg_check_lock_from_isr>
 80038de:	f04f 31ff 	mov.w	r1, #4294967295
 80038e2:	483a      	ldr	r0, [pc, #232]	; (80039cc <Vector88+0x17c>)
 80038e4:	f7fe fc7c 	bl	80021e0 <chThdResumeI>
 80038e8:	f7fd ff5a 	bl	80017a0 <_dbg_check_unlock_from_isr>
 80038ec:	f7fe fe20 	bl	8002530 <_stats_stop_measure_crit_isr>
 80038f0:	f386 8811 	msr	BASEPRI, r6
 80038f4:	f7fd ff9c 	bl	8001830 <_dbg_check_leave_isr>
 80038f8:	9a01      	ldr	r2, [sp, #4]
 80038fa:	6823      	ldr	r3, [r4, #0]
 80038fc:	429a      	cmp	r2, r3
 80038fe:	d154      	bne.n	80039aa <Vector88+0x15a>
 8003900:	b002      	add	sp, #8
 8003902:	e8bd 4070 	ldmia.w	sp!, {r4, r5, r6, lr}
 8003906:	f7ff b8e3 	b.w	8002ad0 <_port_irq_epilogue>
 800390a:	692b      	ldr	r3, [r5, #16]
 800390c:	2b00      	cmp	r3, #0
 800390e:	d0c0      	beq.n	8003892 <Vector88+0x42>
 8003910:	4628      	mov	r0, r5
 8003912:	f7ff ff75 	bl	8003800 <adc_lld_stop_conversion>
 8003916:	692b      	ldr	r3, [r5, #16]
 8003918:	689b      	ldr	r3, [r3, #8]
 800391a:	b14b      	cbz	r3, 8003930 <Vector88+0xe0>
 800391c:	2205      	movs	r2, #5
 800391e:	702a      	strb	r2, [r5, #0]
 8003920:	2101      	movs	r1, #1
 8003922:	4628      	mov	r0, r5
 8003924:	4798      	blx	r3
 8003926:	782b      	ldrb	r3, [r5, #0]
 8003928:	2b05      	cmp	r3, #5
 800392a:	bf04      	itt	eq
 800392c:	2302      	moveq	r3, #2
 800392e:	702b      	strbeq	r3, [r5, #0]
 8003930:	2600      	movs	r6, #0
 8003932:	612e      	str	r6, [r5, #16]
 8003934:	2320      	movs	r3, #32
 8003936:	f383 8811 	msr	BASEPRI, r3
 800393a:	f7fe fde1 	bl	8002500 <_stats_start_measure_crit_isr>
 800393e:	f7fd ff0f 	bl	8001760 <_dbg_check_lock_from_isr>
 8003942:	f04f 31ff 	mov.w	r1, #4294967295
 8003946:	4822      	ldr	r0, [pc, #136]	; (80039d0 <Vector88+0x180>)
 8003948:	f7fe fc4a 	bl	80021e0 <chThdResumeI>
 800394c:	f7fd ff28 	bl	80017a0 <_dbg_check_unlock_from_isr>
 8003950:	f7fe fdee 	bl	8002530 <_stats_stop_measure_crit_isr>
 8003954:	f386 8811 	msr	BASEPRI, r6
 8003958:	e79b      	b.n	8003892 <Vector88+0x42>
 800395a:	692b      	ldr	r3, [r5, #16]
 800395c:	2b00      	cmp	r3, #0
 800395e:	d08c      	beq.n	800387a <Vector88+0x2a>
 8003960:	4628      	mov	r0, r5
 8003962:	f7ff ff4d 	bl	8003800 <adc_lld_stop_conversion>
 8003966:	692b      	ldr	r3, [r5, #16]
 8003968:	689b      	ldr	r3, [r3, #8]
 800396a:	b14b      	cbz	r3, 8003980 <Vector88+0x130>
 800396c:	2205      	movs	r2, #5
 800396e:	702a      	strb	r2, [r5, #0]
 8003970:	2101      	movs	r1, #1
 8003972:	4628      	mov	r0, r5
 8003974:	4798      	blx	r3
 8003976:	782b      	ldrb	r3, [r5, #0]
 8003978:	2b05      	cmp	r3, #5
 800397a:	bf04      	itt	eq
 800397c:	2302      	moveq	r3, #2
 800397e:	702b      	strbeq	r3, [r5, #0]
 8003980:	2600      	movs	r6, #0
 8003982:	612e      	str	r6, [r5, #16]
 8003984:	2320      	movs	r3, #32
 8003986:	f383 8811 	msr	BASEPRI, r3
 800398a:	f7fe fdb9 	bl	8002500 <_stats_start_measure_crit_isr>
 800398e:	f7fd fee7 	bl	8001760 <_dbg_check_lock_from_isr>
 8003992:	f04f 31ff 	mov.w	r1, #4294967295
 8003996:	480f      	ldr	r0, [pc, #60]	; (80039d4 <Vector88+0x184>)
 8003998:	f7fe fc22 	bl	80021e0 <chThdResumeI>
 800399c:	f7fd ff00 	bl	80017a0 <_dbg_check_unlock_from_isr>
 80039a0:	f7fe fdc6 	bl	8002530 <_stats_stop_measure_crit_isr>
 80039a4:	f386 8811 	msr	BASEPRI, r6
 80039a8:	e767      	b.n	800387a <Vector88+0x2a>
 80039aa:	f7fd fc41 	bl	8001230 <__stack_chk_fail>
 80039ae:	bf00      	nop
 80039b0:	20000800 	.word	0x20000800
 80039b4:	40012000 	.word	0x40012000
 80039b8:	20001b50 	.word	0x20001b50
 80039bc:	40012100 	.word	0x40012100
 80039c0:	20001b88 	.word	0x20001b88
 80039c4:	40012200 	.word	0x40012200
 80039c8:	20001bc0 	.word	0x20001bc0
 80039cc:	20001bd4 	.word	0x20001bd4
 80039d0:	20001b9c 	.word	0x20001b9c
 80039d4:	20001b64 	.word	0x20001b64
	...

080039e0 <Vector58>:
 80039e0:	b510      	push	{r4, lr}
 80039e2:	4c0e      	ldr	r4, [pc, #56]	; (8003a1c <Vector58+0x3c>)
 80039e4:	b082      	sub	sp, #8
 80039e6:	6823      	ldr	r3, [r4, #0]
 80039e8:	9301      	str	r3, [sp, #4]
 80039ea:	f7fe fd21 	bl	8002430 <_stats_increase_irq>
 80039ee:	f7fd fef7 	bl	80017e0 <_dbg_check_enter_isr>
 80039f2:	480b      	ldr	r0, [pc, #44]	; (8003a20 <Vector58+0x40>)
 80039f4:	4a0b      	ldr	r2, [pc, #44]	; (8003a24 <Vector58+0x44>)
 80039f6:	6843      	ldr	r3, [r0, #4]
 80039f8:	2101      	movs	r1, #1
 80039fa:	6151      	str	r1, [r2, #20]
 80039fc:	685b      	ldr	r3, [r3, #4]
 80039fe:	2100      	movs	r1, #0
 8003a00:	4798      	blx	r3
 8003a02:	f7fd ff15 	bl	8001830 <_dbg_check_leave_isr>
 8003a06:	9a01      	ldr	r2, [sp, #4]
 8003a08:	6823      	ldr	r3, [r4, #0]
 8003a0a:	429a      	cmp	r2, r3
 8003a0c:	d104      	bne.n	8003a18 <Vector58+0x38>
 8003a0e:	b002      	add	sp, #8
 8003a10:	e8bd 4010 	ldmia.w	sp!, {r4, lr}
 8003a14:	f7ff b85c 	b.w	8002ad0 <_port_irq_epilogue>
 8003a18:	f7fd fc0a 	bl	8001230 <__stack_chk_fail>
 8003a1c:	20000800 	.word	0x20000800
 8003a20:	20001c28 	.word	0x20001c28
 8003a24:	40013c00 	.word	0x40013c00
	...

08003a30 <Vector5C>:
 8003a30:	b510      	push	{r4, lr}
 8003a32:	4c0e      	ldr	r4, [pc, #56]	; (8003a6c <Vector5C+0x3c>)
 8003a34:	b082      	sub	sp, #8
 8003a36:	6823      	ldr	r3, [r4, #0]
 8003a38:	9301      	str	r3, [sp, #4]
 8003a3a:	f7fe fcf9 	bl	8002430 <_stats_increase_irq>
 8003a3e:	f7fd fecf 	bl	80017e0 <_dbg_check_enter_isr>
 8003a42:	480b      	ldr	r0, [pc, #44]	; (8003a70 <Vector5C+0x40>)
 8003a44:	4a0b      	ldr	r2, [pc, #44]	; (8003a74 <Vector5C+0x44>)
 8003a46:	6843      	ldr	r3, [r0, #4]
 8003a48:	2102      	movs	r1, #2
 8003a4a:	6151      	str	r1, [r2, #20]
 8003a4c:	68db      	ldr	r3, [r3, #12]
 8003a4e:	2101      	movs	r1, #1
 8003a50:	4798      	blx	r3
 8003a52:	f7fd feed 	bl	8001830 <_dbg_check_leave_isr>
 8003a56:	9a01      	ldr	r2, [sp, #4]
 8003a58:	6823      	ldr	r3, [r4, #0]
 8003a5a:	429a      	cmp	r2, r3
 8003a5c:	d104      	bne.n	8003a68 <Vector5C+0x38>
 8003a5e:	b002      	add	sp, #8
 8003a60:	e8bd 4010 	ldmia.w	sp!, {r4, lr}
 8003a64:	f7ff b834 	b.w	8002ad0 <_port_irq_epilogue>
 8003a68:	f7fd fbe2 	bl	8001230 <__stack_chk_fail>
 8003a6c:	20000800 	.word	0x20000800
 8003a70:	20001c28 	.word	0x20001c28
 8003a74:	40013c00 	.word	0x40013c00
	...

08003a80 <Vector60>:
 8003a80:	b510      	push	{r4, lr}
 8003a82:	4c0e      	ldr	r4, [pc, #56]	; (8003abc <Vector60+0x3c>)
 8003a84:	b082      	sub	sp, #8
 8003a86:	6823      	ldr	r3, [r4, #0]
 8003a88:	9301      	str	r3, [sp, #4]
 8003a8a:	f7fe fcd1 	bl	8002430 <_stats_increase_irq>
 8003a8e:	f7fd fea7 	bl	80017e0 <_dbg_check_enter_isr>
 8003a92:	480b      	ldr	r0, [pc, #44]	; (8003ac0 <Vector60+0x40>)
 8003a94:	4a0b      	ldr	r2, [pc, #44]	; (8003ac4 <Vector60+0x44>)
 8003a96:	6843      	ldr	r3, [r0, #4]
 8003a98:	2104      	movs	r1, #4
 8003a9a:	6151      	str	r1, [r2, #20]
 8003a9c:	695b      	ldr	r3, [r3, #20]
 8003a9e:	2102      	movs	r1, #2
 8003aa0:	4798      	blx	r3
 8003aa2:	f7fd fec5 	bl	8001830 <_dbg_check_leave_isr>
 8003aa6:	9a01      	ldr	r2, [sp, #4]
 8003aa8:	6823      	ldr	r3, [r4, #0]
 8003aaa:	429a      	cmp	r2, r3
 8003aac:	d104      	bne.n	8003ab8 <Vector60+0x38>
 8003aae:	b002      	add	sp, #8
 8003ab0:	e8bd 4010 	ldmia.w	sp!, {r4, lr}
 8003ab4:	f7ff b80c 	b.w	8002ad0 <_port_irq_epilogue>
 8003ab8:	f7fd fbba 	bl	8001230 <__stack_chk_fail>
 8003abc:	20000800 	.word	0x20000800
 8003ac0:	20001c28 	.word	0x20001c28
 8003ac4:	40013c00 	.word	0x40013c00
	...

08003ad0 <Vector64>:
 8003ad0:	b510      	push	{r4, lr}
 8003ad2:	4c0e      	ldr	r4, [pc, #56]	; (8003b0c <Vector64+0x3c>)
 8003ad4:	b082      	sub	sp, #8
 8003ad6:	6823      	ldr	r3, [r4, #0]
 8003ad8:	9301      	str	r3, [sp, #4]
 8003ada:	f7fe fca9 	bl	8002430 <_stats_increase_irq>
 8003ade:	f7fd fe7f 	bl	80017e0 <_dbg_check_enter_isr>
 8003ae2:	480b      	ldr	r0, [pc, #44]	; (8003b10 <Vector64+0x40>)
 8003ae4:	4a0b      	ldr	r2, [pc, #44]	; (8003b14 <Vector64+0x44>)
 8003ae6:	6843      	ldr	r3, [r0, #4]
 8003ae8:	2108      	movs	r1, #8
 8003aea:	6151      	str	r1, [r2, #20]
 8003aec:	69db      	ldr	r3, [r3, #28]
 8003aee:	2103      	movs	r1, #3
 8003af0:	4798      	blx	r3
 8003af2:	f7fd fe9d 	bl	8001830 <_dbg_check_leave_isr>
 8003af6:	9a01      	ldr	r2, [sp, #4]
 8003af8:	6823      	ldr	r3, [r4, #0]
 8003afa:	429a      	cmp	r2, r3
 8003afc:	d104      	bne.n	8003b08 <Vector64+0x38>
 8003afe:	b002      	add	sp, #8
 8003b00:	e8bd 4010 	ldmia.w	sp!, {r4, lr}
 8003b04:	f7fe bfe4 	b.w	8002ad0 <_port_irq_epilogue>
 8003b08:	f7fd fb92 	bl	8001230 <__stack_chk_fail>
 8003b0c:	20000800 	.word	0x20000800
 8003b10:	20001c28 	.word	0x20001c28
 8003b14:	40013c00 	.word	0x40013c00
	...

08003b20 <Vector68>:
 8003b20:	b510      	push	{r4, lr}
 8003b22:	4c0e      	ldr	r4, [pc, #56]	; (8003b5c <Vector68+0x3c>)
 8003b24:	b082      	sub	sp, #8
 8003b26:	6823      	ldr	r3, [r4, #0]
 8003b28:	9301      	str	r3, [sp, #4]
 8003b2a:	f7fe fc81 	bl	8002430 <_stats_increase_irq>
 8003b2e:	f7fd fe57 	bl	80017e0 <_dbg_check_enter_isr>
 8003b32:	480b      	ldr	r0, [pc, #44]	; (8003b60 <Vector68+0x40>)
 8003b34:	4a0b      	ldr	r2, [pc, #44]	; (8003b64 <Vector68+0x44>)
 8003b36:	6843      	ldr	r3, [r0, #4]
 8003b38:	2110      	movs	r1, #16
 8003b3a:	6151      	str	r1, [r2, #20]
 8003b3c:	6a5b      	ldr	r3, [r3, #36]	; 0x24
 8003b3e:	2104      	movs	r1, #4
 8003b40:	4798      	blx	r3
 8003b42:	f7fd fe75 	bl	8001830 <_dbg_check_leave_isr>
 8003b46:	9a01      	ldr	r2, [sp, #4]
 8003b48:	6823      	ldr	r3, [r4, #0]
 8003b4a:	429a      	cmp	r2, r3
 8003b4c:	d104      	bne.n	8003b58 <Vector68+0x38>
 8003b4e:	b002      	add	sp, #8
 8003b50:	e8bd 4010 	ldmia.w	sp!, {r4, lr}
 8003b54:	f7fe bfbc 	b.w	8002ad0 <_port_irq_epilogue>
 8003b58:	f7fd fb6a 	bl	8001230 <__stack_chk_fail>
 8003b5c:	20000800 	.word	0x20000800
 8003b60:	20001c28 	.word	0x20001c28
 8003b64:	40013c00 	.word	0x40013c00
	...

08003b70 <Vector9C>:
 8003b70:	b530      	push	{r4, r5, lr}
 8003b72:	4d1e      	ldr	r5, [pc, #120]	; (8003bec <Vector9C+0x7c>)
 8003b74:	b083      	sub	sp, #12
 8003b76:	682b      	ldr	r3, [r5, #0]
 8003b78:	9301      	str	r3, [sp, #4]
 8003b7a:	f7fe fc59 	bl	8002430 <_stats_increase_irq>
 8003b7e:	f7fd fe2f 	bl	80017e0 <_dbg_check_enter_isr>
 8003b82:	4b1b      	ldr	r3, [pc, #108]	; (8003bf0 <Vector9C+0x80>)
 8003b84:	695c      	ldr	r4, [r3, #20]
 8003b86:	f404 7278 	and.w	r2, r4, #992	; 0x3e0
 8003b8a:	615a      	str	r2, [r3, #20]
 8003b8c:	06a3      	lsls	r3, r4, #26
 8003b8e:	d504      	bpl.n	8003b9a <Vector9C+0x2a>
 8003b90:	4818      	ldr	r0, [pc, #96]	; (8003bf4 <Vector9C+0x84>)
 8003b92:	6843      	ldr	r3, [r0, #4]
 8003b94:	2105      	movs	r1, #5
 8003b96:	6adb      	ldr	r3, [r3, #44]	; 0x2c
 8003b98:	4798      	blx	r3
 8003b9a:	0660      	lsls	r0, r4, #25
 8003b9c:	d504      	bpl.n	8003ba8 <Vector9C+0x38>
 8003b9e:	4815      	ldr	r0, [pc, #84]	; (8003bf4 <Vector9C+0x84>)
 8003ba0:	6843      	ldr	r3, [r0, #4]
 8003ba2:	2106      	movs	r1, #6
 8003ba4:	6b5b      	ldr	r3, [r3, #52]	; 0x34
 8003ba6:	4798      	blx	r3
 8003ba8:	0621      	lsls	r1, r4, #24
 8003baa:	d504      	bpl.n	8003bb6 <Vector9C+0x46>
 8003bac:	4811      	ldr	r0, [pc, #68]	; (8003bf4 <Vector9C+0x84>)
 8003bae:	6843      	ldr	r3, [r0, #4]
 8003bb0:	2107      	movs	r1, #7
 8003bb2:	6bdb      	ldr	r3, [r3, #60]	; 0x3c
 8003bb4:	4798      	blx	r3
 8003bb6:	05e2      	lsls	r2, r4, #23
 8003bb8:	d504      	bpl.n	8003bc4 <Vector9C+0x54>
 8003bba:	480e      	ldr	r0, [pc, #56]	; (8003bf4 <Vector9C+0x84>)
 8003bbc:	6843      	ldr	r3, [r0, #4]
 8003bbe:	2108      	movs	r1, #8
 8003bc0:	6c5b      	ldr	r3, [r3, #68]	; 0x44
 8003bc2:	4798      	blx	r3
 8003bc4:	05a3      	lsls	r3, r4, #22
 8003bc6:	d504      	bpl.n	8003bd2 <Vector9C+0x62>
 8003bc8:	480a      	ldr	r0, [pc, #40]	; (8003bf4 <Vector9C+0x84>)
 8003bca:	6843      	ldr	r3, [r0, #4]
 8003bcc:	2109      	movs	r1, #9
 8003bce:	6cdb      	ldr	r3, [r3, #76]	; 0x4c
 8003bd0:	4798      	blx	r3
 8003bd2:	f7fd fe2d 	bl	8001830 <_dbg_check_leave_isr>
 8003bd6:	9a01      	ldr	r2, [sp, #4]
 8003bd8:	682b      	ldr	r3, [r5, #0]
 8003bda:	429a      	cmp	r2, r3
 8003bdc:	d104      	bne.n	8003be8 <Vector9C+0x78>
 8003bde:	b003      	add	sp, #12
 8003be0:	e8bd 4030 	ldmia.w	sp!, {r4, r5, lr}
 8003be4:	f7fe bf74 	b.w	8002ad0 <_port_irq_epilogue>
 8003be8:	f7fd fb22 	bl	8001230 <__stack_chk_fail>
 8003bec:	20000800 	.word	0x20000800
 8003bf0:	40013c00 	.word	0x40013c00
 8003bf4:	20001c28 	.word	0x20001c28
	...

08003c00 <VectorE0>:
 8003c00:	b530      	push	{r4, r5, lr}
 8003c02:	4d22      	ldr	r5, [pc, #136]	; (8003c8c <VectorE0+0x8c>)
 8003c04:	b083      	sub	sp, #12
 8003c06:	682b      	ldr	r3, [r5, #0]
 8003c08:	9301      	str	r3, [sp, #4]
 8003c0a:	f7fe fc11 	bl	8002430 <_stats_increase_irq>
 8003c0e:	f7fd fde7 	bl	80017e0 <_dbg_check_enter_isr>
 8003c12:	4b1f      	ldr	r3, [pc, #124]	; (8003c90 <VectorE0+0x90>)
 8003c14:	695c      	ldr	r4, [r3, #20]
 8003c16:	f404 427c 	and.w	r2, r4, #64512	; 0xfc00
 8003c1a:	615a      	str	r2, [r3, #20]
 8003c1c:	0562      	lsls	r2, r4, #21
 8003c1e:	d504      	bpl.n	8003c2a <VectorE0+0x2a>
 8003c20:	481c      	ldr	r0, [pc, #112]	; (8003c94 <VectorE0+0x94>)
 8003c22:	6843      	ldr	r3, [r0, #4]
 8003c24:	210a      	movs	r1, #10
 8003c26:	6d5b      	ldr	r3, [r3, #84]	; 0x54
 8003c28:	4798      	blx	r3
 8003c2a:	0523      	lsls	r3, r4, #20
 8003c2c:	d504      	bpl.n	8003c38 <VectorE0+0x38>
 8003c2e:	4819      	ldr	r0, [pc, #100]	; (8003c94 <VectorE0+0x94>)
 8003c30:	6843      	ldr	r3, [r0, #4]
 8003c32:	210b      	movs	r1, #11
 8003c34:	6ddb      	ldr	r3, [r3, #92]	; 0x5c
 8003c36:	4798      	blx	r3
 8003c38:	04e0      	lsls	r0, r4, #19
 8003c3a:	d504      	bpl.n	8003c46 <VectorE0+0x46>
 8003c3c:	4815      	ldr	r0, [pc, #84]	; (8003c94 <VectorE0+0x94>)
 8003c3e:	6843      	ldr	r3, [r0, #4]
 8003c40:	210c      	movs	r1, #12
 8003c42:	6e5b      	ldr	r3, [r3, #100]	; 0x64
 8003c44:	4798      	blx	r3
 8003c46:	04a1      	lsls	r1, r4, #18
 8003c48:	d504      	bpl.n	8003c54 <VectorE0+0x54>
 8003c4a:	4812      	ldr	r0, [pc, #72]	; (8003c94 <VectorE0+0x94>)
 8003c4c:	6843      	ldr	r3, [r0, #4]
 8003c4e:	210d      	movs	r1, #13
 8003c50:	6edb      	ldr	r3, [r3, #108]	; 0x6c
 8003c52:	4798      	blx	r3
 8003c54:	0462      	lsls	r2, r4, #17
 8003c56:	d504      	bpl.n	8003c62 <VectorE0+0x62>
 8003c58:	480e      	ldr	r0, [pc, #56]	; (8003c94 <VectorE0+0x94>)
 8003c5a:	6843      	ldr	r3, [r0, #4]
 8003c5c:	210e      	movs	r1, #14
 8003c5e:	6f5b      	ldr	r3, [r3, #116]	; 0x74
 8003c60:	4798      	blx	r3
 8003c62:	0423      	lsls	r3, r4, #16
 8003c64:	d504      	bpl.n	8003c70 <VectorE0+0x70>
 8003c66:	480b      	ldr	r0, [pc, #44]	; (8003c94 <VectorE0+0x94>)
 8003c68:	6843      	ldr	r3, [r0, #4]
 8003c6a:	210f      	movs	r1, #15
 8003c6c:	6fdb      	ldr	r3, [r3, #124]	; 0x7c
 8003c6e:	4798      	blx	r3
 8003c70:	f7fd fdde 	bl	8001830 <_dbg_check_leave_isr>
 8003c74:	9a01      	ldr	r2, [sp, #4]
 8003c76:	682b      	ldr	r3, [r5, #0]
 8003c78:	429a      	cmp	r2, r3
 8003c7a:	d104      	bne.n	8003c86 <VectorE0+0x86>
 8003c7c:	b003      	add	sp, #12
 8003c7e:	e8bd 4030 	ldmia.w	sp!, {r4, r5, lr}
 8003c82:	f7fe bf25 	b.w	8002ad0 <_port_irq_epilogue>
 8003c86:	f7fd fad3 	bl	8001230 <__stack_chk_fail>
 8003c8a:	bf00      	nop
 8003c8c:	20000800 	.word	0x20000800
 8003c90:	40013c00 	.word	0x40013c00
 8003c94:	20001c28 	.word	0x20001c28
	...

08003ca0 <Vector44>:
 8003ca0:	b510      	push	{r4, lr}
 8003ca2:	4c0f      	ldr	r4, [pc, #60]	; (8003ce0 <Vector44+0x40>)
 8003ca4:	b082      	sub	sp, #8
 8003ca6:	6823      	ldr	r3, [r4, #0]
 8003ca8:	9301      	str	r3, [sp, #4]
 8003caa:	f7fe fbc1 	bl	8002430 <_stats_increase_irq>
 8003cae:	f7fd fd97 	bl	80017e0 <_dbg_check_enter_isr>
 8003cb2:	480c      	ldr	r0, [pc, #48]	; (8003ce4 <Vector44+0x44>)
 8003cb4:	4a0c      	ldr	r2, [pc, #48]	; (8003ce8 <Vector44+0x48>)
 8003cb6:	6843      	ldr	r3, [r0, #4]
 8003cb8:	f44f 3180 	mov.w	r1, #65536	; 0x10000
 8003cbc:	6151      	str	r1, [r2, #20]
 8003cbe:	f8d3 3084 	ldr.w	r3, [r3, #132]	; 0x84
 8003cc2:	2110      	movs	r1, #16
 8003cc4:	4798      	blx	r3
 8003cc6:	f7fd fdb3 	bl	8001830 <_dbg_check_leave_isr>
 8003cca:	9a01      	ldr	r2, [sp, #4]
 8003ccc:	6823      	ldr	r3, [r4, #0]
 8003cce:	429a      	cmp	r2, r3
 8003cd0:	d104      	bne.n	8003cdc <Vector44+0x3c>
 8003cd2:	b002      	add	sp, #8
 8003cd4:	e8bd 4010 	ldmia.w	sp!, {r4, lr}
 8003cd8:	f7fe befa 	b.w	8002ad0 <_port_irq_epilogue>
 8003cdc:	f7fd faa8 	bl	8001230 <__stack_chk_fail>
 8003ce0:	20000800 	.word	0x20000800
 8003ce4:	20001c28 	.word	0x20001c28
 8003ce8:	40013c00 	.word	0x40013c00
 8003cec:	00000000 	.word	0x00000000

08003cf0 <VectorE4>:
 8003cf0:	b510      	push	{r4, lr}
 8003cf2:	4c0f      	ldr	r4, [pc, #60]	; (8003d30 <VectorE4+0x40>)
 8003cf4:	b082      	sub	sp, #8
 8003cf6:	6823      	ldr	r3, [r4, #0]
 8003cf8:	9301      	str	r3, [sp, #4]
 8003cfa:	f7fe fb99 	bl	8002430 <_stats_increase_irq>
 8003cfe:	f7fd fd6f 	bl	80017e0 <_dbg_check_enter_isr>
 8003d02:	480c      	ldr	r0, [pc, #48]	; (8003d34 <VectorE4+0x44>)
 8003d04:	4a0c      	ldr	r2, [pc, #48]	; (8003d38 <VectorE4+0x48>)
 8003d06:	6843      	ldr	r3, [r0, #4]
 8003d08:	f44f 3100 	mov.w	r1, #131072	; 0x20000
 8003d0c:	6151      	str	r1, [r2, #20]
 8003d0e:	f8d3 308c 	ldr.w	r3, [r3, #140]	; 0x8c
 8003d12:	2111      	movs	r1, #17
 8003d14:	4798      	blx	r3
 8003d16:	f7fd fd8b 	bl	8001830 <_dbg_check_leave_isr>
 8003d1a:	9a01      	ldr	r2, [sp, #4]
 8003d1c:	6823      	ldr	r3, [r4, #0]
 8003d1e:	429a      	cmp	r2, r3
 8003d20:	d104      	bne.n	8003d2c <VectorE4+0x3c>
 8003d22:	b002      	add	sp, #8
 8003d24:	e8bd 4010 	ldmia.w	sp!, {r4, lr}
 8003d28:	f7fe bed2 	b.w	8002ad0 <_port_irq_epilogue>
 8003d2c:	f7fd fa80 	bl	8001230 <__stack_chk_fail>
 8003d30:	20000800 	.word	0x20000800
 8003d34:	20001c28 	.word	0x20001c28
 8003d38:	40013c00 	.word	0x40013c00
 8003d3c:	00000000 	.word	0x00000000

08003d40 <VectorE8>:
 8003d40:	b510      	push	{r4, lr}
 8003d42:	4c0f      	ldr	r4, [pc, #60]	; (8003d80 <VectorE8+0x40>)
 8003d44:	b082      	sub	sp, #8
 8003d46:	6823      	ldr	r3, [r4, #0]
 8003d48:	9301      	str	r3, [sp, #4]
 8003d4a:	f7fe fb71 	bl	8002430 <_stats_increase_irq>
 8003d4e:	f7fd fd47 	bl	80017e0 <_dbg_check_enter_isr>
 8003d52:	480c      	ldr	r0, [pc, #48]	; (8003d84 <VectorE8+0x44>)
 8003d54:	4a0c      	ldr	r2, [pc, #48]	; (8003d88 <VectorE8+0x48>)
 8003d56:	6843      	ldr	r3, [r0, #4]
 8003d58:	f44f 2180 	mov.w	r1, #262144	; 0x40000
 8003d5c:	6151      	str	r1, [r2, #20]
 8003d5e:	f8d3 3094 	ldr.w	r3, [r3, #148]	; 0x94
 8003d62:	2112      	movs	r1, #18
 8003d64:	4798      	blx	r3
 8003d66:	f7fd fd63 	bl	8001830 <_dbg_check_leave_isr>
 8003d6a:	9a01      	ldr	r2, [sp, #4]
 8003d6c:	6823      	ldr	r3, [r4, #0]
 8003d6e:	429a      	cmp	r2, r3
 8003d70:	d104      	bne.n	8003d7c <VectorE8+0x3c>
 8003d72:	b002      	add	sp, #8
 8003d74:	e8bd 4010 	ldmia.w	sp!, {r4, lr}
 8003d78:	f7fe beaa 	b.w	8002ad0 <_port_irq_epilogue>
 8003d7c:	f7fd fa58 	bl	8001230 <__stack_chk_fail>
 8003d80:	20000800 	.word	0x20000800
 8003d84:	20001c28 	.word	0x20001c28
 8003d88:	40013c00 	.word	0x40013c00
 8003d8c:	00000000 	.word	0x00000000

08003d90 <Vector138>:
 8003d90:	b510      	push	{r4, lr}
 8003d92:	4c0f      	ldr	r4, [pc, #60]	; (8003dd0 <Vector138+0x40>)
 8003d94:	b082      	sub	sp, #8
 8003d96:	6823      	ldr	r3, [r4, #0]
 8003d98:	9301      	str	r3, [sp, #4]
 8003d9a:	f7fe fb49 	bl	8002430 <_stats_increase_irq>
 8003d9e:	f7fd fd1f 	bl	80017e0 <_dbg_check_enter_isr>
 8003da2:	480c      	ldr	r0, [pc, #48]	; (8003dd4 <Vector138+0x44>)
 8003da4:	4a0c      	ldr	r2, [pc, #48]	; (8003dd8 <Vector138+0x48>)
 8003da6:	6843      	ldr	r3, [r0, #4]
 8003da8:	f44f 2100 	mov.w	r1, #524288	; 0x80000
 8003dac:	6151      	str	r1, [r2, #20]
 8003dae:	f8d3 309c 	ldr.w	r3, [r3, #156]	; 0x9c
 8003db2:	2113      	movs	r1, #19
 8003db4:	4798      	blx	r3
 8003db6:	f7fd fd3b 	bl	8001830 <_dbg_check_leave_isr>
 8003dba:	9a01      	ldr	r2, [sp, #4]
 8003dbc:	6823      	ldr	r3, [r4, #0]
 8003dbe:	429a      	cmp	r2, r3
 8003dc0:	d104      	bne.n	8003dcc <Vector138+0x3c>
 8003dc2:	b002      	add	sp, #8
 8003dc4:	e8bd 4010 	ldmia.w	sp!, {r4, lr}
 8003dc8:	f7fe be82 	b.w	8002ad0 <_port_irq_epilogue>
 8003dcc:	f7fd fa30 	bl	8001230 <__stack_chk_fail>
 8003dd0:	20000800 	.word	0x20000800
 8003dd4:	20001c28 	.word	0x20001c28
 8003dd8:	40013c00 	.word	0x40013c00
 8003ddc:	00000000 	.word	0x00000000

08003de0 <Vector170>:
 8003de0:	b510      	push	{r4, lr}
 8003de2:	4c0f      	ldr	r4, [pc, #60]	; (8003e20 <Vector170+0x40>)
 8003de4:	b082      	sub	sp, #8
 8003de6:	6823      	ldr	r3, [r4, #0]
 8003de8:	9301      	str	r3, [sp, #4]
 8003dea:	f7fe fb21 	bl	8002430 <_stats_increase_irq>
 8003dee:	f7fd fcf7 	bl	80017e0 <_dbg_check_enter_isr>
 8003df2:	480c      	ldr	r0, [pc, #48]	; (8003e24 <Vector170+0x44>)
 8003df4:	4a0c      	ldr	r2, [pc, #48]	; (8003e28 <Vector170+0x48>)
 8003df6:	6843      	ldr	r3, [r0, #4]
 8003df8:	f44f 1180 	mov.w	r1, #1048576	; 0x100000
 8003dfc:	6151      	str	r1, [r2, #20]
 8003dfe:	f8d3 30a4 	ldr.w	r3, [r3, #164]	; 0xa4
 8003e02:	2114      	movs	r1, #20
 8003e04:	4798      	blx	r3
 8003e06:	f7fd fd13 	bl	8001830 <_dbg_check_leave_isr>
 8003e0a:	9a01      	ldr	r2, [sp, #4]
 8003e0c:	6823      	ldr	r3, [r4, #0]
 8003e0e:	429a      	cmp	r2, r3
 8003e10:	d104      	bne.n	8003e1c <Vector170+0x3c>
 8003e12:	b002      	add	sp, #8
 8003e14:	e8bd 4010 	ldmia.w	sp!, {r4, lr}
 8003e18:	f7fe be5a 	b.w	8002ad0 <_port_irq_epilogue>
 8003e1c:	f7fd fa08 	bl	8001230 <__stack_chk_fail>
 8003e20:	20000800 	.word	0x20000800
 8003e24:	20001c28 	.word	0x20001c28
 8003e28:	40013c00 	.word	0x40013c00
 8003e2c:	00000000 	.word	0x00000000

08003e30 <Vector48>:
 8003e30:	b510      	push	{r4, lr}
 8003e32:	4c0f      	ldr	r4, [pc, #60]	; (8003e70 <Vector48+0x40>)
 8003e34:	b082      	sub	sp, #8
 8003e36:	6823      	ldr	r3, [r4, #0]
 8003e38:	9301      	str	r3, [sp, #4]
 8003e3a:	f7fe faf9 	bl	8002430 <_stats_increase_irq>
 8003e3e:	f7fd fccf 	bl	80017e0 <_dbg_check_enter_isr>
 8003e42:	480c      	ldr	r0, [pc, #48]	; (8003e74 <Vector48+0x44>)
 8003e44:	4a0c      	ldr	r2, [pc, #48]	; (8003e78 <Vector48+0x48>)
 8003e46:	6843      	ldr	r3, [r0, #4]
 8003e48:	f44f 1100 	mov.w	r1, #2097152	; 0x200000
 8003e4c:	6151      	str	r1, [r2, #20]
 8003e4e:	f8d3 30ac 	ldr.w	r3, [r3, #172]	; 0xac
 8003e52:	2115      	movs	r1, #21
 8003e54:	4798      	blx	r3
 8003e56:	f7fd fceb 	bl	8001830 <_dbg_check_leave_isr>
 8003e5a:	9a01      	ldr	r2, [sp, #4]
 8003e5c:	6823      	ldr	r3, [r4, #0]
 8003e5e:	429a      	cmp	r2, r3
 8003e60:	d104      	bne.n	8003e6c <Vector48+0x3c>
 8003e62:	b002      	add	sp, #8
 8003e64:	e8bd 4010 	ldmia.w	sp!, {r4, lr}
 8003e68:	f7fe be32 	b.w	8002ad0 <_port_irq_epilogue>
 8003e6c:	f7fd f9e0 	bl	8001230 <__stack_chk_fail>
 8003e70:	20000800 	.word	0x20000800
 8003e74:	20001c28 	.word	0x20001c28
 8003e78:	40013c00 	.word	0x40013c00
 8003e7c:	00000000 	.word	0x00000000

08003e80 <Vector4C>:
 8003e80:	b510      	push	{r4, lr}
 8003e82:	4c0f      	ldr	r4, [pc, #60]	; (8003ec0 <Vector4C+0x40>)
 8003e84:	b082      	sub	sp, #8
 8003e86:	6823      	ldr	r3, [r4, #0]
 8003e88:	9301      	str	r3, [sp, #4]
 8003e8a:	f7fe fad1 	bl	8002430 <_stats_increase_irq>
 8003e8e:	f7fd fca7 	bl	80017e0 <_dbg_check_enter_isr>
 8003e92:	480c      	ldr	r0, [pc, #48]	; (8003ec4 <Vector4C+0x44>)
 8003e94:	4a0c      	ldr	r2, [pc, #48]	; (8003ec8 <Vector4C+0x48>)
 8003e96:	6843      	ldr	r3, [r0, #4]
 8003e98:	f44f 0180 	mov.w	r1, #4194304	; 0x400000
 8003e9c:	6151      	str	r1, [r2, #20]
 8003e9e:	f8d3 30b4 	ldr.w	r3, [r3, #180]	; 0xb4
 8003ea2:	2116      	movs	r1, #22
 8003ea4:	4798      	blx	r3
 8003ea6:	f7fd fcc3 	bl	8001830 <_dbg_check_leave_isr>
 8003eaa:	9a01      	ldr	r2, [sp, #4]
 8003eac:	6823      	ldr	r3, [r4, #0]
 8003eae:	429a      	cmp	r2, r3
 8003eb0:	d104      	bne.n	8003ebc <Vector4C+0x3c>
 8003eb2:	b002      	add	sp, #8
 8003eb4:	e8bd 4010 	ldmia.w	sp!, {r4, lr}
 8003eb8:	f7fe be0a 	b.w	8002ad0 <_port_irq_epilogue>
 8003ebc:	f7fd f9b8 	bl	8001230 <__stack_chk_fail>
 8003ec0:	20000800 	.word	0x20000800
 8003ec4:	20001c28 	.word	0x20001c28
 8003ec8:	40013c00 	.word	0x40013c00
 8003ecc:	00000000 	.word	0x00000000

08003ed0 <Vector8C>:
 8003ed0:	b530      	push	{r4, r5, lr}
 8003ed2:	4d18      	ldr	r5, [pc, #96]	; (8003f34 <Vector8C+0x64>)
 8003ed4:	4c18      	ldr	r4, [pc, #96]	; (8003f38 <Vector8C+0x68>)
 8003ed6:	682b      	ldr	r3, [r5, #0]
 8003ed8:	b083      	sub	sp, #12
 8003eda:	9301      	str	r3, [sp, #4]
 8003edc:	f7fe faa8 	bl	8002430 <_stats_increase_irq>
 8003ee0:	f7fd fc7e 	bl	80017e0 <_dbg_check_enter_isr>
 8003ee4:	6ae3      	ldr	r3, [r4, #44]	; 0x2c
 8003ee6:	4a15      	ldr	r2, [pc, #84]	; (8003f3c <Vector8C+0x6c>)
 8003ee8:	609a      	str	r2, [r3, #8]
 8003eea:	2320      	movs	r3, #32
 8003eec:	f383 8811 	msr	BASEPRI, r3
 8003ef0:	f7fe fb06 	bl	8002500 <_stats_start_measure_crit_isr>
 8003ef4:	f7fd fc34 	bl	8001760 <_dbg_check_lock_from_isr>
 8003ef8:	f104 0008 	add.w	r0, r4, #8
 8003efc:	2100      	movs	r1, #0
 8003efe:	f7fe f9cf 	bl	80022a0 <chThdDequeueAllI>
 8003f02:	f104 001c 	add.w	r0, r4, #28
 8003f06:	2101      	movs	r1, #1
 8003f08:	f7fe fcea 	bl	80028e0 <chEvtBroadcastFlagsI>
 8003f0c:	f7fd fc48 	bl	80017a0 <_dbg_check_unlock_from_isr>
 8003f10:	f7fe fb0e 	bl	8002530 <_stats_stop_measure_crit_isr>
 8003f14:	2300      	movs	r3, #0
 8003f16:	f383 8811 	msr	BASEPRI, r3
 8003f1a:	f7fd fc89 	bl	8001830 <_dbg_check_leave_isr>
 8003f1e:	9a01      	ldr	r2, [sp, #4]
 8003f20:	682b      	ldr	r3, [r5, #0]
 8003f22:	429a      	cmp	r2, r3
 8003f24:	d104      	bne.n	8003f30 <Vector8C+0x60>
 8003f26:	b003      	add	sp, #12
 8003f28:	e8bd 4030 	ldmia.w	sp!, {r4, r5, lr}
 8003f2c:	f7fe bdd0 	b.w	8002ad0 <_port_irq_epilogue>
 8003f30:	f7fd f97e 	bl	8001230 <__stack_chk_fail>
 8003f34:	20000800 	.word	0x20000800
 8003f38:	20001bf8 	.word	0x20001bf8
 8003f3c:	00010101 	.word	0x00010101

08003f40 <Vector90>:
 8003f40:	b570      	push	{r4, r5, r6, lr}
 8003f42:	4d27      	ldr	r5, [pc, #156]	; (8003fe0 <Vector90+0xa0>)
 8003f44:	4c27      	ldr	r4, [pc, #156]	; (8003fe4 <Vector90+0xa4>)
 8003f46:	682b      	ldr	r3, [r5, #0]
 8003f48:	b082      	sub	sp, #8
 8003f4a:	9301      	str	r3, [sp, #4]
 8003f4c:	f7fe fa70 	bl	8002430 <_stats_increase_irq>
 8003f50:	f7fd fc46 	bl	80017e0 <_dbg_check_enter_isr>
 8003f54:	6ae3      	ldr	r3, [r4, #44]	; 0x2c
 8003f56:	68de      	ldr	r6, [r3, #12]
 8003f58:	07b2      	lsls	r2, r6, #30
 8003f5a:	d121      	bne.n	8003fa0 <Vector90+0x60>
 8003f5c:	06f3      	lsls	r3, r6, #27
 8003f5e:	d514      	bpl.n	8003f8a <Vector90+0x4a>
 8003f60:	6ae3      	ldr	r3, [r4, #44]	; 0x2c
 8003f62:	2410      	movs	r4, #16
 8003f64:	60dc      	str	r4, [r3, #12]
 8003f66:	2320      	movs	r3, #32
 8003f68:	f383 8811 	msr	BASEPRI, r3
 8003f6c:	f7fe fac8 	bl	8002500 <_stats_start_measure_crit_isr>
 8003f70:	f7fd fbf6 	bl	8001760 <_dbg_check_lock_from_isr>
 8003f74:	4621      	mov	r1, r4
 8003f76:	481c      	ldr	r0, [pc, #112]	; (8003fe8 <Vector90+0xa8>)
 8003f78:	f7fe fcb2 	bl	80028e0 <chEvtBroadcastFlagsI>
 8003f7c:	f7fd fc10 	bl	80017a0 <_dbg_check_unlock_from_isr>
 8003f80:	f7fe fad6 	bl	8002530 <_stats_stop_measure_crit_isr>
 8003f84:	2300      	movs	r3, #0
 8003f86:	f383 8811 	msr	BASEPRI, r3
 8003f8a:	f7fd fc51 	bl	8001830 <_dbg_check_leave_isr>
 8003f8e:	9a01      	ldr	r2, [sp, #4]
 8003f90:	682b      	ldr	r3, [r5, #0]
 8003f92:	429a      	cmp	r2, r3
 8003f94:	d121      	bne.n	8003fda <Vector90+0x9a>
 8003f96:	b002      	add	sp, #8
 8003f98:	e8bd 4070 	ldmia.w	sp!, {r4, r5, r6, lr}
 8003f9c:	f7fe bd98 	b.w	8002ad0 <_port_irq_epilogue>
 8003fa0:	695a      	ldr	r2, [r3, #20]
 8003fa2:	f022 0202 	bic.w	r2, r2, #2
 8003fa6:	615a      	str	r2, [r3, #20]
 8003fa8:	2320      	movs	r3, #32
 8003faa:	f383 8811 	msr	BASEPRI, r3
 8003fae:	f7fe faa7 	bl	8002500 <_stats_start_measure_crit_isr>
 8003fb2:	f7fd fbd5 	bl	8001760 <_dbg_check_lock_from_isr>
 8003fb6:	f104 0010 	add.w	r0, r4, #16
 8003fba:	2100      	movs	r1, #0
 8003fbc:	f7fe f970 	bl	80022a0 <chThdDequeueAllI>
 8003fc0:	f104 0018 	add.w	r0, r4, #24
 8003fc4:	2101      	movs	r1, #1
 8003fc6:	f7fe fc8b 	bl	80028e0 <chEvtBroadcastFlagsI>
 8003fca:	f7fd fbe9 	bl	80017a0 <_dbg_check_unlock_from_isr>
 8003fce:	f7fe faaf 	bl	8002530 <_stats_stop_measure_crit_isr>
 8003fd2:	2300      	movs	r3, #0
 8003fd4:	f383 8811 	msr	BASEPRI, r3
 8003fd8:	e7c0      	b.n	8003f5c <Vector90+0x1c>
 8003fda:	f7fd f929 	bl	8001230 <__stack_chk_fail>
 8003fde:	bf00      	nop
 8003fe0:	20000800 	.word	0x20000800
 8003fe4:	20001bf8 	.word	0x20001bf8
 8003fe8:	20001c18 	.word	0x20001c18
 8003fec:	00000000 	.word	0x00000000

08003ff0 <Vector94>:
 8003ff0:	b570      	push	{r4, r5, r6, lr}
 8003ff2:	4d27      	ldr	r5, [pc, #156]	; (8004090 <Vector94+0xa0>)
 8003ff4:	4c27      	ldr	r4, [pc, #156]	; (8004094 <Vector94+0xa4>)
 8003ff6:	682b      	ldr	r3, [r5, #0]
 8003ff8:	b082      	sub	sp, #8
 8003ffa:	9301      	str	r3, [sp, #4]
 8003ffc:	f7fe fa18 	bl	8002430 <_stats_increase_irq>
 8004000:	f7fd fbee 	bl	80017e0 <_dbg_check_enter_isr>
 8004004:	6ae3      	ldr	r3, [r4, #44]	; 0x2c
 8004006:	691e      	ldr	r6, [r3, #16]
 8004008:	07b2      	lsls	r2, r6, #30
 800400a:	d121      	bne.n	8004050 <Vector94+0x60>
 800400c:	06f3      	lsls	r3, r6, #27
 800400e:	d514      	bpl.n	800403a <Vector94+0x4a>
 8004010:	6ae3      	ldr	r3, [r4, #44]	; 0x2c
 8004012:	2410      	movs	r4, #16
 8004014:	611c      	str	r4, [r3, #16]
 8004016:	2320      	movs	r3, #32
 8004018:	f383 8811 	msr	BASEPRI, r3
 800401c:	f7fe fa70 	bl	8002500 <_stats_start_measure_crit_isr>
 8004020:	f7fd fb9e 	bl	8001760 <_dbg_check_lock_from_isr>
 8004024:	4621      	mov	r1, r4
 8004026:	481c      	ldr	r0, [pc, #112]	; (8004098 <Vector94+0xa8>)
 8004028:	f7fe fc5a 	bl	80028e0 <chEvtBroadcastFlagsI>
 800402c:	f7fd fbb8 	bl	80017a0 <_dbg_check_unlock_from_isr>
 8004030:	f7fe fa7e 	bl	8002530 <_stats_stop_measure_crit_isr>
 8004034:	2300      	movs	r3, #0
 8004036:	f383 8811 	msr	BASEPRI, r3
 800403a:	f7fd fbf9 	bl	8001830 <_dbg_check_leave_isr>
 800403e:	9a01      	ldr	r2, [sp, #4]
 8004040:	682b      	ldr	r3, [r5, #0]
 8004042:	429a      	cmp	r2, r3
 8004044:	d121      	bne.n	800408a <Vector94+0x9a>
 8004046:	b002      	add	sp, #8
 8004048:	e8bd 4070 	ldmia.w	sp!, {r4, r5, r6, lr}
 800404c:	f7fe bd40 	b.w	8002ad0 <_port_irq_epilogue>
 8004050:	695a      	ldr	r2, [r3, #20]
 8004052:	f022 0210 	bic.w	r2, r2, #16
 8004056:	615a      	str	r2, [r3, #20]
 8004058:	2320      	movs	r3, #32
 800405a:	f383 8811 	msr	BASEPRI, r3
 800405e:	f7fe fa4f 	bl	8002500 <_stats_start_measure_crit_isr>
 8004062:	f7fd fb7d 	bl	8001760 <_dbg_check_lock_from_isr>
 8004066:	f104 0010 	add.w	r0, r4, #16
 800406a:	2100      	movs	r1, #0
 800406c:	f7fe f918 	bl	80022a0 <chThdDequeueAllI>
 8004070:	f104 0018 	add.w	r0, r4, #24
 8004074:	2102      	movs	r1, #2
 8004076:	f7fe fc33 	bl	80028e0 <chEvtBroadcastFlagsI>
 800407a:	f7fd fb91 	bl	80017a0 <_dbg_check_unlock_from_isr>
 800407e:	f7fe fa57 	bl	8002530 <_stats_stop_measure_crit_isr>
 8004082:	2300      	movs	r3, #0
 8004084:	f383 8811 	msr	BASEPRI, r3
 8004088:	e7c0      	b.n	800400c <Vector94+0x1c>
 800408a:	f7fd f8d1 	bl	8001230 <__stack_chk_fail>
 800408e:	bf00      	nop
 8004090:	20000800 	.word	0x20000800
 8004094:	20001bf8 	.word	0x20001bf8
 8004098:	20001c18 	.word	0x20001c18
 800409c:	00000000 	.word	0x00000000

080040a0 <Vector98>:
 80040a0:	b570      	push	{r4, r5, r6, lr}
 80040a2:	4d2c      	ldr	r5, [pc, #176]	; (8004154 <Vector98+0xb4>)
 80040a4:	4c2c      	ldr	r4, [pc, #176]	; (8004158 <Vector98+0xb8>)
 80040a6:	682b      	ldr	r3, [r5, #0]
 80040a8:	b082      	sub	sp, #8
 80040aa:	9301      	str	r3, [sp, #4]
 80040ac:	f7fe f9c0 	bl	8002430 <_stats_increase_irq>
 80040b0:	f7fd fb96 	bl	80017e0 <_dbg_check_enter_isr>
 80040b4:	6ae3      	ldr	r3, [r4, #44]	; 0x2c
 80040b6:	685e      	ldr	r6, [r3, #4]
 80040b8:	221c      	movs	r2, #28
 80040ba:	605a      	str	r2, [r3, #4]
 80040bc:	0732      	lsls	r2, r6, #28
 80040be:	d42c      	bmi.n	800411a <Vector98+0x7a>
 80040c0:	0773      	lsls	r3, r6, #29
 80040c2:	d51f      	bpl.n	8004104 <Vector98+0x64>
 80040c4:	6ae3      	ldr	r3, [r4, #44]	; 0x2c
 80040c6:	699c      	ldr	r4, [r3, #24]
 80040c8:	699a      	ldr	r2, [r3, #24]
 80040ca:	f004 0607 	and.w	r6, r4, #7
 80040ce:	f022 0270 	bic.w	r2, r2, #112	; 0x70
 80040d2:	f014 0f70 	tst.w	r4, #112	; 0x70
 80040d6:	619a      	str	r2, [r3, #24]
 80040d8:	bf18      	it	ne
 80040da:	f046 0608 	orrne.w	r6, r6, #8
 80040de:	2320      	movs	r3, #32
 80040e0:	f383 8811 	msr	BASEPRI, r3
 80040e4:	f7fe fa0c 	bl	8002500 <_stats_start_measure_crit_isr>
 80040e8:	f7fd fb3a 	bl	8001760 <_dbg_check_lock_from_isr>
 80040ec:	ea46 4104 	orr.w	r1, r6, r4, lsl #16
 80040f0:	481a      	ldr	r0, [pc, #104]	; (800415c <Vector98+0xbc>)
 80040f2:	f7fe fbf5 	bl	80028e0 <chEvtBroadcastFlagsI>
 80040f6:	f7fd fb53 	bl	80017a0 <_dbg_check_unlock_from_isr>
 80040fa:	f7fe fa19 	bl	8002530 <_stats_stop_measure_crit_isr>
 80040fe:	2300      	movs	r3, #0
 8004100:	f383 8811 	msr	BASEPRI, r3
 8004104:	f7fd fb94 	bl	8001830 <_dbg_check_leave_isr>
 8004108:	9a01      	ldr	r2, [sp, #4]
 800410a:	682b      	ldr	r3, [r5, #0]
 800410c:	429a      	cmp	r2, r3
 800410e:	d11f      	bne.n	8004150 <Vector98+0xb0>
 8004110:	b002      	add	sp, #8
 8004112:	e8bd 4070 	ldmia.w	sp!, {r4, r5, r6, lr}
 8004116:	f7fe bcdb 	b.w	8002ad0 <_port_irq_epilogue>
 800411a:	6ae2      	ldr	r2, [r4, #44]	; 0x2c
 800411c:	2303      	movs	r3, #3
 800411e:	7023      	strb	r3, [r4, #0]
 8004120:	6813      	ldr	r3, [r2, #0]
 8004122:	f023 0302 	bic.w	r3, r3, #2
 8004126:	6013      	str	r3, [r2, #0]
 8004128:	2320      	movs	r3, #32
 800412a:	f383 8811 	msr	BASEPRI, r3
 800412e:	f7fe f9e7 	bl	8002500 <_stats_start_measure_crit_isr>
 8004132:	f7fd fb15 	bl	8001760 <_dbg_check_lock_from_isr>
 8004136:	f104 0028 	add.w	r0, r4, #40	; 0x28
 800413a:	2100      	movs	r1, #0
 800413c:	f7fe fbd0 	bl	80028e0 <chEvtBroadcastFlagsI>
 8004140:	f7fd fb2e 	bl	80017a0 <_dbg_check_unlock_from_isr>
 8004144:	f7fe f9f4 	bl	8002530 <_stats_stop_measure_crit_isr>
 8004148:	2300      	movs	r3, #0
 800414a:	f383 8811 	msr	BASEPRI, r3
 800414e:	e7b7      	b.n	80040c0 <Vector98+0x20>
 8004150:	f7fd f86e 	bl	8001230 <__stack_chk_fail>
 8004154:	20000800 	.word	0x20000800
 8004158:	20001bf8 	.word	0x20001bf8
 800415c:	20001c18 	.word	0x20001c18

08004160 <Vector104>:
 8004160:	b530      	push	{r4, r5, lr}
 8004162:	4d14      	ldr	r5, [pc, #80]	; (80041b4 <Vector104+0x54>)
 8004164:	b083      	sub	sp, #12
 8004166:	682b      	ldr	r3, [r5, #0]
 8004168:	9301      	str	r3, [sp, #4]
 800416a:	f7fe f961 	bl	8002430 <_stats_increase_irq>
 800416e:	f7fd fb37 	bl	80017e0 <_dbg_check_enter_isr>
 8004172:	2320      	movs	r3, #32
 8004174:	f383 8811 	msr	BASEPRI, r3
 8004178:	f7fe f9c2 	bl	8002500 <_stats_start_measure_crit_isr>
 800417c:	f7fd faf0 	bl	8001760 <_dbg_check_lock_from_isr>
 8004180:	4b0d      	ldr	r3, [pc, #52]	; (80041b8 <Vector104+0x58>)
 8004182:	480e      	ldr	r0, [pc, #56]	; (80041bc <Vector104+0x5c>)
 8004184:	2400      	movs	r4, #0
 8004186:	63dc      	str	r4, [r3, #60]	; 0x3c
 8004188:	4621      	mov	r1, r4
 800418a:	f7fe f829 	bl	80021e0 <chThdResumeI>
 800418e:	f7fd fb07 	bl	80017a0 <_dbg_check_unlock_from_isr>
 8004192:	f7fe f9cd 	bl	8002530 <_stats_stop_measure_crit_isr>
 8004196:	f384 8811 	msr	BASEPRI, r4
 800419a:	f7fd fb49 	bl	8001830 <_dbg_check_leave_isr>
 800419e:	9a01      	ldr	r2, [sp, #4]
 80041a0:	682b      	ldr	r3, [r5, #0]
 80041a2:	429a      	cmp	r2, r3
 80041a4:	d104      	bne.n	80041b0 <Vector104+0x50>
 80041a6:	b003      	add	sp, #12
 80041a8:	e8bd 4030 	ldmia.w	sp!, {r4, r5, lr}
 80041ac:	f7fe bc90 	b.w	8002ad0 <_port_irq_epilogue>
 80041b0:	f7fd f83e 	bl	8001230 <__stack_chk_fail>
 80041b4:	20000800 	.word	0x20000800
 80041b8:	40012c00 	.word	0x40012c00
 80041bc:	20001c6c 	.word	0x20001c6c

080041c0 <VectorBC>:
 80041c0:	e92d 41f0 	stmdb	sp!, {r4, r5, r6, r7, r8, lr}
 80041c4:	4e47      	ldr	r6, [pc, #284]	; (80042e4 <VectorBC+0x124>)
 80041c6:	4d48      	ldr	r5, [pc, #288]	; (80042e8 <VectorBC+0x128>)
 80041c8:	6833      	ldr	r3, [r6, #0]
 80041ca:	b082      	sub	sp, #8
 80041cc:	9301      	str	r3, [sp, #4]
 80041ce:	f7fe f92f 	bl	8002430 <_stats_increase_irq>
 80041d2:	f7fd fb05 	bl	80017e0 <_dbg_check_enter_isr>
 80041d6:	6bac      	ldr	r4, [r5, #56]	; 0x38
 80041d8:	4a44      	ldr	r2, [pc, #272]	; (80042ec <VectorBC+0x12c>)
 80041da:	69a3      	ldr	r3, [r4, #24]
 80041dc:	6967      	ldr	r7, [r4, #20]
 80041de:	ea47 4303 	orr.w	r3, r7, r3, lsl #16
 80041e2:	f023 437f 	bic.w	r3, r3, #4278190080	; 0xff000000
 80041e6:	4293      	cmp	r3, r2
 80041e8:	d04e      	beq.n	8004288 <VectorBC+0xc8>
 80041ea:	d82b      	bhi.n	8004244 <VectorBC+0x84>
 80041ec:	3a07      	subs	r2, #7
 80041ee:	4293      	cmp	r3, r2
 80041f0:	d03e      	beq.n	8004270 <VectorBC+0xb0>
 80041f2:	3201      	adds	r2, #1
 80041f4:	4293      	cmp	r3, r2
 80041f6:	d116      	bne.n	8004226 <VectorBC+0x66>
 80041f8:	6863      	ldr	r3, [r4, #4]
 80041fa:	f423 7300 	bic.w	r3, r3, #512	; 0x200
 80041fe:	6063      	str	r3, [r4, #4]
 8004200:	6b2b      	ldr	r3, [r5, #48]	; 0x30
 8004202:	681a      	ldr	r2, [r3, #0]
 8004204:	6813      	ldr	r3, [r2, #0]
 8004206:	f043 0301 	orr.w	r3, r3, #1
 800420a:	6013      	str	r3, [r2, #0]
 800420c:	6863      	ldr	r3, [r4, #4]
 800420e:	f443 5380 	orr.w	r3, r3, #4096	; 0x1000
 8004212:	6063      	str	r3, [r4, #4]
 8004214:	6b2b      	ldr	r3, [r5, #48]	; 0x30
 8004216:	681b      	ldr	r3, [r3, #0]
 8004218:	685b      	ldr	r3, [r3, #4]
 800421a:	2b01      	cmp	r3, #1
 800421c:	d803      	bhi.n	8004226 <VectorBC+0x66>
 800421e:	6823      	ldr	r3, [r4, #0]
 8004220:	f423 6380 	bic.w	r3, r3, #1024	; 0x400
 8004224:	6023      	str	r3, [r4, #0]
 8004226:	f017 0f0a 	tst.w	r7, #10
 800422a:	bf18      	it	ne
 800422c:	69a3      	ldrne	r3, [r4, #24]
 800422e:	f7fd faff 	bl	8001830 <_dbg_check_leave_isr>
 8004232:	9a01      	ldr	r2, [sp, #4]
 8004234:	6833      	ldr	r3, [r6, #0]
 8004236:	429a      	cmp	r2, r3
 8004238:	d151      	bne.n	80042de <VectorBC+0x11e>
 800423a:	b002      	add	sp, #8
 800423c:	e8bd 41f0 	ldmia.w	sp!, {r4, r5, r6, r7, r8, lr}
 8004240:	f7fe bc46 	b.w	8002ad0 <_port_irq_epilogue>
 8004244:	4a2a      	ldr	r2, [pc, #168]	; (80042f0 <VectorBC+0x130>)
 8004246:	4293      	cmp	r3, r2
 8004248:	d023      	beq.n	8004292 <VectorBC+0xd2>
 800424a:	3202      	adds	r2, #2
 800424c:	4293      	cmp	r3, r2
 800424e:	d1ea      	bne.n	8004226 <VectorBC+0x66>
 8004250:	6b2b      	ldr	r3, [r5, #48]	; 0x30
 8004252:	681b      	ldr	r3, [r3, #0]
 8004254:	f8d3 8004 	ldr.w	r8, [r3, #4]
 8004258:	f1b8 0f00 	cmp.w	r8, #0
 800425c:	d024      	beq.n	80042a8 <VectorBC+0xe8>
 800425e:	8cab      	ldrh	r3, [r5, #36]	; 0x24
 8004260:	f043 0301 	orr.w	r3, r3, #1
 8004264:	84ab      	strh	r3, [r5, #36]	; 0x24
 8004266:	6823      	ldr	r3, [r4, #0]
 8004268:	f443 63a0 	orr.w	r3, r3, #1280	; 0x500
 800426c:	6023      	str	r3, [r4, #0]
 800426e:	e7de      	b.n	800422e <VectorBC+0x6e>
 8004270:	8cab      	ldrh	r3, [r5, #36]	; 0x24
 8004272:	0a1a      	lsrs	r2, r3, #8
 8004274:	d00b      	beq.n	800428e <VectorBC+0xce>
 8004276:	f003 0301 	and.w	r3, r3, #1
 800427a:	f043 03f0 	orr.w	r3, r3, #240	; 0xf0
 800427e:	f002 0206 	and.w	r2, r2, #6
 8004282:	4313      	orrs	r3, r2
 8004284:	6123      	str	r3, [r4, #16]
 8004286:	e7ce      	b.n	8004226 <VectorBC+0x66>
 8004288:	8cab      	ldrh	r3, [r5, #36]	; 0x24
 800428a:	f3c3 0347 	ubfx	r3, r3, #1, #8
 800428e:	6123      	str	r3, [r4, #16]
 8004290:	e7c9      	b.n	8004226 <VectorBC+0x66>
 8004292:	6863      	ldr	r3, [r4, #4]
 8004294:	f423 7300 	bic.w	r3, r3, #512	; 0x200
 8004298:	6063      	str	r3, [r4, #4]
 800429a:	6b6b      	ldr	r3, [r5, #52]	; 0x34
 800429c:	681a      	ldr	r2, [r3, #0]
 800429e:	6813      	ldr	r3, [r2, #0]
 80042a0:	f043 0301 	orr.w	r3, r3, #1
 80042a4:	6013      	str	r3, [r2, #0]
 80042a6:	e7be      	b.n	8004226 <VectorBC+0x66>
 80042a8:	6863      	ldr	r3, [r4, #4]
 80042aa:	f423 7300 	bic.w	r3, r3, #512	; 0x200
 80042ae:	6063      	str	r3, [r4, #4]
 80042b0:	6823      	ldr	r3, [r4, #0]
 80042b2:	f443 7300 	orr.w	r3, r3, #512	; 0x200
 80042b6:	6023      	str	r3, [r4, #0]
 80042b8:	2320      	movs	r3, #32
 80042ba:	f383 8811 	msr	BASEPRI, r3
 80042be:	f7fe f91f 	bl	8002500 <_stats_start_measure_crit_isr>
 80042c2:	f7fd fa4d 	bl	8001760 <_dbg_check_lock_from_isr>
 80042c6:	4641      	mov	r1, r8
 80042c8:	f105 0020 	add.w	r0, r5, #32
 80042cc:	f7fd ff88 	bl	80021e0 <chThdResumeI>
 80042d0:	f7fd fa66 	bl	80017a0 <_dbg_check_unlock_from_isr>
 80042d4:	f7fe f92c 	bl	8002530 <_stats_stop_measure_crit_isr>
 80042d8:	f388 8811 	msr	BASEPRI, r8
 80042dc:	e7a3      	b.n	8004226 <VectorBC+0x66>
 80042de:	f7fc ffa7 	bl	8001230 <__stack_chk_fail>
 80042e2:	bf00      	nop
 80042e4:	20000800 	.word	0x20000800
 80042e8:	20001c7c 	.word	0x20001c7c
 80042ec:	00030008 	.word	0x00030008
 80042f0:	00070082 	.word	0x00070082
	...

08004300 <VectorC0>:
 8004300:	b5f0      	push	{r4, r5, r6, r7, lr}
 8004302:	4c44      	ldr	r4, [pc, #272]	; (8004414 <VectorC0+0x114>)
 8004304:	4d44      	ldr	r5, [pc, #272]	; (8004418 <VectorC0+0x118>)
 8004306:	6ba3      	ldr	r3, [r4, #56]	; 0x38
 8004308:	682a      	ldr	r2, [r5, #0]
 800430a:	b083      	sub	sp, #12
 800430c:	9201      	str	r2, [sp, #4]
 800430e:	695e      	ldr	r6, [r3, #20]
 8004310:	f7fe f88e 	bl	8002430 <_stats_increase_irq>
 8004314:	f7fd fa64 	bl	80017e0 <_dbg_check_enter_isr>
 8004318:	6ba2      	ldr	r2, [r4, #56]	; 0x38
 800431a:	f406 435f 	and.w	r3, r6, #57088	; 0xdf00
 800431e:	43db      	mvns	r3, r3
 8004320:	6153      	str	r3, [r2, #20]
 8004322:	6b63      	ldr	r3, [r4, #52]	; 0x34
 8004324:	681a      	ldr	r2, [r3, #0]
 8004326:	6813      	ldr	r3, [r2, #0]
 8004328:	f023 031f 	bic.w	r3, r3, #31
 800432c:	6013      	str	r3, [r2, #0]
 800432e:	6b60      	ldr	r0, [r4, #52]	; 0x34
 8004330:	6801      	ldr	r1, [r0, #0]
 8004332:	b2b2      	uxth	r2, r6
 8004334:	680b      	ldr	r3, [r1, #0]
 8004336:	07db      	lsls	r3, r3, #31
 8004338:	d4fc      	bmi.n	8004334 <VectorC0+0x34>
 800433a:	7a07      	ldrb	r7, [r0, #8]
 800433c:	6841      	ldr	r1, [r0, #4]
 800433e:	233d      	movs	r3, #61	; 0x3d
 8004340:	40bb      	lsls	r3, r7
 8004342:	600b      	str	r3, [r1, #0]
 8004344:	6b23      	ldr	r3, [r4, #48]	; 0x30
 8004346:	6819      	ldr	r1, [r3, #0]
 8004348:	680b      	ldr	r3, [r1, #0]
 800434a:	f023 031f 	bic.w	r3, r3, #31
 800434e:	600b      	str	r3, [r1, #0]
 8004350:	6b20      	ldr	r0, [r4, #48]	; 0x30
 8004352:	6801      	ldr	r1, [r0, #0]
 8004354:	680b      	ldr	r3, [r1, #0]
 8004356:	07df      	lsls	r7, r3, #31
 8004358:	d4fc      	bmi.n	8004354 <VectorC0+0x54>
 800435a:	7a07      	ldrb	r7, [r0, #8]
 800435c:	6841      	ldr	r1, [r0, #4]
 800435e:	233d      	movs	r3, #61	; 0x3d
 8004360:	40bb      	lsls	r3, r7
 8004362:	600b      	str	r3, [r1, #0]
 8004364:	f412 7380 	ands.w	r3, r2, #256	; 0x100
 8004368:	bf18      	it	ne
 800436a:	2301      	movne	r3, #1
 800436c:	60a3      	str	r3, [r4, #8]
 800436e:	0593      	lsls	r3, r2, #22
 8004370:	d503      	bpl.n	800437a <VectorC0+0x7a>
 8004372:	68a3      	ldr	r3, [r4, #8]
 8004374:	f043 0302 	orr.w	r3, r3, #2
 8004378:	60a3      	str	r3, [r4, #8]
 800437a:	0557      	lsls	r7, r2, #21
 800437c:	d430      	bmi.n	80043e0 <VectorC0+0xe0>
 800437e:	68a3      	ldr	r3, [r4, #8]
 8004380:	0510      	lsls	r0, r2, #20
 8004382:	bf44      	itt	mi
 8004384:	f043 0308 	orrmi.w	r3, r3, #8
 8004388:	60a3      	strmi	r3, [r4, #8]
 800438a:	0451      	lsls	r1, r2, #17
 800438c:	bf44      	itt	mi
 800438e:	f043 0320 	orrmi.w	r3, r3, #32
 8004392:	60a3      	strmi	r3, [r4, #8]
 8004394:	04d2      	lsls	r2, r2, #19
 8004396:	b236      	sxth	r6, r6
 8004398:	d531      	bpl.n	80043fe <VectorC0+0xfe>
 800439a:	f043 0310 	orr.w	r3, r3, #16
 800439e:	2e00      	cmp	r6, #0
 80043a0:	60a3      	str	r3, [r4, #8]
 80043a2:	db31      	blt.n	8004408 <VectorC0+0x108>
 80043a4:	2320      	movs	r3, #32
 80043a6:	f383 8811 	msr	BASEPRI, r3
 80043aa:	f7fe f8a9 	bl	8002500 <_stats_start_measure_crit_isr>
 80043ae:	f7fd f9d7 	bl	8001760 <_dbg_check_lock_from_isr>
 80043b2:	f06f 0101 	mvn.w	r1, #1
 80043b6:	4819      	ldr	r0, [pc, #100]	; (800441c <VectorC0+0x11c>)
 80043b8:	f7fd ff12 	bl	80021e0 <chThdResumeI>
 80043bc:	f7fd f9f0 	bl	80017a0 <_dbg_check_unlock_from_isr>
 80043c0:	f7fe f8b6 	bl	8002530 <_stats_stop_measure_crit_isr>
 80043c4:	2300      	movs	r3, #0
 80043c6:	f383 8811 	msr	BASEPRI, r3
 80043ca:	f7fd fa31 	bl	8001830 <_dbg_check_leave_isr>
 80043ce:	9a01      	ldr	r2, [sp, #4]
 80043d0:	682b      	ldr	r3, [r5, #0]
 80043d2:	429a      	cmp	r2, r3
 80043d4:	d11c      	bne.n	8004410 <VectorC0+0x110>
 80043d6:	b003      	add	sp, #12
 80043d8:	e8bd 40f0 	ldmia.w	sp!, {r4, r5, r6, r7, lr}
 80043dc:	f7fe bb78 	b.w	8002ad0 <_port_irq_epilogue>
 80043e0:	6ba1      	ldr	r1, [r4, #56]	; 0x38
 80043e2:	684b      	ldr	r3, [r1, #4]
 80043e4:	f423 7300 	bic.w	r3, r3, #512	; 0x200
 80043e8:	604b      	str	r3, [r1, #4]
 80043ea:	6ba1      	ldr	r1, [r4, #56]	; 0x38
 80043ec:	680b      	ldr	r3, [r1, #0]
 80043ee:	f443 7300 	orr.w	r3, r3, #512	; 0x200
 80043f2:	600b      	str	r3, [r1, #0]
 80043f4:	68a3      	ldr	r3, [r4, #8]
 80043f6:	f043 0304 	orr.w	r3, r3, #4
 80043fa:	60a3      	str	r3, [r4, #8]
 80043fc:	e7c0      	b.n	8004380 <VectorC0+0x80>
 80043fe:	2e00      	cmp	r6, #0
 8004400:	db02      	blt.n	8004408 <VectorC0+0x108>
 8004402:	2b00      	cmp	r3, #0
 8004404:	d0e1      	beq.n	80043ca <VectorC0+0xca>
 8004406:	e7cd      	b.n	80043a4 <VectorC0+0xa4>
 8004408:	f043 0340 	orr.w	r3, r3, #64	; 0x40
 800440c:	60a3      	str	r3, [r4, #8]
 800440e:	e7c9      	b.n	80043a4 <VectorC0+0xa4>
 8004410:	f7fc ff0e 	bl	8001230 <__stack_chk_fail>
 8004414:	20001c7c 	.word	0x20001c7c
 8004418:	20000800 	.word	0x20000800
 800441c:	20001c9c 	.word	0x20001c9c

08004420 <usb_lld_reset>:
 8004420:	b5f0      	push	{r4, r5, r6, r7, lr}
 8004422:	4e35      	ldr	r6, [pc, #212]	; (80044f8 <usb_lld_reset+0xd8>)
 8004424:	6d05      	ldr	r5, [r0, #80]	; 0x50
 8004426:	6833      	ldr	r3, [r6, #0]
 8004428:	b083      	sub	sp, #12
 800442a:	4607      	mov	r7, r0
 800442c:	9301      	str	r3, [sp, #4]
 800442e:	2320      	movs	r3, #32
 8004430:	612b      	str	r3, [r5, #16]
 8004432:	692c      	ldr	r4, [r5, #16]
 8004434:	f014 0420 	ands.w	r4, r4, #32
 8004438:	d1fb      	bne.n	8004432 <usb_lld_reset+0x12>
 800443a:	200c      	movs	r0, #12
 800443c:	f7fd f938 	bl	80016b0 <chSysPolledDelayX>
 8004440:	4623      	mov	r3, r4
 8004442:	f04f 6000 	mov.w	r0, #134217728	; 0x8000000
 8004446:	21ff      	movs	r1, #255	; 0xff
 8004448:	eb05 1243 	add.w	r2, r5, r3, lsl #5
 800444c:	3301      	adds	r3, #1
 800444e:	f8c2 0900 	str.w	r0, [r2, #2304]	; 0x900
 8004452:	f8c2 0b00 	str.w	r0, [r2, #2816]	; 0xb00
 8004456:	f8c2 1908 	str.w	r1, [r2, #2312]	; 0x908
 800445a:	f8c2 1b08 	str.w	r1, [r2, #2824]	; 0xb08
 800445e:	6d7a      	ldr	r2, [r7, #84]	; 0x54
 8004460:	6892      	ldr	r2, [r2, #8]
 8004462:	429a      	cmp	r2, r3
 8004464:	d2f0      	bcs.n	8004448 <usb_lld_reset+0x28>
 8004466:	f04f 32ff 	mov.w	r2, #4294967295
 800446a:	f04f 1301 	mov.w	r3, #65537	; 0x10001
 800446e:	f8c5 2818 	str.w	r2, [r5, #2072]	; 0x818
 8004472:	f8c5 381c 	str.w	r3, [r5, #2076]	; 0x81c
 8004476:	6d7b      	ldr	r3, [r7, #84]	; 0x54
 8004478:	681a      	ldr	r2, [r3, #0]
 800447a:	65ba      	str	r2, [r7, #88]	; 0x58
 800447c:	681b      	ldr	r3, [r3, #0]
 800447e:	626b      	str	r3, [r5, #36]	; 0x24
 8004480:	6d3a      	ldr	r2, [r7, #80]	; 0x50
 8004482:	2310      	movs	r3, #16
 8004484:	6113      	str	r3, [r2, #16]
 8004486:	6914      	ldr	r4, [r2, #16]
 8004488:	f014 0410 	ands.w	r4, r4, #16
 800448c:	d1fb      	bne.n	8004486 <usb_lld_reset+0x66>
 800448e:	200c      	movs	r0, #12
 8004490:	f7fd f90e 	bl	80016b0 <chSysPolledDelayX>
 8004494:	f8d5 3800 	ldr.w	r3, [r5, #2048]	; 0x800
 8004498:	4a18      	ldr	r2, [pc, #96]	; (80044fc <usb_lld_reset+0xdc>)
 800449a:	f423 63fe 	bic.w	r3, r3, #2032	; 0x7f0
 800449e:	f8c5 3800 	str.w	r3, [r5, #2048]	; 0x800
 80044a2:	69ab      	ldr	r3, [r5, #24]
 80044a4:	f443 2340 	orr.w	r3, r3, #786432	; 0xc0000
 80044a8:	f043 0310 	orr.w	r3, r3, #16
 80044ac:	61ab      	str	r3, [r5, #24]
 80044ae:	2309      	movs	r3, #9
 80044b0:	f8c5 3810 	str.w	r3, [r5, #2064]	; 0x810
 80044b4:	f8c5 3814 	str.w	r3, [r5, #2068]	; 0x814
 80044b8:	4b11      	ldr	r3, [pc, #68]	; (8004500 <usb_lld_reset+0xe0>)
 80044ba:	60fa      	str	r2, [r7, #12]
 80044bc:	f8c5 4b10 	str.w	r4, [r5, #2832]	; 0xb10
 80044c0:	f8c5 3b00 	str.w	r3, [r5, #2816]	; 0xb00
 80044c4:	f8c5 4910 	str.w	r4, [r5, #2320]	; 0x910
 80044c8:	f8c5 3900 	str.w	r3, [r5, #2304]	; 0x900
 80044cc:	e9d7 2415 	ldrd	r2, r4, [r7, #84]	; 0x54
 80044d0:	f104 0310 	add.w	r3, r4, #16
 80044d4:	65bb      	str	r3, [r7, #88]	; 0x58
 80044d6:	6852      	ldr	r2, [r2, #4]
 80044d8:	4293      	cmp	r3, r2
 80044da:	d902      	bls.n	80044e2 <usb_lld_reset+0xc2>
 80044dc:	4809      	ldr	r0, [pc, #36]	; (8004504 <usb_lld_reset+0xe4>)
 80044de:	f7fd f887 	bl	80015f0 <chSysHalt>
 80044e2:	f444 1480 	orr.w	r4, r4, #1048576	; 0x100000
 80044e6:	62ac      	str	r4, [r5, #40]	; 0x28
 80044e8:	9a01      	ldr	r2, [sp, #4]
 80044ea:	6833      	ldr	r3, [r6, #0]
 80044ec:	429a      	cmp	r2, r3
 80044ee:	d101      	bne.n	80044f4 <usb_lld_reset+0xd4>
 80044f0:	b003      	add	sp, #12
 80044f2:	bdf0      	pop	{r4, r5, r6, r7, pc}
 80044f4:	f7fc fe9c 	bl	8001230 <__stack_chk_fail>
 80044f8:	20000800 	.word	0x20000800
 80044fc:	08008c30 	.word	0x08008c30
 8004500:	10008040 	.word	0x10008040
 8004504:	08008c20 	.word	0x08008c20
	...

08004510 <usb_lld_set_address>:
 8004510:	b500      	push	{lr}
 8004512:	4a0c      	ldr	r2, [pc, #48]	; (8004544 <usb_lld_set_address+0x34>)
 8004514:	6d01      	ldr	r1, [r0, #80]	; 0x50
 8004516:	6813      	ldr	r3, [r2, #0]
 8004518:	f890 004e 	ldrb.w	r0, [r0, #78]	; 0x4e
 800451c:	b083      	sub	sp, #12
 800451e:	9301      	str	r3, [sp, #4]
 8004520:	f8d1 3800 	ldr.w	r3, [r1, #2048]	; 0x800
 8004524:	f423 63fe 	bic.w	r3, r3, #2032	; 0x7f0
 8004528:	ea43 1300 	orr.w	r3, r3, r0, lsl #4
 800452c:	f8c1 3800 	str.w	r3, [r1, #2048]	; 0x800
 8004530:	9901      	ldr	r1, [sp, #4]
 8004532:	6813      	ldr	r3, [r2, #0]
 8004534:	4299      	cmp	r1, r3
 8004536:	d102      	bne.n	800453e <usb_lld_set_address+0x2e>
 8004538:	b003      	add	sp, #12
 800453a:	f85d fb04 	ldr.w	pc, [sp], #4
 800453e:	f7fc fe77 	bl	8001230 <__stack_chk_fail>
 8004542:	bf00      	nop
 8004544:	20000800 	.word	0x20000800
	...

08004550 <usb_lld_get_status_out>:
 8004550:	b500      	push	{lr}
 8004552:	4a0c      	ldr	r2, [pc, #48]	; (8004584 <usb_lld_get_status_out+0x34>)
 8004554:	6d03      	ldr	r3, [r0, #80]	; 0x50
 8004556:	6810      	ldr	r0, [r2, #0]
 8004558:	b083      	sub	sp, #12
 800455a:	3158      	adds	r1, #88	; 0x58
 800455c:	0149      	lsls	r1, r1, #5
 800455e:	9001      	str	r0, [sp, #4]
 8004560:	585b      	ldr	r3, [r3, r1]
 8004562:	f413 4000 	ands.w	r0, r3, #32768	; 0x8000
 8004566:	d004      	beq.n	8004572 <usb_lld_get_status_out+0x22>
 8004568:	f413 1f00 	tst.w	r3, #2097152	; 0x200000
 800456c:	bf14      	ite	ne
 800456e:	2001      	movne	r0, #1
 8004570:	2002      	moveq	r0, #2
 8004572:	9901      	ldr	r1, [sp, #4]
 8004574:	6813      	ldr	r3, [r2, #0]
 8004576:	4299      	cmp	r1, r3
 8004578:	d102      	bne.n	8004580 <usb_lld_get_status_out+0x30>
 800457a:	b003      	add	sp, #12
 800457c:	f85d fb04 	ldr.w	pc, [sp], #4
 8004580:	f7fc fe56 	bl	8001230 <__stack_chk_fail>
 8004584:	20000800 	.word	0x20000800
	...

08004590 <usb_lld_get_status_in>:
 8004590:	b500      	push	{lr}
 8004592:	4a0c      	ldr	r2, [pc, #48]	; (80045c4 <usb_lld_get_status_in+0x34>)
 8004594:	6d03      	ldr	r3, [r0, #80]	; 0x50
 8004596:	6810      	ldr	r0, [r2, #0]
 8004598:	b083      	sub	sp, #12
 800459a:	3148      	adds	r1, #72	; 0x48
 800459c:	0149      	lsls	r1, r1, #5
 800459e:	9001      	str	r0, [sp, #4]
 80045a0:	585b      	ldr	r3, [r3, r1]
 80045a2:	f413 4000 	ands.w	r0, r3, #32768	; 0x8000
 80045a6:	d004      	beq.n	80045b2 <usb_lld_get_status_in+0x22>
 80045a8:	f413 1f00 	tst.w	r3, #2097152	; 0x200000
 80045ac:	bf14      	ite	ne
 80045ae:	2001      	movne	r0, #1
 80045b0:	2002      	moveq	r0, #2
 80045b2:	9901      	ldr	r1, [sp, #4]
 80045b4:	6813      	ldr	r3, [r2, #0]
 80045b6:	4299      	cmp	r1, r3
 80045b8:	d102      	bne.n	80045c0 <usb_lld_get_status_in+0x30>
 80045ba:	b003      	add	sp, #12
 80045bc:	f85d fb04 	ldr.w	pc, [sp], #4
 80045c0:	f7fc fe36 	bl	8001230 <__stack_chk_fail>
 80045c4:	20000800 	.word	0x20000800
	...

080045d0 <usb_lld_read_setup>:
 80045d0:	b510      	push	{r4, lr}
 80045d2:	eb00 0181 	add.w	r1, r0, r1, lsl #2
 80045d6:	4b09      	ldr	r3, [pc, #36]	; (80045fc <usb_lld_read_setup+0x2c>)
 80045d8:	68c9      	ldr	r1, [r1, #12]
 80045da:	6818      	ldr	r0, [r3, #0]
 80045dc:	6a09      	ldr	r1, [r1, #32]
 80045de:	b082      	sub	sp, #8
 80045e0:	680c      	ldr	r4, [r1, #0]
 80045e2:	9001      	str	r0, [sp, #4]
 80045e4:	6848      	ldr	r0, [r1, #4]
 80045e6:	6014      	str	r4, [r2, #0]
 80045e8:	9901      	ldr	r1, [sp, #4]
 80045ea:	681b      	ldr	r3, [r3, #0]
 80045ec:	6050      	str	r0, [r2, #4]
 80045ee:	4299      	cmp	r1, r3
 80045f0:	d101      	bne.n	80045f6 <usb_lld_read_setup+0x26>
 80045f2:	b002      	add	sp, #8
 80045f4:	bd10      	pop	{r4, pc}
 80045f6:	f7fc fe1b 	bl	8001230 <__stack_chk_fail>
 80045fa:	bf00      	nop
 80045fc:	20000800 	.word	0x20000800

08004600 <usb_lld_prepare_receive>:
 8004600:	b5f0      	push	{r4, r5, r6, r7, lr}
 8004602:	eb00 0781 	add.w	r7, r0, r1, lsl #2
 8004606:	4e13      	ldr	r6, [pc, #76]	; (8004654 <usb_lld_prepare_receive+0x54>)
 8004608:	68fa      	ldr	r2, [r7, #12]
 800460a:	6833      	ldr	r3, [r6, #0]
 800460c:	6995      	ldr	r5, [r2, #24]
 800460e:	b083      	sub	sp, #12
 8004610:	686a      	ldr	r2, [r5, #4]
 8004612:	9301      	str	r3, [sp, #4]
 8004614:	612a      	str	r2, [r5, #16]
 8004616:	b929      	cbnz	r1, 8004624 <usb_lld_prepare_receive+0x24>
 8004618:	2a40      	cmp	r2, #64	; 0x40
 800461a:	d903      	bls.n	8004624 <usb_lld_prepare_receive+0x24>
 800461c:	2240      	movs	r2, #64	; 0x40
 800461e:	4c0e      	ldr	r4, [pc, #56]	; (8004658 <usb_lld_prepare_receive+0x58>)
 8004620:	606a      	str	r2, [r5, #4]
 8004622:	e001      	b.n	8004628 <usb_lld_prepare_receive+0x28>
 8004624:	f042 44c0 	orr.w	r4, r2, #1610612736	; 0x60000000
 8004628:	68fb      	ldr	r3, [r7, #12]
 800462a:	6d00      	ldr	r0, [r0, #80]	; 0x50
 800462c:	8a5d      	ldrh	r5, [r3, #18]
 800462e:	eb00 1141 	add.w	r1, r0, r1, lsl #5
 8004632:	1e6b      	subs	r3, r5, #1
 8004634:	4413      	add	r3, r2
 8004636:	fbb3 f3f5 	udiv	r3, r3, r5
 800463a:	ea44 43c3 	orr.w	r3, r4, r3, lsl #19
 800463e:	f8c1 3b10 	str.w	r3, [r1, #2832]	; 0xb10
 8004642:	9a01      	ldr	r2, [sp, #4]
 8004644:	6833      	ldr	r3, [r6, #0]
 8004646:	429a      	cmp	r2, r3
 8004648:	d101      	bne.n	800464e <usb_lld_prepare_receive+0x4e>
 800464a:	b003      	add	sp, #12
 800464c:	bdf0      	pop	{r4, r5, r6, r7, pc}
 800464e:	f7fc fdef 	bl	8001230 <__stack_chk_fail>
 8004652:	bf00      	nop
 8004654:	20000800 	.word	0x20000800
 8004658:	60000040 	.word	0x60000040
 800465c:	00000000 	.word	0x00000000

08004660 <otg_epout_handler.constprop.7>:
 8004660:	e92d 41f0 	stmdb	sp!, {r4, r5, r6, r7, r8, lr}
 8004664:	4e31      	ldr	r6, [pc, #196]	; (800472c <otg_epout_handler.constprop.7+0xcc>)
 8004666:	f8df 80c8 	ldr.w	r8, [pc, #200]	; 8004730 <otg_epout_handler.constprop.7+0xd0>
 800466a:	6d37      	ldr	r7, [r6, #80]	; 0x50
 800466c:	f8d8 3000 	ldr.w	r3, [r8]
 8004670:	b082      	sub	sp, #8
 8004672:	4605      	mov	r5, r0
 8004674:	9301      	str	r3, [sp, #4]
 8004676:	eb07 1340 	add.w	r3, r7, r0, lsl #5
 800467a:	f8d3 4b08 	ldr.w	r4, [r3, #2824]	; 0xb08
 800467e:	f8c3 4b08 	str.w	r4, [r3, #2824]	; 0xb08
 8004682:	0720      	lsls	r0, r4, #28
 8004684:	d50a      	bpl.n	800469c <otg_epout_handler.constprop.7+0x3c>
 8004686:	f8d7 3814 	ldr.w	r3, [r7, #2068]	; 0x814
 800468a:	0719      	lsls	r1, r3, #28
 800468c:	d506      	bpl.n	800469c <otg_epout_handler.constprop.7+0x3c>
 800468e:	eb06 0385 	add.w	r3, r6, r5, lsl #2
 8004692:	4629      	mov	r1, r5
 8004694:	68db      	ldr	r3, [r3, #12]
 8004696:	4630      	mov	r0, r6
 8004698:	685b      	ldr	r3, [r3, #4]
 800469a:	4798      	blx	r3
 800469c:	07e2      	lsls	r2, r4, #31
 800469e:	d53b      	bpl.n	8004718 <otg_epout_handler.constprop.7+0xb8>
 80046a0:	f8d7 3814 	ldr.w	r3, [r7, #2068]	; 0x814
 80046a4:	07db      	lsls	r3, r3, #31
 80046a6:	d537      	bpl.n	8004718 <otg_epout_handler.constprop.7+0xb8>
 80046a8:	eb06 0385 	add.w	r3, r6, r5, lsl #2
 80046ac:	68d9      	ldr	r1, [r3, #12]
 80046ae:	698b      	ldr	r3, [r1, #24]
 80046b0:	6858      	ldr	r0, [r3, #4]
 80046b2:	691a      	ldr	r2, [r3, #16]
 80046b4:	4290      	cmp	r0, r2
 80046b6:	d311      	bcc.n	80046dc <otg_epout_handler.constprop.7+0x7c>
 80046b8:	8973      	ldrh	r3, [r6, #10]
 80046ba:	9c01      	ldr	r4, [sp, #4]
 80046bc:	f8d8 0000 	ldr.w	r0, [r8]
 80046c0:	2201      	movs	r2, #1
 80046c2:	40aa      	lsls	r2, r5
 80046c4:	ea23 0302 	bic.w	r3, r3, r2
 80046c8:	4284      	cmp	r4, r0
 80046ca:	8173      	strh	r3, [r6, #10]
 80046cc:	d12c      	bne.n	8004728 <otg_epout_handler.constprop.7+0xc8>
 80046ce:	68cb      	ldr	r3, [r1, #12]
 80046d0:	4816      	ldr	r0, [pc, #88]	; (800472c <otg_epout_handler.constprop.7+0xcc>)
 80046d2:	4629      	mov	r1, r5
 80046d4:	b002      	add	sp, #8
 80046d6:	e8bd 41f0 	ldmia.w	sp!, {r4, r5, r6, r7, r8, lr}
 80046da:	4718      	bx	r3
 80046dc:	1a12      	subs	r2, r2, r0
 80046de:	2400      	movs	r4, #0
 80046e0:	e9c3 2401 	strd	r2, r4, [r3, #4]
 80046e4:	4629      	mov	r1, r5
 80046e6:	4811      	ldr	r0, [pc, #68]	; (800472c <otg_epout_handler.constprop.7+0xcc>)
 80046e8:	f7ff ff8a 	bl	8004600 <usb_lld_prepare_receive>
 80046ec:	2320      	movs	r3, #32
 80046ee:	f383 8811 	msr	BASEPRI, r3
 80046f2:	f7fd ff05 	bl	8002500 <_stats_start_measure_crit_isr>
 80046f6:	f7fd f833 	bl	8001760 <_dbg_check_lock_from_isr>
 80046fa:	6d33      	ldr	r3, [r6, #80]	; 0x50
 80046fc:	eb03 1545 	add.w	r5, r3, r5, lsl #5
 8004700:	f8d5 3b00 	ldr.w	r3, [r5, #2816]	; 0xb00
 8004704:	f043 6380 	orr.w	r3, r3, #67108864	; 0x4000000
 8004708:	f8c5 3b00 	str.w	r3, [r5, #2816]	; 0xb00
 800470c:	f7fd f848 	bl	80017a0 <_dbg_check_unlock_from_isr>
 8004710:	f7fd ff0e 	bl	8002530 <_stats_stop_measure_crit_isr>
 8004714:	f384 8811 	msr	BASEPRI, r4
 8004718:	9a01      	ldr	r2, [sp, #4]
 800471a:	f8d8 3000 	ldr.w	r3, [r8]
 800471e:	429a      	cmp	r2, r3
 8004720:	d102      	bne.n	8004728 <otg_epout_handler.constprop.7+0xc8>
 8004722:	b002      	add	sp, #8
 8004724:	e8bd 81f0 	ldmia.w	sp!, {r4, r5, r6, r7, r8, pc}
 8004728:	f7fc fd82 	bl	8001230 <__stack_chk_fail>
 800472c:	20001cb8 	.word	0x20001cb8
 8004730:	20000800 	.word	0x20000800
	...

08004740 <usb_lld_prepare_transmit>:
 8004740:	b530      	push	{r4, r5, lr}
 8004742:	eb00 0581 	add.w	r5, r0, r1, lsl #2
 8004746:	4c16      	ldr	r4, [pc, #88]	; (80047a0 <usb_lld_prepare_transmit+0x60>)
 8004748:	68ea      	ldr	r2, [r5, #12]
 800474a:	6823      	ldr	r3, [r4, #0]
 800474c:	6952      	ldr	r2, [r2, #20]
 800474e:	b083      	sub	sp, #12
 8004750:	9301      	str	r3, [sp, #4]
 8004752:	6853      	ldr	r3, [r2, #4]
 8004754:	6113      	str	r3, [r2, #16]
 8004756:	b1c3      	cbz	r3, 800478a <usb_lld_prepare_transmit+0x4a>
 8004758:	b191      	cbz	r1, 8004780 <usb_lld_prepare_transmit+0x40>
 800475a:	68ea      	ldr	r2, [r5, #12]
 800475c:	6d00      	ldr	r0, [r0, #80]	; 0x50
 800475e:	8a15      	ldrh	r5, [r2, #16]
 8004760:	eb00 1141 	add.w	r1, r0, r1, lsl #5
 8004764:	1e6a      	subs	r2, r5, #1
 8004766:	441a      	add	r2, r3
 8004768:	fbb2 f2f5 	udiv	r2, r2, r5
 800476c:	ea43 43c2 	orr.w	r3, r3, r2, lsl #19
 8004770:	f8c1 3910 	str.w	r3, [r1, #2320]	; 0x910
 8004774:	9a01      	ldr	r2, [sp, #4]
 8004776:	6823      	ldr	r3, [r4, #0]
 8004778:	429a      	cmp	r2, r3
 800477a:	d10e      	bne.n	800479a <usb_lld_prepare_transmit+0x5a>
 800477c:	b003      	add	sp, #12
 800477e:	bd30      	pop	{r4, r5, pc}
 8004780:	2b40      	cmp	r3, #64	; 0x40
 8004782:	bf84      	itt	hi
 8004784:	2340      	movhi	r3, #64	; 0x40
 8004786:	6053      	strhi	r3, [r2, #4]
 8004788:	e7e7      	b.n	800475a <usb_lld_prepare_transmit+0x1a>
 800478a:	6d03      	ldr	r3, [r0, #80]	; 0x50
 800478c:	eb03 1141 	add.w	r1, r3, r1, lsl #5
 8004790:	f44f 2300 	mov.w	r3, #524288	; 0x80000
 8004794:	f8c1 3910 	str.w	r3, [r1, #2320]	; 0x910
 8004798:	e7ec      	b.n	8004774 <usb_lld_prepare_transmit+0x34>
 800479a:	f7fc fd49 	bl	8001230 <__stack_chk_fail>
 800479e:	bf00      	nop
 80047a0:	20000800 	.word	0x20000800
	...

080047b0 <otg_epin_handler.constprop.8>:
 80047b0:	e92d 43f0 	stmdb	sp!, {r4, r5, r6, r7, r8, r9, lr}
 80047b4:	4e3e      	ldr	r6, [pc, #248]	; (80048b0 <otg_epin_handler.constprop.8+0x100>)
 80047b6:	f8df 8100 	ldr.w	r8, [pc, #256]	; 80048b8 <otg_epin_handler.constprop.8+0x108>
 80047ba:	6d35      	ldr	r5, [r6, #80]	; 0x50
 80047bc:	f8d8 3000 	ldr.w	r3, [r8]
 80047c0:	b083      	sub	sp, #12
 80047c2:	4607      	mov	r7, r0
 80047c4:	9301      	str	r3, [sp, #4]
 80047c6:	eb05 1340 	add.w	r3, r5, r0, lsl #5
 80047ca:	f8d3 4908 	ldr.w	r4, [r3, #2312]	; 0x908
 80047ce:	f8c3 4908 	str.w	r4, [r3, #2312]	; 0x908
 80047d2:	07e1      	lsls	r1, r4, #31
 80047d4:	d515      	bpl.n	8004802 <otg_epin_handler.constprop.8+0x52>
 80047d6:	f8d5 3810 	ldr.w	r3, [r5, #2064]	; 0x810
 80047da:	07da      	lsls	r2, r3, #31
 80047dc:	d511      	bpl.n	8004802 <otg_epin_handler.constprop.8+0x52>
 80047de:	eb06 0380 	add.w	r3, r6, r0, lsl #2
 80047e2:	68d9      	ldr	r1, [r3, #12]
 80047e4:	694b      	ldr	r3, [r1, #20]
 80047e6:	6858      	ldr	r0, [r3, #4]
 80047e8:	691a      	ldr	r2, [r3, #16]
 80047ea:	4290      	cmp	r0, r2
 80047ec:	d336      	bcc.n	800485c <otg_epin_handler.constprop.8+0xac>
 80047ee:	8933      	ldrh	r3, [r6, #8]
 80047f0:	2201      	movs	r2, #1
 80047f2:	40ba      	lsls	r2, r7
 80047f4:	ea23 0302 	bic.w	r3, r3, r2
 80047f8:	8133      	strh	r3, [r6, #8]
 80047fa:	688b      	ldr	r3, [r1, #8]
 80047fc:	4630      	mov	r0, r6
 80047fe:	4639      	mov	r1, r7
 8004800:	4798      	blx	r3
 8004802:	0623      	lsls	r3, r4, #24
 8004804:	d506      	bpl.n	8004814 <otg_epin_handler.constprop.8+0x64>
 8004806:	2301      	movs	r3, #1
 8004808:	f8d5 2834 	ldr.w	r2, [r5, #2100]	; 0x834
 800480c:	fa03 f707 	lsl.w	r7, r3, r7
 8004810:	4217      	tst	r7, r2
 8004812:	d107      	bne.n	8004824 <otg_epin_handler.constprop.8+0x74>
 8004814:	9a01      	ldr	r2, [sp, #4]
 8004816:	f8d8 3000 	ldr.w	r3, [r8]
 800481a:	429a      	cmp	r2, r3
 800481c:	d145      	bne.n	80048aa <otg_epin_handler.constprop.8+0xfa>
 800481e:	b003      	add	sp, #12
 8004820:	e8bd 83f0 	ldmia.w	sp!, {r4, r5, r6, r7, r8, r9, pc}
 8004824:	2320      	movs	r3, #32
 8004826:	f383 8811 	msr	BASEPRI, r3
 800482a:	f7fd fe69 	bl	8002500 <_stats_start_measure_crit_isr>
 800482e:	f7fc ff97 	bl	8001760 <_dbg_check_lock_from_isr>
 8004832:	f8d5 2834 	ldr.w	r2, [r5, #2100]	; 0x834
 8004836:	6df3      	ldr	r3, [r6, #92]	; 0x5c
 8004838:	481e      	ldr	r0, [pc, #120]	; (80048b4 <otg_epin_handler.constprop.8+0x104>)
 800483a:	ea22 0207 	bic.w	r2, r2, r7
 800483e:	f8c5 2834 	str.w	r2, [r5, #2100]	; 0x834
 8004842:	431f      	orrs	r7, r3
 8004844:	2100      	movs	r1, #0
 8004846:	65f7      	str	r7, [r6, #92]	; 0x5c
 8004848:	f7fd fcca 	bl	80021e0 <chThdResumeI>
 800484c:	f7fc ffa8 	bl	80017a0 <_dbg_check_unlock_from_isr>
 8004850:	f7fd fe6e 	bl	8002530 <_stats_stop_measure_crit_isr>
 8004854:	2300      	movs	r3, #0
 8004856:	f383 8811 	msr	BASEPRI, r3
 800485a:	e7db      	b.n	8004814 <otg_epin_handler.constprop.8+0x64>
 800485c:	1a12      	subs	r2, r2, r0
 800485e:	f04f 0900 	mov.w	r9, #0
 8004862:	e9c3 2901 	strd	r2, r9, [r3, #4]
 8004866:	4639      	mov	r1, r7
 8004868:	4630      	mov	r0, r6
 800486a:	f7ff ff69 	bl	8004740 <usb_lld_prepare_transmit>
 800486e:	2320      	movs	r3, #32
 8004870:	f383 8811 	msr	BASEPRI, r3
 8004874:	f7fd fe44 	bl	8002500 <_stats_start_measure_crit_isr>
 8004878:	f7fc ff72 	bl	8001760 <_dbg_check_lock_from_isr>
 800487c:	6d32      	ldr	r2, [r6, #80]	; 0x50
 800487e:	eb02 1047 	add.w	r0, r2, r7, lsl #5
 8004882:	2301      	movs	r3, #1
 8004884:	f8d0 1900 	ldr.w	r1, [r0, #2304]	; 0x900
 8004888:	f041 4104 	orr.w	r1, r1, #2214592512	; 0x84000000
 800488c:	f8c0 1900 	str.w	r1, [r0, #2304]	; 0x900
 8004890:	f8d2 1834 	ldr.w	r1, [r2, #2100]	; 0x834
 8004894:	40bb      	lsls	r3, r7
 8004896:	430b      	orrs	r3, r1
 8004898:	f8c2 3834 	str.w	r3, [r2, #2100]	; 0x834
 800489c:	f7fc ff80 	bl	80017a0 <_dbg_check_unlock_from_isr>
 80048a0:	f7fd fe46 	bl	8002530 <_stats_stop_measure_crit_isr>
 80048a4:	f389 8811 	msr	BASEPRI, r9
 80048a8:	e7ab      	b.n	8004802 <otg_epin_handler.constprop.8+0x52>
 80048aa:	f7fc fcc1 	bl	8001230 <__stack_chk_fail>
 80048ae:	bf00      	nop
 80048b0:	20001cb8 	.word	0x20001cb8
 80048b4:	20001d18 	.word	0x20001d18
 80048b8:	20000800 	.word	0x20000800
 80048bc:	00000000 	.word	0x00000000

080048c0 <Vector14C>:
 80048c0:	b5f0      	push	{r4, r5, r6, r7, lr}
 80048c2:	4f45      	ldr	r7, [pc, #276]	; (80049d8 <Vector14C+0x118>)
 80048c4:	4d45      	ldr	r5, [pc, #276]	; (80049dc <Vector14C+0x11c>)
 80048c6:	683b      	ldr	r3, [r7, #0]
 80048c8:	b083      	sub	sp, #12
 80048ca:	9301      	str	r3, [sp, #4]
 80048cc:	f7fd fdb0 	bl	8002430 <_stats_increase_irq>
 80048d0:	f7fc ff86 	bl	80017e0 <_dbg_check_enter_isr>
 80048d4:	6d2e      	ldr	r6, [r5, #80]	; 0x50
 80048d6:	6974      	ldr	r4, [r6, #20]
 80048d8:	69b3      	ldr	r3, [r6, #24]
 80048da:	401c      	ands	r4, r3
 80048dc:	04e1      	lsls	r1, r4, #19
 80048de:	6174      	str	r4, [r6, #20]
 80048e0:	d444      	bmi.n	800496c <Vector14C+0xac>
 80048e2:	04a2      	lsls	r2, r4, #18
 80048e4:	bf48      	it	mi
 80048e6:	f8d6 3808 	ldrmi.w	r3, [r6, #2056]	; 0x808
 80048ea:	0723      	lsls	r3, r4, #28
 80048ec:	d504      	bpl.n	80048f8 <Vector14C+0x38>
 80048ee:	686b      	ldr	r3, [r5, #4]
 80048f0:	68db      	ldr	r3, [r3, #12]
 80048f2:	b10b      	cbz	r3, 80048f8 <Vector14C+0x38>
 80048f4:	4839      	ldr	r0, [pc, #228]	; (80049dc <Vector14C+0x11c>)
 80048f6:	4798      	blx	r3
 80048f8:	06e5      	lsls	r5, r4, #27
 80048fa:	d420      	bmi.n	800493e <Vector14C+0x7e>
 80048fc:	0360      	lsls	r0, r4, #13
 80048fe:	f8d6 5818 	ldr.w	r5, [r6, #2072]	; 0x818
 8004902:	d507      	bpl.n	8004914 <Vector14C+0x54>
 8004904:	07e9      	lsls	r1, r5, #31
 8004906:	d454      	bmi.n	80049b2 <Vector14C+0xf2>
 8004908:	07aa      	lsls	r2, r5, #30
 800490a:	d457      	bmi.n	80049bc <Vector14C+0xfc>
 800490c:	076b      	lsls	r3, r5, #29
 800490e:	d45a      	bmi.n	80049c6 <Vector14C+0x106>
 8004910:	072e      	lsls	r6, r5, #28
 8004912:	d44a      	bmi.n	80049aa <Vector14C+0xea>
 8004914:	0324      	lsls	r4, r4, #12
 8004916:	d507      	bpl.n	8004928 <Vector14C+0x68>
 8004918:	03e8      	lsls	r0, r5, #15
 800491a:	d436      	bmi.n	800498a <Vector14C+0xca>
 800491c:	03a9      	lsls	r1, r5, #14
 800491e:	d439      	bmi.n	8004994 <Vector14C+0xd4>
 8004920:	036a      	lsls	r2, r5, #13
 8004922:	d43c      	bmi.n	800499e <Vector14C+0xde>
 8004924:	032b      	lsls	r3, r5, #12
 8004926:	d42c      	bmi.n	8004982 <Vector14C+0xc2>
 8004928:	f7fc ff82 	bl	8001830 <_dbg_check_leave_isr>
 800492c:	9a01      	ldr	r2, [sp, #4]
 800492e:	683b      	ldr	r3, [r7, #0]
 8004930:	429a      	cmp	r2, r3
 8004932:	d14e      	bne.n	80049d2 <Vector14C+0x112>
 8004934:	b003      	add	sp, #12
 8004936:	e8bd 40f0 	ldmia.w	sp!, {r4, r5, r6, r7, lr}
 800493a:	f7fe b8c9 	b.w	8002ad0 <_port_irq_epilogue>
 800493e:	2320      	movs	r3, #32
 8004940:	f383 8811 	msr	BASEPRI, r3
 8004944:	f7fd fddc 	bl	8002500 <_stats_start_measure_crit_isr>
 8004948:	f7fc ff0a 	bl	8001760 <_dbg_check_lock_from_isr>
 800494c:	69b3      	ldr	r3, [r6, #24]
 800494e:	4824      	ldr	r0, [pc, #144]	; (80049e0 <Vector14C+0x120>)
 8004950:	f023 0310 	bic.w	r3, r3, #16
 8004954:	61b3      	str	r3, [r6, #24]
 8004956:	2100      	movs	r1, #0
 8004958:	f7fd fc42 	bl	80021e0 <chThdResumeI>
 800495c:	f7fc ff20 	bl	80017a0 <_dbg_check_unlock_from_isr>
 8004960:	f7fd fde6 	bl	8002530 <_stats_stop_measure_crit_isr>
 8004964:	2300      	movs	r3, #0
 8004966:	f383 8811 	msr	BASEPRI, r3
 800496a:	e7c7      	b.n	80048fc <Vector14C+0x3c>
 800496c:	4628      	mov	r0, r5
 800496e:	f7fe f987 	bl	8002c80 <_usb_reset>
 8004972:	686b      	ldr	r3, [r5, #4]
 8004974:	681b      	ldr	r3, [r3, #0]
 8004976:	2b00      	cmp	r3, #0
 8004978:	d0b3      	beq.n	80048e2 <Vector14C+0x22>
 800497a:	2100      	movs	r1, #0
 800497c:	4628      	mov	r0, r5
 800497e:	4798      	blx	r3
 8004980:	e7af      	b.n	80048e2 <Vector14C+0x22>
 8004982:	2003      	movs	r0, #3
 8004984:	f7ff fe6c 	bl	8004660 <otg_epout_handler.constprop.7>
 8004988:	e7ce      	b.n	8004928 <Vector14C+0x68>
 800498a:	2000      	movs	r0, #0
 800498c:	f7ff fe68 	bl	8004660 <otg_epout_handler.constprop.7>
 8004990:	03a9      	lsls	r1, r5, #14
 8004992:	d5c5      	bpl.n	8004920 <Vector14C+0x60>
 8004994:	2001      	movs	r0, #1
 8004996:	f7ff fe63 	bl	8004660 <otg_epout_handler.constprop.7>
 800499a:	036a      	lsls	r2, r5, #13
 800499c:	d5c2      	bpl.n	8004924 <Vector14C+0x64>
 800499e:	2002      	movs	r0, #2
 80049a0:	f7ff fe5e 	bl	8004660 <otg_epout_handler.constprop.7>
 80049a4:	032b      	lsls	r3, r5, #12
 80049a6:	d5bf      	bpl.n	8004928 <Vector14C+0x68>
 80049a8:	e7eb      	b.n	8004982 <Vector14C+0xc2>
 80049aa:	2003      	movs	r0, #3
 80049ac:	f7ff ff00 	bl	80047b0 <otg_epin_handler.constprop.8>
 80049b0:	e7b0      	b.n	8004914 <Vector14C+0x54>
 80049b2:	2000      	movs	r0, #0
 80049b4:	f7ff fefc 	bl	80047b0 <otg_epin_handler.constprop.8>
 80049b8:	07aa      	lsls	r2, r5, #30
 80049ba:	d5a7      	bpl.n	800490c <Vector14C+0x4c>
 80049bc:	2001      	movs	r0, #1
 80049be:	f7ff fef7 	bl	80047b0 <otg_epin_handler.constprop.8>
 80049c2:	076b      	lsls	r3, r5, #29
 80049c4:	d5a4      	bpl.n	8004910 <Vector14C+0x50>
 80049c6:	2002      	movs	r0, #2
 80049c8:	f7ff fef2 	bl	80047b0 <otg_epin_handler.constprop.8>
 80049cc:	072e      	lsls	r6, r5, #28
 80049ce:	d5a1      	bpl.n	8004914 <Vector14C+0x54>
 80049d0:	e7eb      	b.n	80049aa <Vector14C+0xea>
 80049d2:	f7fc fc2d 	bl	8001230 <__stack_chk_fail>
 80049d6:	bf00      	nop
 80049d8:	20000800 	.word	0x20000800
 80049dc:	20001cb8 	.word	0x20001cb8
 80049e0:	20001d18 	.word	0x20001d18
	...

080049f0 <usb_lld_start_out>:
 80049f0:	b500      	push	{lr}
 80049f2:	4a0b      	ldr	r2, [pc, #44]	; (8004a20 <usb_lld_start_out+0x30>)
 80049f4:	6d03      	ldr	r3, [r0, #80]	; 0x50
 80049f6:	b083      	sub	sp, #12
 80049f8:	eb03 1141 	add.w	r1, r3, r1, lsl #5
 80049fc:	6813      	ldr	r3, [r2, #0]
 80049fe:	9301      	str	r3, [sp, #4]
 8004a00:	f8d1 3b00 	ldr.w	r3, [r1, #2816]	; 0xb00
 8004a04:	f043 6380 	orr.w	r3, r3, #67108864	; 0x4000000
 8004a08:	f8c1 3b00 	str.w	r3, [r1, #2816]	; 0xb00
 8004a0c:	9901      	ldr	r1, [sp, #4]
 8004a0e:	6813      	ldr	r3, [r2, #0]
 8004a10:	4299      	cmp	r1, r3
 8004a12:	d102      	bne.n	8004a1a <usb_lld_start_out+0x2a>
 8004a14:	b003      	add	sp, #12
 8004a16:	f85d fb04 	ldr.w	pc, [sp], #4
 8004a1a:	f7fc fc09 	bl	8001230 <__stack_chk_fail>
 8004a1e:	bf00      	nop
 8004a20:	20000800 	.word	0x20000800
	...

08004a30 <usb_lld_start_in>:
 8004a30:	b530      	push	{r4, r5, lr}
 8004a32:	4d0f      	ldr	r5, [pc, #60]	; (8004a70 <usb_lld_start_in+0x40>)
 8004a34:	6d02      	ldr	r2, [r0, #80]	; 0x50
 8004a36:	682b      	ldr	r3, [r5, #0]
 8004a38:	b083      	sub	sp, #12
 8004a3a:	eb02 1241 	add.w	r2, r2, r1, lsl #5
 8004a3e:	9301      	str	r3, [sp, #4]
 8004a40:	f8d2 4900 	ldr.w	r4, [r2, #2304]	; 0x900
 8004a44:	f044 4404 	orr.w	r4, r4, #2214592512	; 0x84000000
 8004a48:	f8c2 4900 	str.w	r4, [r2, #2304]	; 0x900
 8004a4c:	6d02      	ldr	r2, [r0, #80]	; 0x50
 8004a4e:	2301      	movs	r3, #1
 8004a50:	f8d2 0834 	ldr.w	r0, [r2, #2100]	; 0x834
 8004a54:	fa03 f101 	lsl.w	r1, r3, r1
 8004a58:	4301      	orrs	r1, r0
 8004a5a:	f8c2 1834 	str.w	r1, [r2, #2100]	; 0x834
 8004a5e:	9a01      	ldr	r2, [sp, #4]
 8004a60:	682b      	ldr	r3, [r5, #0]
 8004a62:	429a      	cmp	r2, r3
 8004a64:	d101      	bne.n	8004a6a <usb_lld_start_in+0x3a>
 8004a66:	b003      	add	sp, #12
 8004a68:	bd30      	pop	{r4, r5, pc}
 8004a6a:	f7fc fbe1 	bl	8001230 <__stack_chk_fail>
 8004a6e:	bf00      	nop
 8004a70:	20000800 	.word	0x20000800
	...

08004a80 <usb_lld_stall_out>:
 8004a80:	b500      	push	{lr}
 8004a82:	4a0b      	ldr	r2, [pc, #44]	; (8004ab0 <usb_lld_stall_out+0x30>)
 8004a84:	6d03      	ldr	r3, [r0, #80]	; 0x50
 8004a86:	b083      	sub	sp, #12
 8004a88:	eb03 1141 	add.w	r1, r3, r1, lsl #5
 8004a8c:	6813      	ldr	r3, [r2, #0]
 8004a8e:	9301      	str	r3, [sp, #4]
 8004a90:	f8d1 3b00 	ldr.w	r3, [r1, #2816]	; 0xb00
 8004a94:	f443 1300 	orr.w	r3, r3, #2097152	; 0x200000
 8004a98:	f8c1 3b00 	str.w	r3, [r1, #2816]	; 0xb00
 8004a9c:	9901      	ldr	r1, [sp, #4]
 8004a9e:	6813      	ldr	r3, [r2, #0]
 8004aa0:	4299      	cmp	r1, r3
 8004aa2:	d102      	bne.n	8004aaa <usb_lld_stall_out+0x2a>
 8004aa4:	b003      	add	sp, #12
 8004aa6:	f85d fb04 	ldr.w	pc, [sp], #4
 8004aaa:	f7fc fbc1 	bl	8001230 <__stack_chk_fail>
 8004aae:	bf00      	nop
 8004ab0:	20000800 	.word	0x20000800
	...

08004ac0 <usb_lld_stall_in>:
 8004ac0:	b500      	push	{lr}
 8004ac2:	4a0b      	ldr	r2, [pc, #44]	; (8004af0 <usb_lld_stall_in+0x30>)
 8004ac4:	6d03      	ldr	r3, [r0, #80]	; 0x50
 8004ac6:	b083      	sub	sp, #12
 8004ac8:	eb03 1141 	add.w	r1, r3, r1, lsl #5
 8004acc:	6813      	ldr	r3, [r2, #0]
 8004ace:	9301      	str	r3, [sp, #4]
 8004ad0:	f8d1 3900 	ldr.w	r3, [r1, #2304]	; 0x900
 8004ad4:	f443 1300 	orr.w	r3, r3, #2097152	; 0x200000
 8004ad8:	f8c1 3900 	str.w	r3, [r1, #2304]	; 0x900
 8004adc:	9901      	ldr	r1, [sp, #4]
 8004ade:	6813      	ldr	r3, [r2, #0]
 8004ae0:	4299      	cmp	r1, r3
 8004ae2:	d102      	bne.n	8004aea <usb_lld_stall_in+0x2a>
 8004ae4:	b003      	add	sp, #12
 8004ae6:	f85d fb04 	ldr.w	pc, [sp], #4
 8004aea:	f7fc fba1 	bl	8001230 <__stack_chk_fail>
 8004aee:	bf00      	nop
 8004af0:	20000800 	.word	0x20000800
	...

08004b00 <usb_lld_clear_out>:
 8004b00:	b500      	push	{lr}
 8004b02:	4a0b      	ldr	r2, [pc, #44]	; (8004b30 <usb_lld_clear_out+0x30>)
 8004b04:	6d03      	ldr	r3, [r0, #80]	; 0x50
 8004b06:	b083      	sub	sp, #12
 8004b08:	eb03 1141 	add.w	r1, r3, r1, lsl #5
 8004b0c:	6813      	ldr	r3, [r2, #0]
 8004b0e:	9301      	str	r3, [sp, #4]
 8004b10:	f8d1 3b00 	ldr.w	r3, [r1, #2816]	; 0xb00
 8004b14:	f423 1300 	bic.w	r3, r3, #2097152	; 0x200000
 8004b18:	f8c1 3b00 	str.w	r3, [r1, #2816]	; 0xb00
 8004b1c:	9901      	ldr	r1, [sp, #4]
 8004b1e:	6813      	ldr	r3, [r2, #0]
 8004b20:	4299      	cmp	r1, r3
 8004b22:	d102      	bne.n	8004b2a <usb_lld_clear_out+0x2a>
 8004b24:	b003      	add	sp, #12
 8004b26:	f85d fb04 	ldr.w	pc, [sp], #4
 8004b2a:	f7fc fb81 	bl	8001230 <__stack_chk_fail>
 8004b2e:	bf00      	nop
 8004b30:	20000800 	.word	0x20000800
	...

08004b40 <usb_lld_clear_in>:
 8004b40:	b500      	push	{lr}
 8004b42:	4a0b      	ldr	r2, [pc, #44]	; (8004b70 <usb_lld_clear_in+0x30>)
 8004b44:	6d03      	ldr	r3, [r0, #80]	; 0x50
 8004b46:	b083      	sub	sp, #12
 8004b48:	eb03 1141 	add.w	r1, r3, r1, lsl #5
 8004b4c:	6813      	ldr	r3, [r2, #0]
 8004b4e:	9301      	str	r3, [sp, #4]
 8004b50:	f8d1 3900 	ldr.w	r3, [r1, #2304]	; 0x900
 8004b54:	f423 1300 	bic.w	r3, r3, #2097152	; 0x200000
 8004b58:	f8c1 3900 	str.w	r3, [r1, #2304]	; 0x900
 8004b5c:	9901      	ldr	r1, [sp, #4]
 8004b5e:	6813      	ldr	r3, [r2, #0]
 8004b60:	4299      	cmp	r1, r3
 8004b62:	d102      	bne.n	8004b6a <usb_lld_clear_in+0x2a>
 8004b64:	b003      	add	sp, #12
 8004b66:	f85d fb04 	ldr.w	pc, [sp], #4
 8004b6a:	f7fc fb61 	bl	8001230 <__stack_chk_fail>
 8004b6e:	bf00      	nop
 8004b70:	20000800 	.word	0x20000800
	...

08004b80 <gpt_lld_serve_interrupt>:
 8004b80:	b510      	push	{r4, lr}
 8004b82:	4b10      	ldr	r3, [pc, #64]	; (8004bc4 <gpt_lld_serve_interrupt+0x44>)
 8004b84:	68c1      	ldr	r1, [r0, #12]
 8004b86:	681a      	ldr	r2, [r3, #0]
 8004b88:	b082      	sub	sp, #8
 8004b8a:	9201      	str	r2, [sp, #4]
 8004b8c:	2200      	movs	r2, #0
 8004b8e:	610a      	str	r2, [r1, #16]
 8004b90:	7801      	ldrb	r1, [r0, #0]
 8004b92:	2904      	cmp	r1, #4
 8004b94:	d10a      	bne.n	8004bac <gpt_lld_serve_interrupt+0x2c>
 8004b96:	68c1      	ldr	r1, [r0, #12]
 8004b98:	2402      	movs	r4, #2
 8004b9a:	7004      	strb	r4, [r0, #0]
 8004b9c:	600a      	str	r2, [r1, #0]
 8004b9e:	68c1      	ldr	r1, [r0, #12]
 8004ba0:	610a      	str	r2, [r1, #16]
 8004ba2:	68c1      	ldr	r1, [r0, #12]
 8004ba4:	68ca      	ldr	r2, [r1, #12]
 8004ba6:	f022 02ff 	bic.w	r2, r2, #255	; 0xff
 8004baa:	60ca      	str	r2, [r1, #12]
 8004bac:	9a01      	ldr	r2, [sp, #4]
 8004bae:	681b      	ldr	r3, [r3, #0]
 8004bb0:	429a      	cmp	r2, r3
 8004bb2:	d105      	bne.n	8004bc0 <gpt_lld_serve_interrupt+0x40>
 8004bb4:	6843      	ldr	r3, [r0, #4]
 8004bb6:	685b      	ldr	r3, [r3, #4]
 8004bb8:	b002      	add	sp, #8
 8004bba:	e8bd 4010 	ldmia.w	sp!, {r4, lr}
 8004bbe:	4718      	bx	r3
 8004bc0:	f7fc fb36 	bl	8001230 <__stack_chk_fail>
 8004bc4:	20000800 	.word	0x20000800
	...

08004bd0 <Vector118>:
 8004bd0:	b510      	push	{r4, lr}
 8004bd2:	4c0c      	ldr	r4, [pc, #48]	; (8004c04 <Vector118+0x34>)
 8004bd4:	b082      	sub	sp, #8
 8004bd6:	6823      	ldr	r3, [r4, #0]
 8004bd8:	9301      	str	r3, [sp, #4]
 8004bda:	f7fd fc29 	bl	8002430 <_stats_increase_irq>
 8004bde:	f7fc fdff 	bl	80017e0 <_dbg_check_enter_isr>
 8004be2:	4809      	ldr	r0, [pc, #36]	; (8004c08 <Vector118+0x38>)
 8004be4:	f7ff ffcc 	bl	8004b80 <gpt_lld_serve_interrupt>
 8004be8:	f7fc fe22 	bl	8001830 <_dbg_check_leave_isr>
 8004bec:	9a01      	ldr	r2, [sp, #4]
 8004bee:	6823      	ldr	r3, [r4, #0]
 8004bf0:	429a      	cmp	r2, r3
 8004bf2:	d104      	bne.n	8004bfe <Vector118+0x2e>
 8004bf4:	b002      	add	sp, #8
 8004bf6:	e8bd 4010 	ldmia.w	sp!, {r4, lr}
 8004bfa:	f7fd bf69 	b.w	8002ad0 <_port_irq_epilogue>
 8004bfe:	f7fc fb17 	bl	8001230 <__stack_chk_fail>
 8004c02:	bf00      	nop
 8004c04:	20000800 	.word	0x20000800
 8004c08:	20001f44 	.word	0x20001f44
 8004c0c:	00000000 	.word	0x00000000

08004c10 <VectorA8>:
 8004c10:	b510      	push	{r4, lr}
 8004c12:	4c0c      	ldr	r4, [pc, #48]	; (8004c44 <VectorA8+0x34>)
 8004c14:	b082      	sub	sp, #8
 8004c16:	6823      	ldr	r3, [r4, #0]
 8004c18:	9301      	str	r3, [sp, #4]
 8004c1a:	f7fd fc09 	bl	8002430 <_stats_increase_irq>
 8004c1e:	f7fc fddf 	bl	80017e0 <_dbg_check_enter_isr>
 8004c22:	4809      	ldr	r0, [pc, #36]	; (8004c48 <VectorA8+0x38>)
 8004c24:	f7ff ffac 	bl	8004b80 <gpt_lld_serve_interrupt>
 8004c28:	f7fc fe02 	bl	8001830 <_dbg_check_leave_isr>
 8004c2c:	9a01      	ldr	r2, [sp, #4]
 8004c2e:	6823      	ldr	r3, [r4, #0]
 8004c30:	429a      	cmp	r2, r3
 8004c32:	d104      	bne.n	8004c3e <VectorA8+0x2e>
 8004c34:	b002      	add	sp, #8
 8004c36:	e8bd 4010 	ldmia.w	sp!, {r4, lr}
 8004c3a:	f7fd bf49 	b.w	8002ad0 <_port_irq_epilogue>
 8004c3e:	f7fc faf7 	bl	8001230 <__stack_chk_fail>
 8004c42:	bf00      	nop
 8004c44:	20000800 	.word	0x20000800
 8004c48:	20001f34 	.word	0x20001f34
 8004c4c:	00000000 	.word	0x00000000

08004c50 <pwm_lld_serve_interrupt>:
 8004c50:	b570      	push	{r4, r5, r6, lr}
 8004c52:	4e1e      	ldr	r6, [pc, #120]	; (8004ccc <pwm_lld_serve_interrupt+0x7c>)
 8004c54:	6983      	ldr	r3, [r0, #24]
 8004c56:	6832      	ldr	r2, [r6, #0]
 8004c58:	b082      	sub	sp, #8
 8004c5a:	4605      	mov	r5, r0
 8004c5c:	9201      	str	r2, [sp, #4]
 8004c5e:	691a      	ldr	r2, [r3, #16]
 8004c60:	68dc      	ldr	r4, [r3, #12]
 8004c62:	4014      	ands	r4, r2
 8004c64:	b2e2      	uxtb	r2, r4
 8004c66:	43d2      	mvns	r2, r2
 8004c68:	611a      	str	r2, [r3, #16]
 8004c6a:	07a3      	lsls	r3, r4, #30
 8004c6c:	d503      	bpl.n	8004c76 <pwm_lld_serve_interrupt+0x26>
 8004c6e:	6843      	ldr	r3, [r0, #4]
 8004c70:	691b      	ldr	r3, [r3, #16]
 8004c72:	b103      	cbz	r3, 8004c76 <pwm_lld_serve_interrupt+0x26>
 8004c74:	4798      	blx	r3
 8004c76:	0760      	lsls	r0, r4, #29
 8004c78:	d504      	bpl.n	8004c84 <pwm_lld_serve_interrupt+0x34>
 8004c7a:	686b      	ldr	r3, [r5, #4]
 8004c7c:	699b      	ldr	r3, [r3, #24]
 8004c7e:	b10b      	cbz	r3, 8004c84 <pwm_lld_serve_interrupt+0x34>
 8004c80:	4628      	mov	r0, r5
 8004c82:	4798      	blx	r3
 8004c84:	0721      	lsls	r1, r4, #28
 8004c86:	d504      	bpl.n	8004c92 <pwm_lld_serve_interrupt+0x42>
 8004c88:	686b      	ldr	r3, [r5, #4]
 8004c8a:	6a1b      	ldr	r3, [r3, #32]
 8004c8c:	b10b      	cbz	r3, 8004c92 <pwm_lld_serve_interrupt+0x42>
 8004c8e:	4628      	mov	r0, r5
 8004c90:	4798      	blx	r3
 8004c92:	06e2      	lsls	r2, r4, #27
 8004c94:	d504      	bpl.n	8004ca0 <pwm_lld_serve_interrupt+0x50>
 8004c96:	686b      	ldr	r3, [r5, #4]
 8004c98:	6a9b      	ldr	r3, [r3, #40]	; 0x28
 8004c9a:	b10b      	cbz	r3, 8004ca0 <pwm_lld_serve_interrupt+0x50>
 8004c9c:	4628      	mov	r0, r5
 8004c9e:	4798      	blx	r3
 8004ca0:	07e3      	lsls	r3, r4, #31
 8004ca2:	d50b      	bpl.n	8004cbc <pwm_lld_serve_interrupt+0x6c>
 8004ca4:	686b      	ldr	r3, [r5, #4]
 8004ca6:	689b      	ldr	r3, [r3, #8]
 8004ca8:	b143      	cbz	r3, 8004cbc <pwm_lld_serve_interrupt+0x6c>
 8004caa:	9901      	ldr	r1, [sp, #4]
 8004cac:	6832      	ldr	r2, [r6, #0]
 8004cae:	4291      	cmp	r1, r2
 8004cb0:	d10a      	bne.n	8004cc8 <pwm_lld_serve_interrupt+0x78>
 8004cb2:	4628      	mov	r0, r5
 8004cb4:	b002      	add	sp, #8
 8004cb6:	e8bd 4070 	ldmia.w	sp!, {r4, r5, r6, lr}
 8004cba:	4718      	bx	r3
 8004cbc:	9a01      	ldr	r2, [sp, #4]
 8004cbe:	6833      	ldr	r3, [r6, #0]
 8004cc0:	429a      	cmp	r2, r3
 8004cc2:	d101      	bne.n	8004cc8 <pwm_lld_serve_interrupt+0x78>
 8004cc4:	b002      	add	sp, #8
 8004cc6:	bd70      	pop	{r4, r5, r6, pc}
 8004cc8:	f7fc fab2 	bl	8001230 <__stack_chk_fail>
 8004ccc:	20000800 	.word	0x20000800

08004cd0 <VectorB0>:
 8004cd0:	b510      	push	{r4, lr}
 8004cd2:	4c0c      	ldr	r4, [pc, #48]	; (8004d04 <VectorB0+0x34>)
 8004cd4:	b082      	sub	sp, #8
 8004cd6:	6823      	ldr	r3, [r4, #0]
 8004cd8:	9301      	str	r3, [sp, #4]
 8004cda:	f7fd fba9 	bl	8002430 <_stats_increase_irq>
 8004cde:	f7fc fd7f 	bl	80017e0 <_dbg_check_enter_isr>
 8004ce2:	4809      	ldr	r0, [pc, #36]	; (8004d08 <VectorB0+0x38>)
 8004ce4:	f7ff ffb4 	bl	8004c50 <pwm_lld_serve_interrupt>
 8004ce8:	f7fc fda2 	bl	8001830 <_dbg_check_leave_isr>
 8004cec:	9a01      	ldr	r2, [sp, #4]
 8004cee:	6823      	ldr	r3, [r4, #0]
 8004cf0:	429a      	cmp	r2, r3
 8004cf2:	d104      	bne.n	8004cfe <VectorB0+0x2e>
 8004cf4:	b002      	add	sp, #8
 8004cf6:	e8bd 4010 	ldmia.w	sp!, {r4, lr}
 8004cfa:	f7fd bee9 	b.w	8002ad0 <_port_irq_epilogue>
 8004cfe:	f7fc fa97 	bl	8001230 <__stack_chk_fail>
 8004d02:	bf00      	nop
 8004d04:	20000800 	.word	0x20000800
 8004d08:	20001f54 	.word	0x20001f54
 8004d0c:	00000000 	.word	0x00000000

08004d10 <VectorB4>:
 8004d10:	b510      	push	{r4, lr}
 8004d12:	4c0c      	ldr	r4, [pc, #48]	; (8004d44 <VectorB4+0x34>)
 8004d14:	b082      	sub	sp, #8
 8004d16:	6823      	ldr	r3, [r4, #0]
 8004d18:	9301      	str	r3, [sp, #4]
 8004d1a:	f7fd fb89 	bl	8002430 <_stats_increase_irq>
 8004d1e:	f7fc fd5f 	bl	80017e0 <_dbg_check_enter_isr>
 8004d22:	4809      	ldr	r0, [pc, #36]	; (8004d48 <VectorB4+0x38>)
 8004d24:	f7ff ff94 	bl	8004c50 <pwm_lld_serve_interrupt>
 8004d28:	f7fc fd82 	bl	8001830 <_dbg_check_leave_isr>
 8004d2c:	9a01      	ldr	r2, [sp, #4]
 8004d2e:	6823      	ldr	r3, [r4, #0]
 8004d30:	429a      	cmp	r2, r3
 8004d32:	d104      	bne.n	8004d3e <VectorB4+0x2e>
 8004d34:	b002      	add	sp, #8
 8004d36:	e8bd 4010 	ldmia.w	sp!, {r4, lr}
 8004d3a:	f7fd bec9 	b.w	8002ad0 <_port_irq_epilogue>
 8004d3e:	f7fc fa77 	bl	8001230 <__stack_chk_fail>
 8004d42:	bf00      	nop
 8004d44:	20000800 	.word	0x20000800
 8004d48:	20001f70 	.word	0x20001f70
 8004d4c:	00000000 	.word	0x00000000

08004d50 <VectorB8>:
 8004d50:	b510      	push	{r4, lr}
 8004d52:	4c0c      	ldr	r4, [pc, #48]	; (8004d84 <VectorB8+0x34>)
 8004d54:	b082      	sub	sp, #8
 8004d56:	6823      	ldr	r3, [r4, #0]
 8004d58:	9301      	str	r3, [sp, #4]
 8004d5a:	f7fd fb69 	bl	8002430 <_stats_increase_irq>
 8004d5e:	f7fc fd3f 	bl	80017e0 <_dbg_check_enter_isr>
 8004d62:	4809      	ldr	r0, [pc, #36]	; (8004d88 <VectorB8+0x38>)
 8004d64:	f7ff ff74 	bl	8004c50 <pwm_lld_serve_interrupt>
 8004d68:	f7fc fd62 	bl	8001830 <_dbg_check_leave_isr>
 8004d6c:	9a01      	ldr	r2, [sp, #4]
 8004d6e:	6823      	ldr	r3, [r4, #0]
 8004d70:	429a      	cmp	r2, r3
 8004d72:	d104      	bne.n	8004d7e <VectorB8+0x2e>
 8004d74:	b002      	add	sp, #8
 8004d76:	e8bd 4010 	ldmia.w	sp!, {r4, lr}
 8004d7a:	f7fd bea9 	b.w	8002ad0 <_port_irq_epilogue>
 8004d7e:	f7fc fa57 	bl	8001230 <__stack_chk_fail>
 8004d82:	bf00      	nop
 8004d84:	20000800 	.word	0x20000800
 8004d88:	20001f8c 	.word	0x20001f8c
 8004d8c:	00000000 	.word	0x00000000

08004d90 <Vector108>:
 8004d90:	b510      	push	{r4, lr}
 8004d92:	4c0c      	ldr	r4, [pc, #48]	; (8004dc4 <Vector108+0x34>)
 8004d94:	b082      	sub	sp, #8
 8004d96:	6823      	ldr	r3, [r4, #0]
 8004d98:	9301      	str	r3, [sp, #4]
 8004d9a:	f7fd fb49 	bl	8002430 <_stats_increase_irq>
 8004d9e:	f7fc fd1f 	bl	80017e0 <_dbg_check_enter_isr>
 8004da2:	4809      	ldr	r0, [pc, #36]	; (8004dc8 <Vector108+0x38>)
 8004da4:	f7ff ff54 	bl	8004c50 <pwm_lld_serve_interrupt>
 8004da8:	f7fc fd42 	bl	8001830 <_dbg_check_leave_isr>
 8004dac:	9a01      	ldr	r2, [sp, #4]
 8004dae:	6823      	ldr	r3, [r4, #0]
 8004db0:	429a      	cmp	r2, r3
 8004db2:	d104      	bne.n	8004dbe <Vector108+0x2e>
 8004db4:	b002      	add	sp, #8
 8004db6:	e8bd 4010 	ldmia.w	sp!, {r4, lr}
 8004dba:	f7fd be89 	b.w	8002ad0 <_port_irq_epilogue>
 8004dbe:	f7fc fa37 	bl	8001230 <__stack_chk_fail>
 8004dc2:	bf00      	nop
 8004dc4:	20000800 	.word	0x20000800
 8004dc8:	20001fa8 	.word	0x20001fa8
 8004dcc:	00000000 	.word	0x00000000

08004dd0 <SysTick_Handler>:
 8004dd0:	b510      	push	{r4, lr}
 8004dd2:	4c12      	ldr	r4, [pc, #72]	; (8004e1c <SysTick_Handler+0x4c>)
 8004dd4:	b082      	sub	sp, #8
 8004dd6:	6823      	ldr	r3, [r4, #0]
 8004dd8:	9301      	str	r3, [sp, #4]
 8004dda:	f7fd fb29 	bl	8002430 <_stats_increase_irq>
 8004dde:	f7fc fcff 	bl	80017e0 <_dbg_check_enter_isr>
 8004de2:	2320      	movs	r3, #32
 8004de4:	f383 8811 	msr	BASEPRI, r3
 8004de8:	f7fd fb8a 	bl	8002500 <_stats_start_measure_crit_isr>
 8004dec:	f7fc fcb8 	bl	8001760 <_dbg_check_lock_from_isr>
 8004df0:	f7fc fc0e 	bl	8001610 <chSysTimerHandlerI>
 8004df4:	f7fc fcd4 	bl	80017a0 <_dbg_check_unlock_from_isr>
 8004df8:	f7fd fb9a 	bl	8002530 <_stats_stop_measure_crit_isr>
 8004dfc:	2300      	movs	r3, #0
 8004dfe:	f383 8811 	msr	BASEPRI, r3
 8004e02:	f7fc fd15 	bl	8001830 <_dbg_check_leave_isr>
 8004e06:	9a01      	ldr	r2, [sp, #4]
 8004e08:	6823      	ldr	r3, [r4, #0]
 8004e0a:	429a      	cmp	r2, r3
 8004e0c:	d104      	bne.n	8004e18 <SysTick_Handler+0x48>
 8004e0e:	b002      	add	sp, #8
 8004e10:	e8bd 4010 	ldmia.w	sp!, {r4, lr}
 8004e14:	f7fd be5c 	b.w	8002ad0 <_port_irq_epilogue>
 8004e18:	f7fc fa0a 	bl	8001230 <__stack_chk_fail>
 8004e1c:	20000800 	.word	0x20000800

08004e20 <VectorDC>:
 8004e20:	e92d 47f0 	stmdb	sp!, {r4, r5, r6, r7, r8, r9, sl, lr}
 8004e24:	f8df 8190 	ldr.w	r8, [pc, #400]	; 8004fb8 <VectorDC+0x198>
 8004e28:	4f60      	ldr	r7, [pc, #384]	; (8004fac <VectorDC+0x18c>)
 8004e2a:	f8d8 3000 	ldr.w	r3, [r8]
 8004e2e:	b082      	sub	sp, #8
 8004e30:	9301      	str	r3, [sp, #4]
 8004e32:	f7fd fafd 	bl	8002430 <_stats_increase_irq>
 8004e36:	f7fc fcd3 	bl	80017e0 <_dbg_check_enter_isr>
 8004e3a:	6f7d      	ldr	r5, [r7, #116]	; 0x74
 8004e3c:	f8d5 a00c 	ldr.w	sl, [r5, #12]
 8004e40:	682b      	ldr	r3, [r5, #0]
 8004e42:	05da      	lsls	r2, r3, #23
 8004e44:	b29c      	uxth	r4, r3
 8004e46:	d46e      	bmi.n	8004f26 <VectorDC+0x106>
 8004e48:	2320      	movs	r3, #32
 8004e4a:	f383 8811 	msr	BASEPRI, r3
 8004e4e:	f7fd fb57 	bl	8002500 <_stats_start_measure_crit_isr>
 8004e52:	f7fc fc85 	bl	8001760 <_dbg_check_lock_from_isr>
 8004e56:	f014 0f2f 	tst.w	r4, #47	; 0x2f
 8004e5a:	d02d      	beq.n	8004eb8 <VectorDC+0x98>
 8004e5c:	4e54      	ldr	r6, [pc, #336]	; (8004fb0 <VectorDC+0x190>)
 8004e5e:	f1a6 0904 	sub.w	r9, r6, #4
 8004e62:	e007      	b.n	8004e74 <VectorDC+0x54>
 8004e64:	06a0      	lsls	r0, r4, #26
 8004e66:	6869      	ldr	r1, [r5, #4]
 8004e68:	d41d      	bmi.n	8004ea6 <VectorDC+0x86>
 8004e6a:	682c      	ldr	r4, [r5, #0]
 8004e6c:	b2a4      	uxth	r4, r4
 8004e6e:	f014 0f2f 	tst.w	r4, #47	; 0x2f
 8004e72:	d021      	beq.n	8004eb8 <VectorDC+0x98>
 8004e74:	0723      	lsls	r3, r4, #28
 8004e76:	d0f5      	beq.n	8004e64 <VectorDC+0x44>
 8004e78:	f014 0f08 	tst.w	r4, #8
 8004e7c:	bf0c      	ite	eq
 8004e7e:	2100      	moveq	r1, #0
 8004e80:	2180      	movne	r1, #128	; 0x80
 8004e82:	07e0      	lsls	r0, r4, #31
 8004e84:	bf48      	it	mi
 8004e86:	f041 0120 	orrmi.w	r1, r1, #32
 8004e8a:	07a2      	lsls	r2, r4, #30
 8004e8c:	bf48      	it	mi
 8004e8e:	f041 0140 	orrmi.w	r1, r1, #64	; 0x40
 8004e92:	0763      	lsls	r3, r4, #29
 8004e94:	bf48      	it	mi
 8004e96:	f441 7180 	orrmi.w	r1, r1, #256	; 0x100
 8004e9a:	4630      	mov	r0, r6
 8004e9c:	f7fd fd20 	bl	80028e0 <chEvtBroadcastFlagsI>
 8004ea0:	06a0      	lsls	r0, r4, #26
 8004ea2:	6869      	ldr	r1, [r5, #4]
 8004ea4:	d5e1      	bpl.n	8004e6a <VectorDC+0x4a>
 8004ea6:	b2c9      	uxtb	r1, r1
 8004ea8:	4648      	mov	r0, r9
 8004eaa:	f7fd fe51 	bl	8002b50 <sdIncomingDataI>
 8004eae:	682c      	ldr	r4, [r5, #0]
 8004eb0:	b2a4      	uxth	r4, r4
 8004eb2:	f014 0f2f 	tst.w	r4, #47	; 0x2f
 8004eb6:	d1dd      	bne.n	8004e74 <VectorDC+0x54>
 8004eb8:	f7fc fc72 	bl	80017a0 <_dbg_check_unlock_from_isr>
 8004ebc:	f7fd fb38 	bl	8002530 <_stats_stop_measure_crit_isr>
 8004ec0:	2300      	movs	r3, #0
 8004ec2:	f383 8811 	msr	BASEPRI, r3
 8004ec6:	f01a 0f80 	tst.w	sl, #128	; 0x80
 8004eca:	d001      	beq.n	8004ed0 <VectorDC+0xb0>
 8004ecc:	0622      	lsls	r2, r4, #24
 8004ece:	d441      	bmi.n	8004f54 <VectorDC+0x134>
 8004ed0:	0663      	lsls	r3, r4, #25
 8004ed2:	d40b      	bmi.n	8004eec <VectorDC+0xcc>
 8004ed4:	f7fc fcac 	bl	8001830 <_dbg_check_leave_isr>
 8004ed8:	9a01      	ldr	r2, [sp, #4]
 8004eda:	f8d8 3000 	ldr.w	r3, [r8]
 8004ede:	429a      	cmp	r2, r3
 8004ee0:	d161      	bne.n	8004fa6 <VectorDC+0x186>
 8004ee2:	b002      	add	sp, #8
 8004ee4:	e8bd 47f0 	ldmia.w	sp!, {r4, r5, r6, r7, r8, r9, sl, lr}
 8004ee8:	f7fd bdf2 	b.w	8002ad0 <_port_irq_epilogue>
 8004eec:	2320      	movs	r3, #32
 8004eee:	f383 8811 	msr	BASEPRI, r3
 8004ef2:	f7fd fb05 	bl	8002500 <_stats_start_measure_crit_isr>
 8004ef6:	f7fc fc33 	bl	8001760 <_dbg_check_lock_from_isr>
 8004efa:	f7fc fcc1 	bl	8001880 <chDbgCheckClassI>
 8004efe:	e9d7 2311 	ldrd	r2, r3, [r7, #68]	; 0x44
 8004f02:	429a      	cmp	r2, r3
 8004f04:	d03b      	beq.n	8004f7e <VectorDC+0x15e>
 8004f06:	f64f 73bf 	movw	r3, #65471	; 0xffbf
 8004f0a:	ea0a 0303 	and.w	r3, sl, r3
 8004f0e:	f06f 0240 	mvn.w	r2, #64	; 0x40
 8004f12:	60eb      	str	r3, [r5, #12]
 8004f14:	602a      	str	r2, [r5, #0]
 8004f16:	f7fc fc43 	bl	80017a0 <_dbg_check_unlock_from_isr>
 8004f1a:	f7fd fb09 	bl	8002530 <_stats_stop_measure_crit_isr>
 8004f1e:	2300      	movs	r3, #0
 8004f20:	f383 8811 	msr	BASEPRI, r3
 8004f24:	e7d6      	b.n	8004ed4 <VectorDC+0xb4>
 8004f26:	2320      	movs	r3, #32
 8004f28:	f383 8811 	msr	BASEPRI, r3
 8004f2c:	f7fd fae8 	bl	8002500 <_stats_start_measure_crit_isr>
 8004f30:	f7fc fc16 	bl	8001760 <_dbg_check_lock_from_isr>
 8004f34:	1d38      	adds	r0, r7, #4
 8004f36:	f44f 7100 	mov.w	r1, #512	; 0x200
 8004f3a:	f7fd fcd1 	bl	80028e0 <chEvtBroadcastFlagsI>
 8004f3e:	f46f 7380 	mvn.w	r3, #256	; 0x100
 8004f42:	602b      	str	r3, [r5, #0]
 8004f44:	f7fc fc2c 	bl	80017a0 <_dbg_check_unlock_from_isr>
 8004f48:	f7fd faf2 	bl	8002530 <_stats_stop_measure_crit_isr>
 8004f4c:	2300      	movs	r3, #0
 8004f4e:	f383 8811 	msr	BASEPRI, r3
 8004f52:	e779      	b.n	8004e48 <VectorDC+0x28>
 8004f54:	2320      	movs	r3, #32
 8004f56:	f383 8811 	msr	BASEPRI, r3
 8004f5a:	f7fd fad1 	bl	8002500 <_stats_start_measure_crit_isr>
 8004f5e:	f7fc fbff 	bl	8001760 <_dbg_check_lock_from_isr>
 8004f62:	4814      	ldr	r0, [pc, #80]	; (8004fb4 <VectorDC+0x194>)
 8004f64:	f7fd fd1c 	bl	80029a0 <chOQGetI>
 8004f68:	2800      	cmp	r0, #0
 8004f6a:	db10      	blt.n	8004f8e <VectorDC+0x16e>
 8004f6c:	6068      	str	r0, [r5, #4]
 8004f6e:	f7fc fc17 	bl	80017a0 <_dbg_check_unlock_from_isr>
 8004f72:	f7fd fadd 	bl	8002530 <_stats_stop_measure_crit_isr>
 8004f76:	2300      	movs	r3, #0
 8004f78:	f383 8811 	msr	BASEPRI, r3
 8004f7c:	e7a8      	b.n	8004ed0 <VectorDC+0xb0>
 8004f7e:	6bbb      	ldr	r3, [r7, #56]	; 0x38
 8004f80:	2b00      	cmp	r3, #0
 8004f82:	d0c0      	beq.n	8004f06 <VectorDC+0xe6>
 8004f84:	2110      	movs	r1, #16
 8004f86:	480a      	ldr	r0, [pc, #40]	; (8004fb0 <VectorDC+0x190>)
 8004f88:	f7fd fcaa 	bl	80028e0 <chEvtBroadcastFlagsI>
 8004f8c:	e7bb      	b.n	8004f06 <VectorDC+0xe6>
 8004f8e:	2108      	movs	r1, #8
 8004f90:	4807      	ldr	r0, [pc, #28]	; (8004fb0 <VectorDC+0x190>)
 8004f92:	f7fd fca5 	bl	80028e0 <chEvtBroadcastFlagsI>
 8004f96:	f64f 733f 	movw	r3, #65343	; 0xff3f
 8004f9a:	ea0a 0303 	and.w	r3, sl, r3
 8004f9e:	f043 0340 	orr.w	r3, r3, #64	; 0x40
 8004fa2:	60eb      	str	r3, [r5, #12]
 8004fa4:	e7e3      	b.n	8004f6e <VectorDC+0x14e>
 8004fa6:	f7fc f943 	bl	8001230 <__stack_chk_fail>
 8004faa:	bf00      	nop
 8004fac:	20001fc4 	.word	0x20001fc4
 8004fb0:	20001fc8 	.word	0x20001fc8
 8004fb4:	20001ff4 	.word	0x20001ff4
 8004fb8:	20000800 	.word	0x20000800
 8004fbc:	00000000 	.word	0x00000000

08004fc0 <__early_init>:
 8004fc0:	b500      	push	{lr}
 8004fc2:	4b07      	ldr	r3, [pc, #28]	; (8004fe0 <__early_init+0x20>)
 8004fc4:	b083      	sub	sp, #12
 8004fc6:	681a      	ldr	r2, [r3, #0]
 8004fc8:	9201      	str	r2, [sp, #4]
 8004fca:	9a01      	ldr	r2, [sp, #4]
 8004fcc:	681b      	ldr	r3, [r3, #0]
 8004fce:	429a      	cmp	r2, r3
 8004fd0:	d104      	bne.n	8004fdc <__early_init+0x1c>
 8004fd2:	b003      	add	sp, #12
 8004fd4:	f85d eb04 	ldr.w	lr, [sp], #4
 8004fd8:	f7fe bb92 	b.w	8003700 <stm32_clock_init>
 8004fdc:	f7fc f928 	bl	8001230 <__stack_chk_fail>
 8004fe0:	20000800 	.word	0x20000800
	...

08004ff0 <_malloc_r>:
 8004ff0:	e92d 4ff0 	stmdb	sp!, {r4, r5, r6, r7, r8, r9, sl, fp, lr}
 8004ff4:	f101 050b 	add.w	r5, r1, #11
 8004ff8:	2d16      	cmp	r5, #22
 8004ffa:	b083      	sub	sp, #12
 8004ffc:	4606      	mov	r6, r0
 8004ffe:	d823      	bhi.n	8005048 <_malloc_r+0x58>
 8005000:	2910      	cmp	r1, #16
 8005002:	f200 80b9 	bhi.w	8005178 <_malloc_r+0x188>
 8005006:	f7fc fa6b 	bl	80014e0 <__malloc_lock>
 800500a:	2510      	movs	r5, #16
 800500c:	2318      	movs	r3, #24
 800500e:	2002      	movs	r0, #2
 8005010:	4fc5      	ldr	r7, [pc, #788]	; (8005328 <_malloc_r+0x338>)
 8005012:	443b      	add	r3, r7
 8005014:	f1a3 0208 	sub.w	r2, r3, #8
 8005018:	685c      	ldr	r4, [r3, #4]
 800501a:	4294      	cmp	r4, r2
 800501c:	f000 8166 	beq.w	80052ec <_malloc_r+0x2fc>
 8005020:	6863      	ldr	r3, [r4, #4]
 8005022:	f023 0303 	bic.w	r3, r3, #3
 8005026:	4423      	add	r3, r4
 8005028:	e9d4 5102 	ldrd	r5, r1, [r4, #8]
 800502c:	685a      	ldr	r2, [r3, #4]
 800502e:	60e9      	str	r1, [r5, #12]
 8005030:	f042 0201 	orr.w	r2, r2, #1
 8005034:	608d      	str	r5, [r1, #8]
 8005036:	4630      	mov	r0, r6
 8005038:	605a      	str	r2, [r3, #4]
 800503a:	f7fc fa69 	bl	8001510 <__malloc_unlock>
 800503e:	3408      	adds	r4, #8
 8005040:	4620      	mov	r0, r4
 8005042:	b003      	add	sp, #12
 8005044:	e8bd 8ff0 	ldmia.w	sp!, {r4, r5, r6, r7, r8, r9, sl, fp, pc}
 8005048:	f035 0507 	bics.w	r5, r5, #7
 800504c:	f100 8094 	bmi.w	8005178 <_malloc_r+0x188>
 8005050:	42a9      	cmp	r1, r5
 8005052:	f200 8091 	bhi.w	8005178 <_malloc_r+0x188>
 8005056:	f7fc fa43 	bl	80014e0 <__malloc_lock>
 800505a:	f5b5 7ffc 	cmp.w	r5, #504	; 0x1f8
 800505e:	f0c0 8183 	bcc.w	8005368 <_malloc_r+0x378>
 8005062:	0a6b      	lsrs	r3, r5, #9
 8005064:	f000 808f 	beq.w	8005186 <_malloc_r+0x196>
 8005068:	2b04      	cmp	r3, #4
 800506a:	f200 8146 	bhi.w	80052fa <_malloc_r+0x30a>
 800506e:	09ab      	lsrs	r3, r5, #6
 8005070:	f103 0039 	add.w	r0, r3, #57	; 0x39
 8005074:	f103 0c38 	add.w	ip, r3, #56	; 0x38
 8005078:	00c3      	lsls	r3, r0, #3
 800507a:	4fab      	ldr	r7, [pc, #684]	; (8005328 <_malloc_r+0x338>)
 800507c:	443b      	add	r3, r7
 800507e:	f1a3 0108 	sub.w	r1, r3, #8
 8005082:	685c      	ldr	r4, [r3, #4]
 8005084:	42a1      	cmp	r1, r4
 8005086:	d106      	bne.n	8005096 <_malloc_r+0xa6>
 8005088:	e00c      	b.n	80050a4 <_malloc_r+0xb4>
 800508a:	2a00      	cmp	r2, #0
 800508c:	f280 811d 	bge.w	80052ca <_malloc_r+0x2da>
 8005090:	68e4      	ldr	r4, [r4, #12]
 8005092:	42a1      	cmp	r1, r4
 8005094:	d006      	beq.n	80050a4 <_malloc_r+0xb4>
 8005096:	6863      	ldr	r3, [r4, #4]
 8005098:	f023 0303 	bic.w	r3, r3, #3
 800509c:	1b5a      	subs	r2, r3, r5
 800509e:	2a0f      	cmp	r2, #15
 80050a0:	ddf3      	ble.n	800508a <_malloc_r+0x9a>
 80050a2:	4660      	mov	r0, ip
 80050a4:	693c      	ldr	r4, [r7, #16]
 80050a6:	f8df c294 	ldr.w	ip, [pc, #660]	; 800533c <_malloc_r+0x34c>
 80050aa:	4564      	cmp	r4, ip
 80050ac:	d071      	beq.n	8005192 <_malloc_r+0x1a2>
 80050ae:	6863      	ldr	r3, [r4, #4]
 80050b0:	f023 0303 	bic.w	r3, r3, #3
 80050b4:	1b5a      	subs	r2, r3, r5
 80050b6:	2a0f      	cmp	r2, #15
 80050b8:	f300 8144 	bgt.w	8005344 <_malloc_r+0x354>
 80050bc:	2a00      	cmp	r2, #0
 80050be:	e9c7 cc04 	strd	ip, ip, [r7, #16]
 80050c2:	f280 8126 	bge.w	8005312 <_malloc_r+0x322>
 80050c6:	f5b3 7f00 	cmp.w	r3, #512	; 0x200
 80050ca:	f080 8169 	bcs.w	80053a0 <_malloc_r+0x3b0>
 80050ce:	08db      	lsrs	r3, r3, #3
 80050d0:	1c59      	adds	r1, r3, #1
 80050d2:	687a      	ldr	r2, [r7, #4]
 80050d4:	f857 8031 	ldr.w	r8, [r7, r1, lsl #3]
 80050d8:	f8c4 8008 	str.w	r8, [r4, #8]
 80050dc:	f04f 0e01 	mov.w	lr, #1
 80050e0:	109b      	asrs	r3, r3, #2
 80050e2:	fa0e f303 	lsl.w	r3, lr, r3
 80050e6:	eb07 0ec1 	add.w	lr, r7, r1, lsl #3
 80050ea:	4313      	orrs	r3, r2
 80050ec:	f1ae 0208 	sub.w	r2, lr, #8
 80050f0:	60e2      	str	r2, [r4, #12]
 80050f2:	607b      	str	r3, [r7, #4]
 80050f4:	f847 4031 	str.w	r4, [r7, r1, lsl #3]
 80050f8:	f8c8 400c 	str.w	r4, [r8, #12]
 80050fc:	1082      	asrs	r2, r0, #2
 80050fe:	2401      	movs	r4, #1
 8005100:	4094      	lsls	r4, r2
 8005102:	429c      	cmp	r4, r3
 8005104:	d84b      	bhi.n	800519e <_malloc_r+0x1ae>
 8005106:	421c      	tst	r4, r3
 8005108:	d106      	bne.n	8005118 <_malloc_r+0x128>
 800510a:	f020 0003 	bic.w	r0, r0, #3
 800510e:	0064      	lsls	r4, r4, #1
 8005110:	421c      	tst	r4, r3
 8005112:	f100 0004 	add.w	r0, r0, #4
 8005116:	d0fa      	beq.n	800510e <_malloc_r+0x11e>
 8005118:	eb07 09c0 	add.w	r9, r7, r0, lsl #3
 800511c:	46ce      	mov	lr, r9
 800511e:	4680      	mov	r8, r0
 8005120:	f8de 300c 	ldr.w	r3, [lr, #12]
 8005124:	459e      	cmp	lr, r3
 8005126:	d107      	bne.n	8005138 <_malloc_r+0x148>
 8005128:	e122      	b.n	8005370 <_malloc_r+0x380>
 800512a:	2a00      	cmp	r2, #0
 800512c:	f280 8129 	bge.w	8005382 <_malloc_r+0x392>
 8005130:	68db      	ldr	r3, [r3, #12]
 8005132:	459e      	cmp	lr, r3
 8005134:	f000 811c 	beq.w	8005370 <_malloc_r+0x380>
 8005138:	6859      	ldr	r1, [r3, #4]
 800513a:	f021 0103 	bic.w	r1, r1, #3
 800513e:	1b4a      	subs	r2, r1, r5
 8005140:	2a0f      	cmp	r2, #15
 8005142:	ddf2      	ble.n	800512a <_malloc_r+0x13a>
 8005144:	e9d3 8e02 	ldrd	r8, lr, [r3, #8]
 8005148:	195c      	adds	r4, r3, r5
 800514a:	f045 0501 	orr.w	r5, r5, #1
 800514e:	605d      	str	r5, [r3, #4]
 8005150:	f042 0501 	orr.w	r5, r2, #1
 8005154:	f8c8 e00c 	str.w	lr, [r8, #12]
 8005158:	4630      	mov	r0, r6
 800515a:	f8ce 8008 	str.w	r8, [lr, #8]
 800515e:	e9c7 4404 	strd	r4, r4, [r7, #16]
 8005162:	e9c4 cc02 	strd	ip, ip, [r4, #8]
 8005166:	6065      	str	r5, [r4, #4]
 8005168:	505a      	str	r2, [r3, r1]
 800516a:	9301      	str	r3, [sp, #4]
 800516c:	f7fc f9d0 	bl	8001510 <__malloc_unlock>
 8005170:	9b01      	ldr	r3, [sp, #4]
 8005172:	f103 0408 	add.w	r4, r3, #8
 8005176:	e763      	b.n	8005040 <_malloc_r+0x50>
 8005178:	2400      	movs	r4, #0
 800517a:	230c      	movs	r3, #12
 800517c:	4620      	mov	r0, r4
 800517e:	6033      	str	r3, [r6, #0]
 8005180:	b003      	add	sp, #12
 8005182:	e8bd 8ff0 	ldmia.w	sp!, {r4, r5, r6, r7, r8, r9, sl, fp, pc}
 8005186:	f44f 7300 	mov.w	r3, #512	; 0x200
 800518a:	2040      	movs	r0, #64	; 0x40
 800518c:	f04f 0c3f 	mov.w	ip, #63	; 0x3f
 8005190:	e773      	b.n	800507a <_malloc_r+0x8a>
 8005192:	687b      	ldr	r3, [r7, #4]
 8005194:	1082      	asrs	r2, r0, #2
 8005196:	2401      	movs	r4, #1
 8005198:	4094      	lsls	r4, r2
 800519a:	429c      	cmp	r4, r3
 800519c:	d9b3      	bls.n	8005106 <_malloc_r+0x116>
 800519e:	68bc      	ldr	r4, [r7, #8]
 80051a0:	6863      	ldr	r3, [r4, #4]
 80051a2:	f023 0903 	bic.w	r9, r3, #3
 80051a6:	45a9      	cmp	r9, r5
 80051a8:	d303      	bcc.n	80051b2 <_malloc_r+0x1c2>
 80051aa:	eba9 0305 	sub.w	r3, r9, r5
 80051ae:	2b0f      	cmp	r3, #15
 80051b0:	dc7b      	bgt.n	80052aa <_malloc_r+0x2ba>
 80051b2:	4b5e      	ldr	r3, [pc, #376]	; (800532c <_malloc_r+0x33c>)
 80051b4:	f8df a188 	ldr.w	sl, [pc, #392]	; 8005340 <_malloc_r+0x350>
 80051b8:	681a      	ldr	r2, [r3, #0]
 80051ba:	f8da 3000 	ldr.w	r3, [sl]
 80051be:	3301      	adds	r3, #1
 80051c0:	eb05 0802 	add.w	r8, r5, r2
 80051c4:	f000 8148 	beq.w	8005458 <_malloc_r+0x468>
 80051c8:	f508 5880 	add.w	r8, r8, #4096	; 0x1000
 80051cc:	f108 080f 	add.w	r8, r8, #15
 80051d0:	f428 687f 	bic.w	r8, r8, #4080	; 0xff0
 80051d4:	f028 080f 	bic.w	r8, r8, #15
 80051d8:	4641      	mov	r1, r8
 80051da:	4630      	mov	r0, r6
 80051dc:	f7fc f9b0 	bl	8001540 <_sbrk_r>
 80051e0:	f1b0 3fff 	cmp.w	r0, #4294967295
 80051e4:	4683      	mov	fp, r0
 80051e6:	f000 8104 	beq.w	80053f2 <_malloc_r+0x402>
 80051ea:	eb04 0009 	add.w	r0, r4, r9
 80051ee:	4558      	cmp	r0, fp
 80051f0:	f200 80fd 	bhi.w	80053ee <_malloc_r+0x3fe>
 80051f4:	4a4e      	ldr	r2, [pc, #312]	; (8005330 <_malloc_r+0x340>)
 80051f6:	6813      	ldr	r3, [r2, #0]
 80051f8:	4443      	add	r3, r8
 80051fa:	6013      	str	r3, [r2, #0]
 80051fc:	f000 814d 	beq.w	800549a <_malloc_r+0x4aa>
 8005200:	f8da 1000 	ldr.w	r1, [sl]
 8005204:	3101      	adds	r1, #1
 8005206:	bf1b      	ittet	ne
 8005208:	ebab 0000 	subne.w	r0, fp, r0
 800520c:	181b      	addne	r3, r3, r0
 800520e:	f8ca b000 	streq.w	fp, [sl]
 8005212:	6013      	strne	r3, [r2, #0]
 8005214:	f01b 0307 	ands.w	r3, fp, #7
 8005218:	f000 8134 	beq.w	8005484 <_malloc_r+0x494>
 800521c:	f1c3 0108 	rsb	r1, r3, #8
 8005220:	f5c3 5380 	rsb	r3, r3, #4096	; 0x1000
 8005224:	448b      	add	fp, r1
 8005226:	3308      	adds	r3, #8
 8005228:	44d8      	add	r8, fp
 800522a:	f3c8 080b 	ubfx	r8, r8, #0, #12
 800522e:	eba3 0808 	sub.w	r8, r3, r8
 8005232:	4641      	mov	r1, r8
 8005234:	4630      	mov	r0, r6
 8005236:	9201      	str	r2, [sp, #4]
 8005238:	f7fc f982 	bl	8001540 <_sbrk_r>
 800523c:	1c43      	adds	r3, r0, #1
 800523e:	9a01      	ldr	r2, [sp, #4]
 8005240:	f000 8146 	beq.w	80054d0 <_malloc_r+0x4e0>
 8005244:	eba0 010b 	sub.w	r1, r0, fp
 8005248:	4441      	add	r1, r8
 800524a:	f041 0101 	orr.w	r1, r1, #1
 800524e:	6813      	ldr	r3, [r2, #0]
 8005250:	f8c7 b008 	str.w	fp, [r7, #8]
 8005254:	4443      	add	r3, r8
 8005256:	42bc      	cmp	r4, r7
 8005258:	f8cb 1004 	str.w	r1, [fp, #4]
 800525c:	6013      	str	r3, [r2, #0]
 800525e:	d015      	beq.n	800528c <_malloc_r+0x29c>
 8005260:	f1b9 0f0f 	cmp.w	r9, #15
 8005264:	f240 8130 	bls.w	80054c8 <_malloc_r+0x4d8>
 8005268:	6860      	ldr	r0, [r4, #4]
 800526a:	f1a9 010c 	sub.w	r1, r9, #12
 800526e:	f021 0107 	bic.w	r1, r1, #7
 8005272:	f000 0001 	and.w	r0, r0, #1
 8005276:	eb04 0c01 	add.w	ip, r4, r1
 800527a:	4308      	orrs	r0, r1
 800527c:	f04f 0e05 	mov.w	lr, #5
 8005280:	290f      	cmp	r1, #15
 8005282:	6060      	str	r0, [r4, #4]
 8005284:	e9cc ee01 	strd	lr, lr, [ip, #4]
 8005288:	f200 813a 	bhi.w	8005500 <_malloc_r+0x510>
 800528c:	4a29      	ldr	r2, [pc, #164]	; (8005334 <_malloc_r+0x344>)
 800528e:	482a      	ldr	r0, [pc, #168]	; (8005338 <_malloc_r+0x348>)
 8005290:	6811      	ldr	r1, [r2, #0]
 8005292:	68bc      	ldr	r4, [r7, #8]
 8005294:	428b      	cmp	r3, r1
 8005296:	6801      	ldr	r1, [r0, #0]
 8005298:	bf88      	it	hi
 800529a:	6013      	strhi	r3, [r2, #0]
 800529c:	6862      	ldr	r2, [r4, #4]
 800529e:	428b      	cmp	r3, r1
 80052a0:	f022 0203 	bic.w	r2, r2, #3
 80052a4:	bf88      	it	hi
 80052a6:	6003      	strhi	r3, [r0, #0]
 80052a8:	e0a7      	b.n	80053fa <_malloc_r+0x40a>
 80052aa:	1962      	adds	r2, r4, r5
 80052ac:	f043 0301 	orr.w	r3, r3, #1
 80052b0:	f045 0501 	orr.w	r5, r5, #1
 80052b4:	6065      	str	r5, [r4, #4]
 80052b6:	4630      	mov	r0, r6
 80052b8:	60ba      	str	r2, [r7, #8]
 80052ba:	6053      	str	r3, [r2, #4]
 80052bc:	f7fc f928 	bl	8001510 <__malloc_unlock>
 80052c0:	3408      	adds	r4, #8
 80052c2:	4620      	mov	r0, r4
 80052c4:	b003      	add	sp, #12
 80052c6:	e8bd 8ff0 	ldmia.w	sp!, {r4, r5, r6, r7, r8, r9, sl, fp, pc}
 80052ca:	4423      	add	r3, r4
 80052cc:	68e1      	ldr	r1, [r4, #12]
 80052ce:	685a      	ldr	r2, [r3, #4]
 80052d0:	68a5      	ldr	r5, [r4, #8]
 80052d2:	f042 0201 	orr.w	r2, r2, #1
 80052d6:	60e9      	str	r1, [r5, #12]
 80052d8:	4630      	mov	r0, r6
 80052da:	608d      	str	r5, [r1, #8]
 80052dc:	605a      	str	r2, [r3, #4]
 80052de:	f7fc f917 	bl	8001510 <__malloc_unlock>
 80052e2:	3408      	adds	r4, #8
 80052e4:	4620      	mov	r0, r4
 80052e6:	b003      	add	sp, #12
 80052e8:	e8bd 8ff0 	ldmia.w	sp!, {r4, r5, r6, r7, r8, r9, sl, fp, pc}
 80052ec:	68dc      	ldr	r4, [r3, #12]
 80052ee:	42a3      	cmp	r3, r4
 80052f0:	bf08      	it	eq
 80052f2:	3002      	addeq	r0, #2
 80052f4:	f43f aed6 	beq.w	80050a4 <_malloc_r+0xb4>
 80052f8:	e692      	b.n	8005020 <_malloc_r+0x30>
 80052fa:	2b14      	cmp	r3, #20
 80052fc:	d971      	bls.n	80053e2 <_malloc_r+0x3f2>
 80052fe:	2b54      	cmp	r3, #84	; 0x54
 8005300:	f200 80ad 	bhi.w	800545e <_malloc_r+0x46e>
 8005304:	0b2b      	lsrs	r3, r5, #12
 8005306:	f103 006f 	add.w	r0, r3, #111	; 0x6f
 800530a:	f103 0c6e 	add.w	ip, r3, #110	; 0x6e
 800530e:	00c3      	lsls	r3, r0, #3
 8005310:	e6b3      	b.n	800507a <_malloc_r+0x8a>
 8005312:	4423      	add	r3, r4
 8005314:	4630      	mov	r0, r6
 8005316:	685a      	ldr	r2, [r3, #4]
 8005318:	f042 0201 	orr.w	r2, r2, #1
 800531c:	605a      	str	r2, [r3, #4]
 800531e:	3408      	adds	r4, #8
 8005320:	f7fc f8f6 	bl	8001510 <__malloc_unlock>
 8005324:	e68c      	b.n	8005040 <_malloc_r+0x50>
 8005326:	bf00      	nop
 8005328:	20000db4 	.word	0x20000db4
 800532c:	2000206c 	.word	0x2000206c
 8005330:	2000203c 	.word	0x2000203c
 8005334:	20002064 	.word	0x20002064
 8005338:	20002068 	.word	0x20002068
 800533c:	20000dbc 	.word	0x20000dbc
 8005340:	200011bc 	.word	0x200011bc
 8005344:	1961      	adds	r1, r4, r5
 8005346:	f045 0e01 	orr.w	lr, r5, #1
 800534a:	f042 0501 	orr.w	r5, r2, #1
 800534e:	f8c4 e004 	str.w	lr, [r4, #4]
 8005352:	4630      	mov	r0, r6
 8005354:	e9c7 1104 	strd	r1, r1, [r7, #16]
 8005358:	e9c1 cc02 	strd	ip, ip, [r1, #8]
 800535c:	604d      	str	r5, [r1, #4]
 800535e:	50e2      	str	r2, [r4, r3]
 8005360:	f7fc f8d6 	bl	8001510 <__malloc_unlock>
 8005364:	3408      	adds	r4, #8
 8005366:	e66b      	b.n	8005040 <_malloc_r+0x50>
 8005368:	08e8      	lsrs	r0, r5, #3
 800536a:	f105 0308 	add.w	r3, r5, #8
 800536e:	e64f      	b.n	8005010 <_malloc_r+0x20>
 8005370:	f108 0801 	add.w	r8, r8, #1
 8005374:	f018 0f03 	tst.w	r8, #3
 8005378:	f10e 0e08 	add.w	lr, lr, #8
 800537c:	f47f aed0 	bne.w	8005120 <_malloc_r+0x130>
 8005380:	e052      	b.n	8005428 <_malloc_r+0x438>
 8005382:	4419      	add	r1, r3
 8005384:	461c      	mov	r4, r3
 8005386:	684a      	ldr	r2, [r1, #4]
 8005388:	68db      	ldr	r3, [r3, #12]
 800538a:	f854 5f08 	ldr.w	r5, [r4, #8]!
 800538e:	f042 0201 	orr.w	r2, r2, #1
 8005392:	604a      	str	r2, [r1, #4]
 8005394:	4630      	mov	r0, r6
 8005396:	60eb      	str	r3, [r5, #12]
 8005398:	609d      	str	r5, [r3, #8]
 800539a:	f7fc f8b9 	bl	8001510 <__malloc_unlock>
 800539e:	e64f      	b.n	8005040 <_malloc_r+0x50>
 80053a0:	0a5a      	lsrs	r2, r3, #9
 80053a2:	2a04      	cmp	r2, #4
 80053a4:	d935      	bls.n	8005412 <_malloc_r+0x422>
 80053a6:	2a14      	cmp	r2, #20
 80053a8:	d86f      	bhi.n	800548a <_malloc_r+0x49a>
 80053aa:	f102 015c 	add.w	r1, r2, #92	; 0x5c
 80053ae:	00c9      	lsls	r1, r1, #3
 80053b0:	325b      	adds	r2, #91	; 0x5b
 80053b2:	eb07 0e01 	add.w	lr, r7, r1
 80053b6:	5879      	ldr	r1, [r7, r1]
 80053b8:	f1ae 0e08 	sub.w	lr, lr, #8
 80053bc:	458e      	cmp	lr, r1
 80053be:	d058      	beq.n	8005472 <_malloc_r+0x482>
 80053c0:	684a      	ldr	r2, [r1, #4]
 80053c2:	f022 0203 	bic.w	r2, r2, #3
 80053c6:	429a      	cmp	r2, r3
 80053c8:	d902      	bls.n	80053d0 <_malloc_r+0x3e0>
 80053ca:	6889      	ldr	r1, [r1, #8]
 80053cc:	458e      	cmp	lr, r1
 80053ce:	d1f7      	bne.n	80053c0 <_malloc_r+0x3d0>
 80053d0:	f8d1 e00c 	ldr.w	lr, [r1, #12]
 80053d4:	687b      	ldr	r3, [r7, #4]
 80053d6:	e9c4 1e02 	strd	r1, lr, [r4, #8]
 80053da:	f8ce 4008 	str.w	r4, [lr, #8]
 80053de:	60cc      	str	r4, [r1, #12]
 80053e0:	e68c      	b.n	80050fc <_malloc_r+0x10c>
 80053e2:	f103 005c 	add.w	r0, r3, #92	; 0x5c
 80053e6:	f103 0c5b 	add.w	ip, r3, #91	; 0x5b
 80053ea:	00c3      	lsls	r3, r0, #3
 80053ec:	e645      	b.n	800507a <_malloc_r+0x8a>
 80053ee:	42bc      	cmp	r4, r7
 80053f0:	d072      	beq.n	80054d8 <_malloc_r+0x4e8>
 80053f2:	68bc      	ldr	r4, [r7, #8]
 80053f4:	6862      	ldr	r2, [r4, #4]
 80053f6:	f022 0203 	bic.w	r2, r2, #3
 80053fa:	4295      	cmp	r5, r2
 80053fc:	eba2 0305 	sub.w	r3, r2, r5
 8005400:	d802      	bhi.n	8005408 <_malloc_r+0x418>
 8005402:	2b0f      	cmp	r3, #15
 8005404:	f73f af51 	bgt.w	80052aa <_malloc_r+0x2ba>
 8005408:	4630      	mov	r0, r6
 800540a:	f7fc f881 	bl	8001510 <__malloc_unlock>
 800540e:	2400      	movs	r4, #0
 8005410:	e616      	b.n	8005040 <_malloc_r+0x50>
 8005412:	099a      	lsrs	r2, r3, #6
 8005414:	f102 0139 	add.w	r1, r2, #57	; 0x39
 8005418:	00c9      	lsls	r1, r1, #3
 800541a:	3238      	adds	r2, #56	; 0x38
 800541c:	e7c9      	b.n	80053b2 <_malloc_r+0x3c2>
 800541e:	f8d9 9000 	ldr.w	r9, [r9]
 8005422:	4599      	cmp	r9, r3
 8005424:	f040 8083 	bne.w	800552e <_malloc_r+0x53e>
 8005428:	f010 0f03 	tst.w	r0, #3
 800542c:	f1a9 0308 	sub.w	r3, r9, #8
 8005430:	f100 30ff 	add.w	r0, r0, #4294967295
 8005434:	d1f3      	bne.n	800541e <_malloc_r+0x42e>
 8005436:	687b      	ldr	r3, [r7, #4]
 8005438:	ea23 0304 	bic.w	r3, r3, r4
 800543c:	607b      	str	r3, [r7, #4]
 800543e:	0064      	lsls	r4, r4, #1
 8005440:	429c      	cmp	r4, r3
 8005442:	f63f aeac 	bhi.w	800519e <_malloc_r+0x1ae>
 8005446:	b91c      	cbnz	r4, 8005450 <_malloc_r+0x460>
 8005448:	e6a9      	b.n	800519e <_malloc_r+0x1ae>
 800544a:	0064      	lsls	r4, r4, #1
 800544c:	f108 0804 	add.w	r8, r8, #4
 8005450:	421c      	tst	r4, r3
 8005452:	d0fa      	beq.n	800544a <_malloc_r+0x45a>
 8005454:	4640      	mov	r0, r8
 8005456:	e65f      	b.n	8005118 <_malloc_r+0x128>
 8005458:	f108 0810 	add.w	r8, r8, #16
 800545c:	e6bc      	b.n	80051d8 <_malloc_r+0x1e8>
 800545e:	f5b3 7faa 	cmp.w	r3, #340	; 0x154
 8005462:	d826      	bhi.n	80054b2 <_malloc_r+0x4c2>
 8005464:	0beb      	lsrs	r3, r5, #15
 8005466:	f103 0078 	add.w	r0, r3, #120	; 0x78
 800546a:	f103 0c77 	add.w	ip, r3, #119	; 0x77
 800546e:	00c3      	lsls	r3, r0, #3
 8005470:	e603      	b.n	800507a <_malloc_r+0x8a>
 8005472:	687b      	ldr	r3, [r7, #4]
 8005474:	1092      	asrs	r2, r2, #2
 8005476:	f04f 0801 	mov.w	r8, #1
 800547a:	fa08 f202 	lsl.w	r2, r8, r2
 800547e:	4313      	orrs	r3, r2
 8005480:	607b      	str	r3, [r7, #4]
 8005482:	e7a8      	b.n	80053d6 <_malloc_r+0x3e6>
 8005484:	f44f 5380 	mov.w	r3, #4096	; 0x1000
 8005488:	e6ce      	b.n	8005228 <_malloc_r+0x238>
 800548a:	2a54      	cmp	r2, #84	; 0x54
 800548c:	d829      	bhi.n	80054e2 <_malloc_r+0x4f2>
 800548e:	0b1a      	lsrs	r2, r3, #12
 8005490:	f102 016f 	add.w	r1, r2, #111	; 0x6f
 8005494:	00c9      	lsls	r1, r1, #3
 8005496:	326e      	adds	r2, #110	; 0x6e
 8005498:	e78b      	b.n	80053b2 <_malloc_r+0x3c2>
 800549a:	f3c0 010b 	ubfx	r1, r0, #0, #12
 800549e:	2900      	cmp	r1, #0
 80054a0:	f47f aeae 	bne.w	8005200 <_malloc_r+0x210>
 80054a4:	eb09 0208 	add.w	r2, r9, r8
 80054a8:	68b9      	ldr	r1, [r7, #8]
 80054aa:	f042 0201 	orr.w	r2, r2, #1
 80054ae:	604a      	str	r2, [r1, #4]
 80054b0:	e6ec      	b.n	800528c <_malloc_r+0x29c>
 80054b2:	f240 5254 	movw	r2, #1364	; 0x554
 80054b6:	4293      	cmp	r3, r2
 80054b8:	d81c      	bhi.n	80054f4 <_malloc_r+0x504>
 80054ba:	0cab      	lsrs	r3, r5, #18
 80054bc:	f103 007d 	add.w	r0, r3, #125	; 0x7d
 80054c0:	f103 0c7c 	add.w	ip, r3, #124	; 0x7c
 80054c4:	00c3      	lsls	r3, r0, #3
 80054c6:	e5d8      	b.n	800507a <_malloc_r+0x8a>
 80054c8:	2301      	movs	r3, #1
 80054ca:	f8cb 3004 	str.w	r3, [fp, #4]
 80054ce:	e79b      	b.n	8005408 <_malloc_r+0x418>
 80054d0:	2101      	movs	r1, #1
 80054d2:	f04f 0800 	mov.w	r8, #0
 80054d6:	e6ba      	b.n	800524e <_malloc_r+0x25e>
 80054d8:	4a16      	ldr	r2, [pc, #88]	; (8005534 <_malloc_r+0x544>)
 80054da:	6813      	ldr	r3, [r2, #0]
 80054dc:	4443      	add	r3, r8
 80054de:	6013      	str	r3, [r2, #0]
 80054e0:	e68e      	b.n	8005200 <_malloc_r+0x210>
 80054e2:	f5b2 7faa 	cmp.w	r2, #340	; 0x154
 80054e6:	d814      	bhi.n	8005512 <_malloc_r+0x522>
 80054e8:	0bda      	lsrs	r2, r3, #15
 80054ea:	f102 0178 	add.w	r1, r2, #120	; 0x78
 80054ee:	00c9      	lsls	r1, r1, #3
 80054f0:	3277      	adds	r2, #119	; 0x77
 80054f2:	e75e      	b.n	80053b2 <_malloc_r+0x3c2>
 80054f4:	f44f 737e 	mov.w	r3, #1016	; 0x3f8
 80054f8:	207f      	movs	r0, #127	; 0x7f
 80054fa:	f04f 0c7e 	mov.w	ip, #126	; 0x7e
 80054fe:	e5bc      	b.n	800507a <_malloc_r+0x8a>
 8005500:	f104 0108 	add.w	r1, r4, #8
 8005504:	4630      	mov	r0, r6
 8005506:	9201      	str	r2, [sp, #4]
 8005508:	f002 fb02 	bl	8007b10 <_free_r>
 800550c:	9a01      	ldr	r2, [sp, #4]
 800550e:	6813      	ldr	r3, [r2, #0]
 8005510:	e6bc      	b.n	800528c <_malloc_r+0x29c>
 8005512:	f240 5154 	movw	r1, #1364	; 0x554
 8005516:	428a      	cmp	r2, r1
 8005518:	d805      	bhi.n	8005526 <_malloc_r+0x536>
 800551a:	0c9a      	lsrs	r2, r3, #18
 800551c:	f102 017d 	add.w	r1, r2, #125	; 0x7d
 8005520:	00c9      	lsls	r1, r1, #3
 8005522:	327c      	adds	r2, #124	; 0x7c
 8005524:	e745      	b.n	80053b2 <_malloc_r+0x3c2>
 8005526:	f44f 717e 	mov.w	r1, #1016	; 0x3f8
 800552a:	227e      	movs	r2, #126	; 0x7e
 800552c:	e741      	b.n	80053b2 <_malloc_r+0x3c2>
 800552e:	687b      	ldr	r3, [r7, #4]
 8005530:	e785      	b.n	800543e <_malloc_r+0x44e>
 8005532:	bf00      	nop
 8005534:	2000203c 	.word	0x2000203c
	...

08005540 <__ascii_mbtowc>:
 8005540:	b082      	sub	sp, #8
 8005542:	b149      	cbz	r1, 8005558 <__ascii_mbtowc+0x18>
 8005544:	b15a      	cbz	r2, 800555e <__ascii_mbtowc+0x1e>
 8005546:	b16b      	cbz	r3, 8005564 <__ascii_mbtowc+0x24>
 8005548:	7813      	ldrb	r3, [r2, #0]
 800554a:	600b      	str	r3, [r1, #0]
 800554c:	7812      	ldrb	r2, [r2, #0]
 800554e:	1c10      	adds	r0, r2, #0
 8005550:	bf18      	it	ne
 8005552:	2001      	movne	r0, #1
 8005554:	b002      	add	sp, #8
 8005556:	4770      	bx	lr
 8005558:	a901      	add	r1, sp, #4
 800555a:	2a00      	cmp	r2, #0
 800555c:	d1f3      	bne.n	8005546 <__ascii_mbtowc+0x6>
 800555e:	4610      	mov	r0, r2
 8005560:	b002      	add	sp, #8
 8005562:	4770      	bx	lr
 8005564:	f06f 0001 	mvn.w	r0, #1
 8005568:	e7f4      	b.n	8005554 <__ascii_mbtowc+0x14>
 800556a:	bf00      	nop
 800556c:	0000      	movs	r0, r0
	...

08005570 <memset>:
 8005570:	b4f0      	push	{r4, r5, r6, r7}
 8005572:	0786      	lsls	r6, r0, #30
 8005574:	d043      	beq.n	80055fe <memset+0x8e>
 8005576:	1e54      	subs	r4, r2, #1
 8005578:	2a00      	cmp	r2, #0
 800557a:	d03e      	beq.n	80055fa <memset+0x8a>
 800557c:	b2ca      	uxtb	r2, r1
 800557e:	4603      	mov	r3, r0
 8005580:	e002      	b.n	8005588 <memset+0x18>
 8005582:	f114 34ff 	adds.w	r4, r4, #4294967295
 8005586:	d338      	bcc.n	80055fa <memset+0x8a>
 8005588:	f803 2b01 	strb.w	r2, [r3], #1
 800558c:	079d      	lsls	r5, r3, #30
 800558e:	d1f8      	bne.n	8005582 <memset+0x12>
 8005590:	2c03      	cmp	r4, #3
 8005592:	d92b      	bls.n	80055ec <memset+0x7c>
 8005594:	b2cd      	uxtb	r5, r1
 8005596:	ea45 2505 	orr.w	r5, r5, r5, lsl #8
 800559a:	2c0f      	cmp	r4, #15
 800559c:	ea45 4505 	orr.w	r5, r5, r5, lsl #16
 80055a0:	d916      	bls.n	80055d0 <memset+0x60>
 80055a2:	f1a4 0710 	sub.w	r7, r4, #16
 80055a6:	093f      	lsrs	r7, r7, #4
 80055a8:	f103 0620 	add.w	r6, r3, #32
 80055ac:	eb06 1607 	add.w	r6, r6, r7, lsl #4
 80055b0:	f103 0210 	add.w	r2, r3, #16
 80055b4:	e942 5504 	strd	r5, r5, [r2, #-16]
 80055b8:	e942 5502 	strd	r5, r5, [r2, #-8]
 80055bc:	3210      	adds	r2, #16
 80055be:	42b2      	cmp	r2, r6
 80055c0:	d1f8      	bne.n	80055b4 <memset+0x44>
 80055c2:	f004 040f 	and.w	r4, r4, #15
 80055c6:	3701      	adds	r7, #1
 80055c8:	2c03      	cmp	r4, #3
 80055ca:	eb03 1307 	add.w	r3, r3, r7, lsl #4
 80055ce:	d90d      	bls.n	80055ec <memset+0x7c>
 80055d0:	461e      	mov	r6, r3
 80055d2:	4622      	mov	r2, r4
 80055d4:	3a04      	subs	r2, #4
 80055d6:	2a03      	cmp	r2, #3
 80055d8:	f846 5b04 	str.w	r5, [r6], #4
 80055dc:	d8fa      	bhi.n	80055d4 <memset+0x64>
 80055de:	1f22      	subs	r2, r4, #4
 80055e0:	f022 0203 	bic.w	r2, r2, #3
 80055e4:	3204      	adds	r2, #4
 80055e6:	4413      	add	r3, r2
 80055e8:	f004 0403 	and.w	r4, r4, #3
 80055ec:	b12c      	cbz	r4, 80055fa <memset+0x8a>
 80055ee:	b2c9      	uxtb	r1, r1
 80055f0:	441c      	add	r4, r3
 80055f2:	f803 1b01 	strb.w	r1, [r3], #1
 80055f6:	429c      	cmp	r4, r3
 80055f8:	d1fb      	bne.n	80055f2 <memset+0x82>
 80055fa:	bcf0      	pop	{r4, r5, r6, r7}
 80055fc:	4770      	bx	lr
 80055fe:	4614      	mov	r4, r2
 8005600:	4603      	mov	r3, r0
 8005602:	e7c5      	b.n	8005590 <memset+0x20>
	...

08005610 <snprintf>:
 8005610:	b40c      	push	{r2, r3}
 8005612:	b530      	push	{r4, r5, lr}
 8005614:	4b21      	ldr	r3, [pc, #132]	; (800569c <snprintf+0x8c>)
 8005616:	2900      	cmp	r1, #0
 8005618:	b09d      	sub	sp, #116	; 0x74
 800561a:	681c      	ldr	r4, [r3, #0]
 800561c:	db38      	blt.n	8005690 <snprintf+0x80>
 800561e:	f44f 7302 	mov.w	r3, #520	; 0x208
 8005622:	9002      	str	r0, [sp, #8]
 8005624:	9006      	str	r0, [sp, #24]
 8005626:	f8ad 3014 	strh.w	r3, [sp, #20]
 800562a:	a821      	add	r0, sp, #132	; 0x84
 800562c:	d019      	beq.n	8005662 <snprintf+0x52>
 800562e:	3901      	subs	r1, #1
 8005630:	4603      	mov	r3, r0
 8005632:	9a20      	ldr	r2, [sp, #128]	; 0x80
 8005634:	9104      	str	r1, [sp, #16]
 8005636:	9107      	str	r1, [sp, #28]
 8005638:	9001      	str	r0, [sp, #4]
 800563a:	f64f 75ff 	movw	r5, #65535	; 0xffff
 800563e:	a902      	add	r1, sp, #8
 8005640:	4620      	mov	r0, r4
 8005642:	f8ad 5016 	strh.w	r5, [sp, #22]
 8005646:	f000 f82b 	bl	80056a0 <_svfprintf_r>
 800564a:	1c42      	adds	r2, r0, #1
 800564c:	da01      	bge.n	8005652 <snprintf+0x42>
 800564e:	238b      	movs	r3, #139	; 0x8b
 8005650:	6023      	str	r3, [r4, #0]
 8005652:	9b02      	ldr	r3, [sp, #8]
 8005654:	2200      	movs	r2, #0
 8005656:	701a      	strb	r2, [r3, #0]
 8005658:	b01d      	add	sp, #116	; 0x74
 800565a:	e8bd 4030 	ldmia.w	sp!, {r4, r5, lr}
 800565e:	b002      	add	sp, #8
 8005660:	4770      	bx	lr
 8005662:	4603      	mov	r3, r0
 8005664:	9104      	str	r1, [sp, #16]
 8005666:	9107      	str	r1, [sp, #28]
 8005668:	9001      	str	r0, [sp, #4]
 800566a:	f64f 75ff 	movw	r5, #65535	; 0xffff
 800566e:	9a20      	ldr	r2, [sp, #128]	; 0x80
 8005670:	f8ad 5016 	strh.w	r5, [sp, #22]
 8005674:	a902      	add	r1, sp, #8
 8005676:	4620      	mov	r0, r4
 8005678:	f000 f812 	bl	80056a0 <_svfprintf_r>
 800567c:	1c43      	adds	r3, r0, #1
 800567e:	db04      	blt.n	800568a <snprintf+0x7a>
 8005680:	b01d      	add	sp, #116	; 0x74
 8005682:	e8bd 4030 	ldmia.w	sp!, {r4, r5, lr}
 8005686:	b002      	add	sp, #8
 8005688:	4770      	bx	lr
 800568a:	238b      	movs	r3, #139	; 0x8b
 800568c:	6023      	str	r3, [r4, #0]
 800568e:	e7f7      	b.n	8005680 <snprintf+0x70>
 8005690:	238b      	movs	r3, #139	; 0x8b
 8005692:	6023      	str	r3, [r4, #0]
 8005694:	f04f 30ff 	mov.w	r0, #4294967295
 8005698:	e7f2      	b.n	8005680 <snprintf+0x70>
 800569a:	bf00      	nop
 800569c:	20000818 	.word	0x20000818

080056a0 <_svfprintf_r>:
 80056a0:	e92d 4ff0 	stmdb	sp!, {r4, r5, r6, r7, r8, r9, sl, fp, lr}
 80056a4:	b0c1      	sub	sp, #260	; 0x104
 80056a6:	460c      	mov	r4, r1
 80056a8:	9108      	str	r1, [sp, #32]
 80056aa:	4691      	mov	r9, r2
 80056ac:	930b      	str	r3, [sp, #44]	; 0x2c
 80056ae:	9009      	str	r0, [sp, #36]	; 0x24
 80056b0:	f002 fb26 	bl	8007d00 <_localeconv_r>
 80056b4:	6803      	ldr	r3, [r0, #0]
 80056b6:	9314      	str	r3, [sp, #80]	; 0x50
 80056b8:	4618      	mov	r0, r3
 80056ba:	f7fb fc49 	bl	8000f50 <strlen>
 80056be:	89a3      	ldrh	r3, [r4, #12]
 80056c0:	9013      	str	r0, [sp, #76]	; 0x4c
 80056c2:	061d      	lsls	r5, r3, #24
 80056c4:	d503      	bpl.n	80056ce <_svfprintf_r+0x2e>
 80056c6:	6923      	ldr	r3, [r4, #16]
 80056c8:	2b00      	cmp	r3, #0
 80056ca:	f000 8718 	beq.w	80064fe <_svfprintf_r+0xe5e>
 80056ce:	ed9f 7b94 	vldr	d7, [pc, #592]	; 8005920 <_svfprintf_r+0x280>
 80056d2:	2300      	movs	r3, #0
 80056d4:	ed8d 7b10 	vstr	d7, [sp, #64]	; 0x40
 80056d8:	e9cd 3324 	strd	r3, r3, [sp, #144]	; 0x90
 80056dc:	f10d 08c0 	add.w	r8, sp, #192	; 0xc0
 80056e0:	930f      	str	r3, [sp, #60]	; 0x3c
 80056e2:	9312      	str	r3, [sp, #72]	; 0x48
 80056e4:	9315      	str	r3, [sp, #84]	; 0x54
 80056e6:	9306      	str	r3, [sp, #24]
 80056e8:	f8cd 808c 	str.w	r8, [sp, #140]	; 0x8c
 80056ec:	46c2      	mov	sl, r8
 80056ee:	46cb      	mov	fp, r9
 80056f0:	f89b 3000 	ldrb.w	r3, [fp]
 80056f4:	2b00      	cmp	r3, #0
 80056f6:	f000 8099 	beq.w	800582c <_svfprintf_r+0x18c>
 80056fa:	2b25      	cmp	r3, #37	; 0x25
 80056fc:	465c      	mov	r4, fp
 80056fe:	d102      	bne.n	8005706 <_svfprintf_r+0x66>
 8005700:	e01c      	b.n	800573c <_svfprintf_r+0x9c>
 8005702:	2b25      	cmp	r3, #37	; 0x25
 8005704:	d003      	beq.n	800570e <_svfprintf_r+0x6e>
 8005706:	f814 3f01 	ldrb.w	r3, [r4, #1]!
 800570a:	2b00      	cmp	r3, #0
 800570c:	d1f9      	bne.n	8005702 <_svfprintf_r+0x62>
 800570e:	eba4 050b 	sub.w	r5, r4, fp
 8005712:	b185      	cbz	r5, 8005736 <_svfprintf_r+0x96>
 8005714:	e9dd 3224 	ldrd	r3, r2, [sp, #144]	; 0x90
 8005718:	3301      	adds	r3, #1
 800571a:	442a      	add	r2, r5
 800571c:	2b07      	cmp	r3, #7
 800571e:	f8ca b000 	str.w	fp, [sl]
 8005722:	f8ca 5004 	str.w	r5, [sl, #4]
 8005726:	e9cd 3224 	strd	r3, r2, [sp, #144]	; 0x90
 800572a:	dc77      	bgt.n	800581c <_svfprintf_r+0x17c>
 800572c:	f10a 0a08 	add.w	sl, sl, #8
 8005730:	9b06      	ldr	r3, [sp, #24]
 8005732:	442b      	add	r3, r5
 8005734:	9306      	str	r3, [sp, #24]
 8005736:	7823      	ldrb	r3, [r4, #0]
 8005738:	2b00      	cmp	r3, #0
 800573a:	d077      	beq.n	800582c <_svfprintf_r+0x18c>
 800573c:	2300      	movs	r3, #0
 800573e:	461a      	mov	r2, r3
 8005740:	f88d 306f 	strb.w	r3, [sp, #111]	; 0x6f
 8005744:	4619      	mov	r1, r3
 8005746:	9307      	str	r3, [sp, #28]
 8005748:	461f      	mov	r7, r3
 800574a:	f04f 30ff 	mov.w	r0, #4294967295
 800574e:	7863      	ldrb	r3, [r4, #1]
 8005750:	9005      	str	r0, [sp, #20]
 8005752:	f104 0b01 	add.w	fp, r4, #1
 8005756:	f10b 0b01 	add.w	fp, fp, #1
 800575a:	4699      	mov	r9, r3
 800575c:	f1a9 0320 	sub.w	r3, r9, #32
 8005760:	2b58      	cmp	r3, #88	; 0x58
 8005762:	f200 8375 	bhi.w	8005e50 <_svfprintf_r+0x7b0>
 8005766:	e8df f013 	tbh	[pc, r3, lsl #1]
 800576a:	02c3      	.short	0x02c3
 800576c:	03730373 	.word	0x03730373
 8005770:	037302be 	.word	0x037302be
 8005774:	03730373 	.word	0x03730373
 8005778:	03730373 	.word	0x03730373
 800577c:	02b20373 	.word	0x02b20373
 8005780:	037302ad 	.word	0x037302ad
 8005784:	034c0367 	.word	0x034c0367
 8005788:	036c0373 	.word	0x036c0373
 800578c:	00b600b6 	.word	0x00b600b6
 8005790:	00b600b6 	.word	0x00b600b6
 8005794:	00b600b6 	.word	0x00b600b6
 8005798:	00b600b6 	.word	0x00b600b6
 800579c:	037300b6 	.word	0x037300b6
 80057a0:	03730373 	.word	0x03730373
 80057a4:	03730373 	.word	0x03730373
 80057a8:	03730373 	.word	0x03730373
 80057ac:	03730373 	.word	0x03730373
 80057b0:	03370373 	.word	0x03370373
 80057b4:	037302e4 	.word	0x037302e4
 80057b8:	037302e4 	.word	0x037302e4
 80057bc:	03730373 	.word	0x03730373
 80057c0:	02df0373 	.word	0x02df0373
 80057c4:	03730373 	.word	0x03730373
 80057c8:	037300a5 	.word	0x037300a5
 80057cc:	03730373 	.word	0x03730373
 80057d0:	03730373 	.word	0x03730373
 80057d4:	03730075 	.word	0x03730075
 80057d8:	028d0373 	.word	0x028d0373
 80057dc:	03730373 	.word	0x03730373
 80057e0:	03730373 	.word	0x03730373
 80057e4:	03730373 	.word	0x03730373
 80057e8:	03730373 	.word	0x03730373
 80057ec:	03730373 	.word	0x03730373
 80057f0:	012f017c 	.word	0x012f017c
 80057f4:	02e402e4 	.word	0x02e402e4
 80057f8:	012a02e4 	.word	0x012a02e4
 80057fc:	0373012f 	.word	0x0373012f
 8005800:	011d0373 	.word	0x011d0373
 8005804:	01090373 	.word	0x01090373
 8005808:	00ca00a7 	.word	0x00ca00a7
 800580c:	037300c5 	.word	0x037300c5
 8005810:	037300e1 	.word	0x037300e1
 8005814:	03730077 	.word	0x03730077
 8005818:	02cb0373 	.word	0x02cb0373
 800581c:	aa23      	add	r2, sp, #140	; 0x8c
 800581e:	e9dd 1008 	ldrd	r1, r0, [sp, #32]
 8005822:	f002 fda5 	bl	8008370 <__ssprint_r>
 8005826:	b940      	cbnz	r0, 800583a <_svfprintf_r+0x19a>
 8005828:	46c2      	mov	sl, r8
 800582a:	e781      	b.n	8005730 <_svfprintf_r+0x90>
 800582c:	9b25      	ldr	r3, [sp, #148]	; 0x94
 800582e:	b123      	cbz	r3, 800583a <_svfprintf_r+0x19a>
 8005830:	9809      	ldr	r0, [sp, #36]	; 0x24
 8005832:	9908      	ldr	r1, [sp, #32]
 8005834:	aa23      	add	r2, sp, #140	; 0x8c
 8005836:	f002 fd9b 	bl	8008370 <__ssprint_r>
 800583a:	9b08      	ldr	r3, [sp, #32]
 800583c:	899b      	ldrh	r3, [r3, #12]
 800583e:	f013 0f40 	tst.w	r3, #64	; 0x40
 8005842:	9b06      	ldr	r3, [sp, #24]
 8005844:	bf18      	it	ne
 8005846:	f04f 33ff 	movne.w	r3, #4294967295
 800584a:	9306      	str	r3, [sp, #24]
 800584c:	9806      	ldr	r0, [sp, #24]
 800584e:	b041      	add	sp, #260	; 0x104
 8005850:	e8bd 8ff0 	ldmia.w	sp!, {r4, r5, r6, r7, r8, r9, sl, fp, pc}
 8005854:	f047 0710 	orr.w	r7, r7, #16
 8005858:	06be      	lsls	r6, r7, #26
 800585a:	f140 8527 	bpl.w	80062ac <_svfprintf_r+0xc0c>
 800585e:	9d0b      	ldr	r5, [sp, #44]	; 0x2c
 8005860:	3507      	adds	r5, #7
 8005862:	f025 0307 	bic.w	r3, r5, #7
 8005866:	f103 0208 	add.w	r2, r3, #8
 800586a:	e9d3 4500 	ldrd	r4, r5, [r3]
 800586e:	920b      	str	r2, [sp, #44]	; 0x2c
 8005870:	2301      	movs	r3, #1
 8005872:	9a05      	ldr	r2, [sp, #20]
 8005874:	2600      	movs	r6, #0
 8005876:	3201      	adds	r2, #1
 8005878:	f88d 606f 	strb.w	r6, [sp, #111]	; 0x6f
 800587c:	f000 8428 	beq.w	80060d0 <_svfprintf_r+0xa30>
 8005880:	f027 0280 	bic.w	r2, r7, #128	; 0x80
 8005884:	9203      	str	r2, [sp, #12]
 8005886:	ea54 0205 	orrs.w	r2, r4, r5
 800588a:	f040 80c0 	bne.w	8005a0e <_svfprintf_r+0x36e>
 800588e:	9a05      	ldr	r2, [sp, #20]
 8005890:	2a00      	cmp	r2, #0
 8005892:	f040 86b0 	bne.w	80065f6 <_svfprintf_r+0xf56>
 8005896:	2b00      	cmp	r3, #0
 8005898:	f040 84d6 	bne.w	8006248 <_svfprintf_r+0xba8>
 800589c:	f017 0301 	ands.w	r3, r7, #1
 80058a0:	930a      	str	r3, [sp, #40]	; 0x28
 80058a2:	f000 8548 	beq.w	8006336 <_svfprintf_r+0xc96>
 80058a6:	ab40      	add	r3, sp, #256	; 0x100
 80058a8:	461a      	mov	r2, r3
 80058aa:	2330      	movs	r3, #48	; 0x30
 80058ac:	f802 3d41 	strb.w	r3, [r2, #-65]!
 80058b0:	920d      	str	r2, [sp, #52]	; 0x34
 80058b2:	e0cd      	b.n	8005a50 <_svfprintf_r+0x3b0>
 80058b4:	f047 0710 	orr.w	r7, r7, #16
 80058b8:	f017 0320 	ands.w	r3, r7, #32
 80058bc:	f000 8500 	beq.w	80062c0 <_svfprintf_r+0xc20>
 80058c0:	9d0b      	ldr	r5, [sp, #44]	; 0x2c
 80058c2:	3507      	adds	r5, #7
 80058c4:	f025 0307 	bic.w	r3, r5, #7
 80058c8:	f103 0208 	add.w	r2, r3, #8
 80058cc:	e9d3 4500 	ldrd	r4, r5, [r3]
 80058d0:	920b      	str	r2, [sp, #44]	; 0x2c
 80058d2:	2300      	movs	r3, #0
 80058d4:	e7cd      	b.n	8005872 <_svfprintf_r+0x1d2>
 80058d6:	f1a9 0330 	sub.w	r3, r9, #48	; 0x30
 80058da:	2000      	movs	r0, #0
 80058dc:	f81b 9b01 	ldrb.w	r9, [fp], #1
 80058e0:	eb00 0080 	add.w	r0, r0, r0, lsl #2
 80058e4:	eb03 0040 	add.w	r0, r3, r0, lsl #1
 80058e8:	f1a9 0330 	sub.w	r3, r9, #48	; 0x30
 80058ec:	2b09      	cmp	r3, #9
 80058ee:	d9f5      	bls.n	80058dc <_svfprintf_r+0x23c>
 80058f0:	9007      	str	r0, [sp, #28]
 80058f2:	e733      	b.n	800575c <_svfprintf_r+0xbc>
 80058f4:	f047 0720 	orr.w	r7, r7, #32
 80058f8:	f89b 3000 	ldrb.w	r3, [fp]
 80058fc:	e72b      	b.n	8005756 <_svfprintf_r+0xb6>
 80058fe:	9a0b      	ldr	r2, [sp, #44]	; 0x2c
 8005900:	4b09      	ldr	r3, [pc, #36]	; (8005928 <_svfprintf_r+0x288>)
 8005902:	6814      	ldr	r4, [r2, #0]
 8005904:	9312      	str	r3, [sp, #72]	; 0x48
 8005906:	3204      	adds	r2, #4
 8005908:	f647 0330 	movw	r3, #30768	; 0x7830
 800590c:	f8ad 3070 	strh.w	r3, [sp, #112]	; 0x70
 8005910:	f047 0702 	orr.w	r7, r7, #2
 8005914:	920b      	str	r2, [sp, #44]	; 0x2c
 8005916:	2500      	movs	r5, #0
 8005918:	2302      	movs	r3, #2
 800591a:	f04f 0978 	mov.w	r9, #120	; 0x78
 800591e:	e7a8      	b.n	8005872 <_svfprintf_r+0x1d2>
	...
 8005928:	08008ca4 	.word	0x08008ca4
 800592c:	9a0b      	ldr	r2, [sp, #44]	; 0x2c
 800592e:	6813      	ldr	r3, [r2, #0]
 8005930:	930d      	str	r3, [sp, #52]	; 0x34
 8005932:	2400      	movs	r4, #0
 8005934:	f88d 406f 	strb.w	r4, [sp, #111]	; 0x6f
 8005938:	1d15      	adds	r5, r2, #4
 800593a:	2b00      	cmp	r3, #0
 800593c:	f000 860b 	beq.w	8006556 <_svfprintf_r+0xeb6>
 8005940:	9a05      	ldr	r2, [sp, #20]
 8005942:	1c53      	adds	r3, r2, #1
 8005944:	f000 86b3 	beq.w	80066ae <_svfprintf_r+0x100e>
 8005948:	4621      	mov	r1, r4
 800594a:	980d      	ldr	r0, [sp, #52]	; 0x34
 800594c:	f7fb fb70 	bl	8001030 <memchr>
 8005950:	2800      	cmp	r0, #0
 8005952:	f000 8794 	beq.w	800687e <_svfprintf_r+0x11de>
 8005956:	9b0d      	ldr	r3, [sp, #52]	; 0x34
 8005958:	9405      	str	r4, [sp, #20]
 800595a:	1ac3      	subs	r3, r0, r3
 800595c:	930a      	str	r3, [sp, #40]	; 0x28
 800595e:	950b      	str	r5, [sp, #44]	; 0x2c
 8005960:	9703      	str	r7, [sp, #12]
 8005962:	ea23 73e3 	bic.w	r3, r3, r3, asr #31
 8005966:	f89d 606f 	ldrb.w	r6, [sp, #111]	; 0x6f
 800596a:	9304      	str	r3, [sp, #16]
 800596c:	940e      	str	r4, [sp, #56]	; 0x38
 800596e:	2e00      	cmp	r6, #0
 8005970:	f000 8089 	beq.w	8005a86 <_svfprintf_r+0x3e6>
 8005974:	9b04      	ldr	r3, [sp, #16]
 8005976:	3301      	adds	r3, #1
 8005978:	9304      	str	r3, [sp, #16]
 800597a:	e084      	b.n	8005a86 <_svfprintf_r+0x3e6>
 800597c:	2a00      	cmp	r2, #0
 800597e:	f041 80a4 	bne.w	8006aca <_svfprintf_r+0x142a>
 8005982:	9a0b      	ldr	r2, [sp, #44]	; 0x2c
 8005984:	06b9      	lsls	r1, r7, #26
 8005986:	f852 3b04 	ldr.w	r3, [r2], #4
 800598a:	920b      	str	r2, [sp, #44]	; 0x2c
 800598c:	f100 8512 	bmi.w	80063b4 <_svfprintf_r+0xd14>
 8005990:	06fa      	lsls	r2, r7, #27
 8005992:	f100 8606 	bmi.w	80065a2 <_svfprintf_r+0xf02>
 8005996:	067f      	lsls	r7, r7, #25
 8005998:	f140 8603 	bpl.w	80065a2 <_svfprintf_r+0xf02>
 800599c:	f8bd 2018 	ldrh.w	r2, [sp, #24]
 80059a0:	801a      	strh	r2, [r3, #0]
 80059a2:	e6a5      	b.n	80056f0 <_svfprintf_r+0x50>
 80059a4:	f89b 3000 	ldrb.w	r3, [fp]
 80059a8:	2b6c      	cmp	r3, #108	; 0x6c
 80059aa:	bf03      	ittte	eq
 80059ac:	f89b 3001 	ldrbeq.w	r3, [fp, #1]
 80059b0:	f047 0720 	orreq.w	r7, r7, #32
 80059b4:	f10b 0b01 	addeq.w	fp, fp, #1
 80059b8:	f047 0710 	orrne.w	r7, r7, #16
 80059bc:	e6cb      	b.n	8005756 <_svfprintf_r+0xb6>
 80059be:	f047 0740 	orr.w	r7, r7, #64	; 0x40
 80059c2:	f89b 3000 	ldrb.w	r3, [fp]
 80059c6:	e6c6      	b.n	8005756 <_svfprintf_r+0xb6>
 80059c8:	2a00      	cmp	r2, #0
 80059ca:	f041 8060 	bne.w	8006a8e <_svfprintf_r+0x13ee>
 80059ce:	06bc      	lsls	r4, r7, #26
 80059d0:	f140 820a 	bpl.w	8005de8 <_svfprintf_r+0x748>
 80059d4:	9d0b      	ldr	r5, [sp, #44]	; 0x2c
 80059d6:	3507      	adds	r5, #7
 80059d8:	f025 0307 	bic.w	r3, r5, #7
 80059dc:	e9d3 4500 	ldrd	r4, r5, [r3]
 80059e0:	f103 0208 	add.w	r2, r3, #8
 80059e4:	920b      	str	r2, [sp, #44]	; 0x2c
 80059e6:	2c00      	cmp	r4, #0
 80059e8:	f175 0300 	sbcs.w	r3, r5, #0
 80059ec:	f2c0 84af 	blt.w	800634e <_svfprintf_r+0xcae>
 80059f0:	9b05      	ldr	r3, [sp, #20]
 80059f2:	f89d 606f 	ldrb.w	r6, [sp, #111]	; 0x6f
 80059f6:	3301      	adds	r3, #1
 80059f8:	f000 84b4 	beq.w	8006364 <_svfprintf_r+0xcc4>
 80059fc:	f027 0280 	bic.w	r2, r7, #128	; 0x80
 8005a00:	9203      	str	r2, [sp, #12]
 8005a02:	ea54 0205 	orrs.w	r2, r4, r5
 8005a06:	f04f 0301 	mov.w	r3, #1
 8005a0a:	f43f af40 	beq.w	800588e <_svfprintf_r+0x1ee>
 8005a0e:	2b01      	cmp	r3, #1
 8005a10:	f000 8362 	beq.w	80060d8 <_svfprintf_r+0xa38>
 8005a14:	2b02      	cmp	r3, #2
 8005a16:	f000 8382 	beq.w	800611e <_svfprintf_r+0xa7e>
 8005a1a:	4641      	mov	r1, r8
 8005a1c:	e000      	b.n	8005a20 <_svfprintf_r+0x380>
 8005a1e:	4611      	mov	r1, r2
 8005a20:	08e2      	lsrs	r2, r4, #3
 8005a22:	ea42 7245 	orr.w	r2, r2, r5, lsl #29
 8005a26:	08e8      	lsrs	r0, r5, #3
 8005a28:	f004 0307 	and.w	r3, r4, #7
 8005a2c:	4605      	mov	r5, r0
 8005a2e:	4614      	mov	r4, r2
 8005a30:	3330      	adds	r3, #48	; 0x30
 8005a32:	ea54 0005 	orrs.w	r0, r4, r5
 8005a36:	f801 3c01 	strb.w	r3, [r1, #-1]
 8005a3a:	f101 32ff 	add.w	r2, r1, #4294967295
 8005a3e:	d1ee      	bne.n	8005a1e <_svfprintf_r+0x37e>
 8005a40:	9803      	ldr	r0, [sp, #12]
 8005a42:	920d      	str	r2, [sp, #52]	; 0x34
 8005a44:	07c0      	lsls	r0, r0, #31
 8005a46:	f100 8459 	bmi.w	80062fc <_svfprintf_r+0xc5c>
 8005a4a:	eba8 0302 	sub.w	r3, r8, r2
 8005a4e:	930a      	str	r3, [sp, #40]	; 0x28
 8005a50:	9b05      	ldr	r3, [sp, #20]
 8005a52:	9a0a      	ldr	r2, [sp, #40]	; 0x28
 8005a54:	4293      	cmp	r3, r2
 8005a56:	bfb8      	it	lt
 8005a58:	4613      	movlt	r3, r2
 8005a5a:	9304      	str	r3, [sp, #16]
 8005a5c:	2300      	movs	r3, #0
 8005a5e:	930e      	str	r3, [sp, #56]	; 0x38
 8005a60:	e785      	b.n	800596e <_svfprintf_r+0x2ce>
 8005a62:	990b      	ldr	r1, [sp, #44]	; 0x2c
 8005a64:	2300      	movs	r3, #0
 8005a66:	680a      	ldr	r2, [r1, #0]
 8005a68:	f88d 306f 	strb.w	r3, [sp, #111]	; 0x6f
 8005a6c:	461e      	mov	r6, r3
 8005a6e:	f88d 2098 	strb.w	r2, [sp, #152]	; 0x98
 8005a72:	2301      	movs	r3, #1
 8005a74:	1d0a      	adds	r2, r1, #4
 8005a76:	e9cd 7303 	strd	r7, r3, [sp, #12]
 8005a7a:	e9cd 320a 	strd	r3, r2, [sp, #40]	; 0x28
 8005a7e:	ab26      	add	r3, sp, #152	; 0x98
 8005a80:	9605      	str	r6, [sp, #20]
 8005a82:	960e      	str	r6, [sp, #56]	; 0x38
 8005a84:	930d      	str	r3, [sp, #52]	; 0x34
 8005a86:	9b03      	ldr	r3, [sp, #12]
 8005a88:	f013 0702 	ands.w	r7, r3, #2
 8005a8c:	d002      	beq.n	8005a94 <_svfprintf_r+0x3f4>
 8005a8e:	9b04      	ldr	r3, [sp, #16]
 8005a90:	3302      	adds	r3, #2
 8005a92:	9304      	str	r3, [sp, #16]
 8005a94:	9b03      	ldr	r3, [sp, #12]
 8005a96:	9c25      	ldr	r4, [sp, #148]	; 0x94
 8005a98:	f013 0384 	ands.w	r3, r3, #132	; 0x84
 8005a9c:	930c      	str	r3, [sp, #48]	; 0x30
 8005a9e:	d13f      	bne.n	8005b20 <_svfprintf_r+0x480>
 8005aa0:	9b07      	ldr	r3, [sp, #28]
 8005aa2:	9a04      	ldr	r2, [sp, #16]
 8005aa4:	1a9d      	subs	r5, r3, r2
 8005aa6:	2d00      	cmp	r5, #0
 8005aa8:	dd3a      	ble.n	8005b20 <_svfprintf_r+0x480>
 8005aaa:	2d10      	cmp	r5, #16
 8005aac:	9b24      	ldr	r3, [sp, #144]	; 0x90
 8005aae:	dd29      	ble.n	8005b04 <_svfprintf_r+0x464>
 8005ab0:	4652      	mov	r2, sl
 8005ab2:	4621      	mov	r1, r4
 8005ab4:	46aa      	mov	sl, r5
 8005ab6:	2610      	movs	r6, #16
 8005ab8:	e9dd 5408 	ldrd	r5, r4, [sp, #32]
 8005abc:	e006      	b.n	8005acc <_svfprintf_r+0x42c>
 8005abe:	f1aa 0a10 	sub.w	sl, sl, #16
 8005ac2:	f1ba 0f10 	cmp.w	sl, #16
 8005ac6:	f102 0208 	add.w	r2, r2, #8
 8005aca:	dd18      	ble.n	8005afe <_svfprintf_r+0x45e>
 8005acc:	3301      	adds	r3, #1
 8005ace:	48bb      	ldr	r0, [pc, #748]	; (8005dbc <_svfprintf_r+0x71c>)
 8005ad0:	3110      	adds	r1, #16
 8005ad2:	2b07      	cmp	r3, #7
 8005ad4:	e9cd 3124 	strd	r3, r1, [sp, #144]	; 0x90
 8005ad8:	e9c2 0600 	strd	r0, r6, [r2]
 8005adc:	ddef      	ble.n	8005abe <_svfprintf_r+0x41e>
 8005ade:	aa23      	add	r2, sp, #140	; 0x8c
 8005ae0:	4629      	mov	r1, r5
 8005ae2:	4620      	mov	r0, r4
 8005ae4:	f002 fc44 	bl	8008370 <__ssprint_r>
 8005ae8:	2800      	cmp	r0, #0
 8005aea:	f47f aea6 	bne.w	800583a <_svfprintf_r+0x19a>
 8005aee:	f1aa 0a10 	sub.w	sl, sl, #16
 8005af2:	f1ba 0f10 	cmp.w	sl, #16
 8005af6:	e9dd 3124 	ldrd	r3, r1, [sp, #144]	; 0x90
 8005afa:	4642      	mov	r2, r8
 8005afc:	dce6      	bgt.n	8005acc <_svfprintf_r+0x42c>
 8005afe:	4655      	mov	r5, sl
 8005b00:	460c      	mov	r4, r1
 8005b02:	4692      	mov	sl, r2
 8005b04:	3301      	adds	r3, #1
 8005b06:	4aad      	ldr	r2, [pc, #692]	; (8005dbc <_svfprintf_r+0x71c>)
 8005b08:	442c      	add	r4, r5
 8005b0a:	2b07      	cmp	r3, #7
 8005b0c:	e9cd 3424 	strd	r3, r4, [sp, #144]	; 0x90
 8005b10:	e9ca 2500 	strd	r2, r5, [sl]
 8005b14:	f300 8549 	bgt.w	80065aa <_svfprintf_r+0xf0a>
 8005b18:	f89d 606f 	ldrb.w	r6, [sp, #111]	; 0x6f
 8005b1c:	f10a 0a08 	add.w	sl, sl, #8
 8005b20:	b176      	cbz	r6, 8005b40 <_svfprintf_r+0x4a0>
 8005b22:	9b24      	ldr	r3, [sp, #144]	; 0x90
 8005b24:	3301      	adds	r3, #1
 8005b26:	3401      	adds	r4, #1
 8005b28:	f10d 016f 	add.w	r1, sp, #111	; 0x6f
 8005b2c:	2201      	movs	r2, #1
 8005b2e:	2b07      	cmp	r3, #7
 8005b30:	e9cd 3424 	strd	r3, r4, [sp, #144]	; 0x90
 8005b34:	e9ca 1200 	strd	r1, r2, [sl]
 8005b38:	f300 82db 	bgt.w	80060f2 <_svfprintf_r+0xa52>
 8005b3c:	f10a 0a08 	add.w	sl, sl, #8
 8005b40:	b16f      	cbz	r7, 8005b5e <_svfprintf_r+0x4be>
 8005b42:	9b24      	ldr	r3, [sp, #144]	; 0x90
 8005b44:	3301      	adds	r3, #1
 8005b46:	3402      	adds	r4, #2
 8005b48:	a91c      	add	r1, sp, #112	; 0x70
 8005b4a:	2202      	movs	r2, #2
 8005b4c:	2b07      	cmp	r3, #7
 8005b4e:	e9cd 3424 	strd	r3, r4, [sp, #144]	; 0x90
 8005b52:	e9ca 1200 	strd	r1, r2, [sl]
 8005b56:	f300 82d7 	bgt.w	8006108 <_svfprintf_r+0xa68>
 8005b5a:	f10a 0a08 	add.w	sl, sl, #8
 8005b5e:	9b0c      	ldr	r3, [sp, #48]	; 0x30
 8005b60:	2b80      	cmp	r3, #128	; 0x80
 8005b62:	f000 81e7 	beq.w	8005f34 <_svfprintf_r+0x894>
 8005b66:	9b05      	ldr	r3, [sp, #20]
 8005b68:	9a0a      	ldr	r2, [sp, #40]	; 0x28
 8005b6a:	1a9d      	subs	r5, r3, r2
 8005b6c:	2d00      	cmp	r5, #0
 8005b6e:	dd31      	ble.n	8005bd4 <_svfprintf_r+0x534>
 8005b70:	2d10      	cmp	r5, #16
 8005b72:	9a24      	ldr	r2, [sp, #144]	; 0x90
 8005b74:	4f92      	ldr	r7, [pc, #584]	; (8005dc0 <_svfprintf_r+0x720>)
 8005b76:	dd22      	ble.n	8005bbe <_svfprintf_r+0x51e>
 8005b78:	4653      	mov	r3, sl
 8005b7a:	4621      	mov	r1, r4
 8005b7c:	2610      	movs	r6, #16
 8005b7e:	e9dd a408 	ldrd	sl, r4, [sp, #32]
 8005b82:	e004      	b.n	8005b8e <_svfprintf_r+0x4ee>
 8005b84:	3d10      	subs	r5, #16
 8005b86:	2d10      	cmp	r5, #16
 8005b88:	f103 0308 	add.w	r3, r3, #8
 8005b8c:	dd15      	ble.n	8005bba <_svfprintf_r+0x51a>
 8005b8e:	3201      	adds	r2, #1
 8005b90:	3110      	adds	r1, #16
 8005b92:	2a07      	cmp	r2, #7
 8005b94:	e9cd 2124 	strd	r2, r1, [sp, #144]	; 0x90
 8005b98:	e9c3 7600 	strd	r7, r6, [r3]
 8005b9c:	ddf2      	ble.n	8005b84 <_svfprintf_r+0x4e4>
 8005b9e:	aa23      	add	r2, sp, #140	; 0x8c
 8005ba0:	4651      	mov	r1, sl
 8005ba2:	4620      	mov	r0, r4
 8005ba4:	f002 fbe4 	bl	8008370 <__ssprint_r>
 8005ba8:	2800      	cmp	r0, #0
 8005baa:	f47f ae46 	bne.w	800583a <_svfprintf_r+0x19a>
 8005bae:	3d10      	subs	r5, #16
 8005bb0:	2d10      	cmp	r5, #16
 8005bb2:	e9dd 2124 	ldrd	r2, r1, [sp, #144]	; 0x90
 8005bb6:	4643      	mov	r3, r8
 8005bb8:	dce9      	bgt.n	8005b8e <_svfprintf_r+0x4ee>
 8005bba:	469a      	mov	sl, r3
 8005bbc:	460c      	mov	r4, r1
 8005bbe:	3201      	adds	r2, #1
 8005bc0:	442c      	add	r4, r5
 8005bc2:	2a07      	cmp	r2, #7
 8005bc4:	e9cd 2424 	strd	r2, r4, [sp, #144]	; 0x90
 8005bc8:	e9ca 7500 	strd	r7, r5, [sl]
 8005bcc:	f300 82bc 	bgt.w	8006148 <_svfprintf_r+0xaa8>
 8005bd0:	f10a 0a08 	add.w	sl, sl, #8
 8005bd4:	9b03      	ldr	r3, [sp, #12]
 8005bd6:	05df      	lsls	r7, r3, #23
 8005bd8:	f100 8150 	bmi.w	8005e7c <_svfprintf_r+0x7dc>
 8005bdc:	9b24      	ldr	r3, [sp, #144]	; 0x90
 8005bde:	9a0d      	ldr	r2, [sp, #52]	; 0x34
 8005be0:	f8ca 2000 	str.w	r2, [sl]
 8005be4:	9a0a      	ldr	r2, [sp, #40]	; 0x28
 8005be6:	f8ca 2004 	str.w	r2, [sl, #4]
 8005bea:	3301      	adds	r3, #1
 8005bec:	4414      	add	r4, r2
 8005bee:	2b07      	cmp	r3, #7
 8005bf0:	9425      	str	r4, [sp, #148]	; 0x94
 8005bf2:	9324      	str	r3, [sp, #144]	; 0x90
 8005bf4:	f300 820e 	bgt.w	8006014 <_svfprintf_r+0x974>
 8005bf8:	f10a 0a08 	add.w	sl, sl, #8
 8005bfc:	9b03      	ldr	r3, [sp, #12]
 8005bfe:	075a      	lsls	r2, r3, #29
 8005c00:	d531      	bpl.n	8005c66 <_svfprintf_r+0x5c6>
 8005c02:	9b07      	ldr	r3, [sp, #28]
 8005c04:	9a04      	ldr	r2, [sp, #16]
 8005c06:	1a9d      	subs	r5, r3, r2
 8005c08:	2d00      	cmp	r5, #0
 8005c0a:	dd2c      	ble.n	8005c66 <_svfprintf_r+0x5c6>
 8005c0c:	2d10      	cmp	r5, #16
 8005c0e:	9b24      	ldr	r3, [sp, #144]	; 0x90
 8005c10:	dd1f      	ble.n	8005c52 <_svfprintf_r+0x5b2>
 8005c12:	2610      	movs	r6, #16
 8005c14:	e9dd 9708 	ldrd	r9, r7, [sp, #32]
 8005c18:	e004      	b.n	8005c24 <_svfprintf_r+0x584>
 8005c1a:	3d10      	subs	r5, #16
 8005c1c:	2d10      	cmp	r5, #16
 8005c1e:	f10a 0a08 	add.w	sl, sl, #8
 8005c22:	dd16      	ble.n	8005c52 <_svfprintf_r+0x5b2>
 8005c24:	3301      	adds	r3, #1
 8005c26:	4a65      	ldr	r2, [pc, #404]	; (8005dbc <_svfprintf_r+0x71c>)
 8005c28:	3410      	adds	r4, #16
 8005c2a:	2b07      	cmp	r3, #7
 8005c2c:	e9cd 3424 	strd	r3, r4, [sp, #144]	; 0x90
 8005c30:	e9ca 2600 	strd	r2, r6, [sl]
 8005c34:	ddf1      	ble.n	8005c1a <_svfprintf_r+0x57a>
 8005c36:	aa23      	add	r2, sp, #140	; 0x8c
 8005c38:	4649      	mov	r1, r9
 8005c3a:	4638      	mov	r0, r7
 8005c3c:	f002 fb98 	bl	8008370 <__ssprint_r>
 8005c40:	2800      	cmp	r0, #0
 8005c42:	f47f adfa 	bne.w	800583a <_svfprintf_r+0x19a>
 8005c46:	3d10      	subs	r5, #16
 8005c48:	2d10      	cmp	r5, #16
 8005c4a:	e9dd 3424 	ldrd	r3, r4, [sp, #144]	; 0x90
 8005c4e:	46c2      	mov	sl, r8
 8005c50:	dce8      	bgt.n	8005c24 <_svfprintf_r+0x584>
 8005c52:	3301      	adds	r3, #1
 8005c54:	4a59      	ldr	r2, [pc, #356]	; (8005dbc <_svfprintf_r+0x71c>)
 8005c56:	442c      	add	r4, r5
 8005c58:	2b07      	cmp	r3, #7
 8005c5a:	e9cd 3424 	strd	r3, r4, [sp, #144]	; 0x90
 8005c5e:	e9ca 2500 	strd	r2, r5, [sl]
 8005c62:	f300 835e 	bgt.w	8006322 <_svfprintf_r+0xc82>
 8005c66:	e9dd 3206 	ldrd	r3, r2, [sp, #24]
 8005c6a:	9904      	ldr	r1, [sp, #16]
 8005c6c:	428a      	cmp	r2, r1
 8005c6e:	bfac      	ite	ge
 8005c70:	189b      	addge	r3, r3, r2
 8005c72:	185b      	addlt	r3, r3, r1
 8005c74:	9306      	str	r3, [sp, #24]
 8005c76:	2c00      	cmp	r4, #0
 8005c78:	f040 8195 	bne.w	8005fa6 <_svfprintf_r+0x906>
 8005c7c:	2300      	movs	r3, #0
 8005c7e:	9324      	str	r3, [sp, #144]	; 0x90
 8005c80:	46c2      	mov	sl, r8
 8005c82:	e535      	b.n	80056f0 <_svfprintf_r+0x50>
 8005c84:	2a00      	cmp	r2, #0
 8005c86:	f040 8710 	bne.w	8006aaa <_svfprintf_r+0x140a>
 8005c8a:	4b4e      	ldr	r3, [pc, #312]	; (8005dc4 <_svfprintf_r+0x724>)
 8005c8c:	9312      	str	r3, [sp, #72]	; 0x48
 8005c8e:	06b9      	lsls	r1, r7, #26
 8005c90:	d53d      	bpl.n	8005d0e <_svfprintf_r+0x66e>
 8005c92:	9d0b      	ldr	r5, [sp, #44]	; 0x2c
 8005c94:	3507      	adds	r5, #7
 8005c96:	f025 0307 	bic.w	r3, r5, #7
 8005c9a:	e9d3 4500 	ldrd	r4, r5, [r3]
 8005c9e:	f103 0208 	add.w	r2, r3, #8
 8005ca2:	920b      	str	r2, [sp, #44]	; 0x2c
 8005ca4:	07fe      	lsls	r6, r7, #31
 8005ca6:	f140 80d1 	bpl.w	8005e4c <_svfprintf_r+0x7ac>
 8005caa:	ea54 0305 	orrs.w	r3, r4, r5
 8005cae:	f000 80cd 	beq.w	8005e4c <_svfprintf_r+0x7ac>
 8005cb2:	2330      	movs	r3, #48	; 0x30
 8005cb4:	f88d 3070 	strb.w	r3, [sp, #112]	; 0x70
 8005cb8:	f88d 9071 	strb.w	r9, [sp, #113]	; 0x71
 8005cbc:	f047 0702 	orr.w	r7, r7, #2
 8005cc0:	2302      	movs	r3, #2
 8005cc2:	e5d6      	b.n	8005872 <_svfprintf_r+0x1d2>
 8005cc4:	f89b 3000 	ldrb.w	r3, [fp]
 8005cc8:	2201      	movs	r2, #1
 8005cca:	212b      	movs	r1, #43	; 0x2b
 8005ccc:	e543      	b.n	8005756 <_svfprintf_r+0xb6>
 8005cce:	980b      	ldr	r0, [sp, #44]	; 0x2c
 8005cd0:	f89b 3000 	ldrb.w	r3, [fp]
 8005cd4:	6804      	ldr	r4, [r0, #0]
 8005cd6:	9407      	str	r4, [sp, #28]
 8005cd8:	2c00      	cmp	r4, #0
 8005cda:	f100 0004 	add.w	r0, r0, #4
 8005cde:	f2c0 840a 	blt.w	80064f6 <_svfprintf_r+0xe56>
 8005ce2:	900b      	str	r0, [sp, #44]	; 0x2c
 8005ce4:	e537      	b.n	8005756 <_svfprintf_r+0xb6>
 8005ce6:	f047 0701 	orr.w	r7, r7, #1
 8005cea:	f89b 3000 	ldrb.w	r3, [fp]
 8005cee:	e532      	b.n	8005756 <_svfprintf_r+0xb6>
 8005cf0:	f89b 3000 	ldrb.w	r3, [fp]
 8005cf4:	2900      	cmp	r1, #0
 8005cf6:	f47f ad2e 	bne.w	8005756 <_svfprintf_r+0xb6>
 8005cfa:	2201      	movs	r2, #1
 8005cfc:	2120      	movs	r1, #32
 8005cfe:	e52a      	b.n	8005756 <_svfprintf_r+0xb6>
 8005d00:	2a00      	cmp	r2, #0
 8005d02:	f040 86e6 	bne.w	8006ad2 <_svfprintf_r+0x1432>
 8005d06:	4b30      	ldr	r3, [pc, #192]	; (8005dc8 <_svfprintf_r+0x728>)
 8005d08:	9312      	str	r3, [sp, #72]	; 0x48
 8005d0a:	06b9      	lsls	r1, r7, #26
 8005d0c:	d4c1      	bmi.n	8005c92 <_svfprintf_r+0x5f2>
 8005d0e:	9b0b      	ldr	r3, [sp, #44]	; 0x2c
 8005d10:	06fa      	lsls	r2, r7, #27
 8005d12:	f853 4b04 	ldr.w	r4, [r3], #4
 8005d16:	930b      	str	r3, [sp, #44]	; 0x2c
 8005d18:	f100 8311 	bmi.w	800633e <_svfprintf_r+0xc9e>
 8005d1c:	067b      	lsls	r3, r7, #25
 8005d1e:	f140 830e 	bpl.w	800633e <_svfprintf_r+0xc9e>
 8005d22:	b2a4      	uxth	r4, r4
 8005d24:	2500      	movs	r5, #0
 8005d26:	e7bd      	b.n	8005ca4 <_svfprintf_r+0x604>
 8005d28:	f047 0708 	orr.w	r7, r7, #8
 8005d2c:	f89b 3000 	ldrb.w	r3, [fp]
 8005d30:	e511      	b.n	8005756 <_svfprintf_r+0xb6>
 8005d32:	2a00      	cmp	r2, #0
 8005d34:	f040 86bd 	bne.w	8006ab2 <_svfprintf_r+0x1412>
 8005d38:	9d0b      	ldr	r5, [sp, #44]	; 0x2c
 8005d3a:	3507      	adds	r5, #7
 8005d3c:	f025 0507 	bic.w	r5, r5, #7
 8005d40:	ed95 7b00 	vldr	d7, [r5]
 8005d44:	ec52 1b17 	vmov	r1, r2, d7
 8005d48:	f022 4300 	bic.w	r3, r2, #2147483648	; 0x80000000
 8005d4c:	9317      	str	r3, [sp, #92]	; 0x5c
 8005d4e:	ed8d 7a16 	vstr	s14, [sp, #88]	; 0x58
 8005d52:	f105 0408 	add.w	r4, r5, #8
 8005d56:	e9dd 0116 	ldrd	r0, r1, [sp, #88]	; 0x58
 8005d5a:	f04f 32ff 	mov.w	r2, #4294967295
 8005d5e:	4b1b      	ldr	r3, [pc, #108]	; (8005dcc <_svfprintf_r+0x72c>)
 8005d60:	940b      	str	r4, [sp, #44]	; 0x2c
 8005d62:	ed8d 7b10 	vstr	d7, [sp, #64]	; 0x40
 8005d66:	f7fb fa3b 	bl	80011e0 <__aeabi_dcmpun>
 8005d6a:	2800      	cmp	r0, #0
 8005d6c:	f040 8331 	bne.w	80063d2 <_svfprintf_r+0xd32>
 8005d70:	f04f 32ff 	mov.w	r2, #4294967295
 8005d74:	4b15      	ldr	r3, [pc, #84]	; (8005dcc <_svfprintf_r+0x72c>)
 8005d76:	e9dd 0116 	ldrd	r0, r1, [sp, #88]	; 0x58
 8005d7a:	f7fb fa13 	bl	80011a4 <__aeabi_dcmple>
 8005d7e:	2800      	cmp	r0, #0
 8005d80:	f040 8327 	bne.w	80063d2 <_svfprintf_r+0xd32>
 8005d84:	2200      	movs	r2, #0
 8005d86:	2300      	movs	r3, #0
 8005d88:	e9dd 0110 	ldrd	r0, r1, [sp, #64]	; 0x40
 8005d8c:	f7fb fa00 	bl	8001190 <__aeabi_dcmplt>
 8005d90:	2800      	cmp	r0, #0
 8005d92:	f040 8525 	bne.w	80067e0 <_svfprintf_r+0x1140>
 8005d96:	f89d 606f 	ldrb.w	r6, [sp, #111]	; 0x6f
 8005d9a:	4a0d      	ldr	r2, [pc, #52]	; (8005dd0 <_svfprintf_r+0x730>)
 8005d9c:	4b0d      	ldr	r3, [pc, #52]	; (8005dd4 <_svfprintf_r+0x734>)
 8005d9e:	2103      	movs	r1, #3
 8005da0:	2000      	movs	r0, #0
 8005da2:	f027 0480 	bic.w	r4, r7, #128	; 0x80
 8005da6:	f1b9 0f47 	cmp.w	r9, #71	; 0x47
 8005daa:	bfd8      	it	le
 8005dac:	461a      	movle	r2, r3
 8005dae:	e9cd 1004 	strd	r1, r0, [sp, #16]
 8005db2:	9403      	str	r4, [sp, #12]
 8005db4:	920d      	str	r2, [sp, #52]	; 0x34
 8005db6:	910a      	str	r1, [sp, #40]	; 0x28
 8005db8:	900e      	str	r0, [sp, #56]	; 0x38
 8005dba:	e5d8      	b.n	800596e <_svfprintf_r+0x2ce>
 8005dbc:	08008cc0 	.word	0x08008cc0
 8005dc0:	08008cd0 	.word	0x08008cd0
 8005dc4:	08008c90 	.word	0x08008c90
 8005dc8:	08008ca4 	.word	0x08008ca4
 8005dcc:	7fefffff 	.word	0x7fefffff
 8005dd0:	08008c84 	.word	0x08008c84
 8005dd4:	08008c80 	.word	0x08008c80
 8005dd8:	2a00      	cmp	r2, #0
 8005dda:	f040 866e 	bne.w	8006aba <_svfprintf_r+0x141a>
 8005dde:	f047 0710 	orr.w	r7, r7, #16
 8005de2:	06bc      	lsls	r4, r7, #26
 8005de4:	f53f adf6 	bmi.w	80059d4 <_svfprintf_r+0x334>
 8005de8:	9b0b      	ldr	r3, [sp, #44]	; 0x2c
 8005dea:	06f8      	lsls	r0, r7, #27
 8005dec:	f853 4b04 	ldr.w	r4, [r3], #4
 8005df0:	930b      	str	r3, [sp, #44]	; 0x2c
 8005df2:	f100 82a6 	bmi.w	8006342 <_svfprintf_r+0xca2>
 8005df6:	0679      	lsls	r1, r7, #25
 8005df8:	f140 82a3 	bpl.w	8006342 <_svfprintf_r+0xca2>
 8005dfc:	b224      	sxth	r4, r4
 8005dfe:	17e5      	asrs	r5, r4, #31
 8005e00:	e5f1      	b.n	80059e6 <_svfprintf_r+0x346>
 8005e02:	f89b 9000 	ldrb.w	r9, [fp]
 8005e06:	f1b9 0f2a 	cmp.w	r9, #42	; 0x2a
 8005e0a:	f10b 0001 	add.w	r0, fp, #1
 8005e0e:	f000 8618 	beq.w	8006a42 <_svfprintf_r+0x13a2>
 8005e12:	f1a9 0330 	sub.w	r3, r9, #48	; 0x30
 8005e16:	2b09      	cmp	r3, #9
 8005e18:	4683      	mov	fp, r0
 8005e1a:	f200 8507 	bhi.w	800682c <_svfprintf_r+0x118c>
 8005e1e:	2000      	movs	r0, #0
 8005e20:	f81b 9b01 	ldrb.w	r9, [fp], #1
 8005e24:	eb00 0080 	add.w	r0, r0, r0, lsl #2
 8005e28:	eb03 0040 	add.w	r0, r3, r0, lsl #1
 8005e2c:	f1a9 0330 	sub.w	r3, r9, #48	; 0x30
 8005e30:	2b09      	cmp	r3, #9
 8005e32:	d9f5      	bls.n	8005e20 <_svfprintf_r+0x780>
 8005e34:	9005      	str	r0, [sp, #20]
 8005e36:	e491      	b.n	800575c <_svfprintf_r+0xbc>
 8005e38:	f89b 3000 	ldrb.w	r3, [fp]
 8005e3c:	f047 0704 	orr.w	r7, r7, #4
 8005e40:	e489      	b.n	8005756 <_svfprintf_r+0xb6>
 8005e42:	f047 0780 	orr.w	r7, r7, #128	; 0x80
 8005e46:	f89b 3000 	ldrb.w	r3, [fp]
 8005e4a:	e484      	b.n	8005756 <_svfprintf_r+0xb6>
 8005e4c:	2302      	movs	r3, #2
 8005e4e:	e510      	b.n	8005872 <_svfprintf_r+0x1d2>
 8005e50:	2a00      	cmp	r2, #0
 8005e52:	f040 8636 	bne.w	8006ac2 <_svfprintf_r+0x1422>
 8005e56:	f1b9 0f00 	cmp.w	r9, #0
 8005e5a:	f43f ace7 	beq.w	800582c <_svfprintf_r+0x18c>
 8005e5e:	2300      	movs	r3, #0
 8005e60:	2201      	movs	r2, #1
 8005e62:	461e      	mov	r6, r3
 8005e64:	f88d 306f 	strb.w	r3, [sp, #111]	; 0x6f
 8005e68:	9305      	str	r3, [sp, #20]
 8005e6a:	930e      	str	r3, [sp, #56]	; 0x38
 8005e6c:	ab26      	add	r3, sp, #152	; 0x98
 8005e6e:	9204      	str	r2, [sp, #16]
 8005e70:	f88d 9098 	strb.w	r9, [sp, #152]	; 0x98
 8005e74:	9703      	str	r7, [sp, #12]
 8005e76:	920a      	str	r2, [sp, #40]	; 0x28
 8005e78:	930d      	str	r3, [sp, #52]	; 0x34
 8005e7a:	e604      	b.n	8005a86 <_svfprintf_r+0x3e6>
 8005e7c:	f1b9 0f65 	cmp.w	r9, #101	; 0x65
 8005e80:	f340 80d3 	ble.w	800602a <_svfprintf_r+0x98a>
 8005e84:	2200      	movs	r2, #0
 8005e86:	2300      	movs	r3, #0
 8005e88:	e9dd 0110 	ldrd	r0, r1, [sp, #64]	; 0x40
 8005e8c:	f7fb f976 	bl	800117c <__aeabi_dcmpeq>
 8005e90:	2800      	cmp	r0, #0
 8005e92:	f000 8169 	beq.w	8006168 <_svfprintf_r+0xac8>
 8005e96:	9b24      	ldr	r3, [sp, #144]	; 0x90
 8005e98:	4ab1      	ldr	r2, [pc, #708]	; (8006160 <_svfprintf_r+0xac0>)
 8005e9a:	f8ca 2000 	str.w	r2, [sl]
 8005e9e:	3301      	adds	r3, #1
 8005ea0:	3401      	adds	r4, #1
 8005ea2:	2201      	movs	r2, #1
 8005ea4:	2b07      	cmp	r3, #7
 8005ea6:	e9cd 3424 	strd	r3, r4, [sp, #144]	; 0x90
 8005eaa:	f8ca 2004 	str.w	r2, [sl, #4]
 8005eae:	f300 83ce 	bgt.w	800664e <_svfprintf_r+0xfae>
 8005eb2:	f10a 0a08 	add.w	sl, sl, #8
 8005eb6:	9b1d      	ldr	r3, [sp, #116]	; 0x74
 8005eb8:	9a0f      	ldr	r2, [sp, #60]	; 0x3c
 8005eba:	9c25      	ldr	r4, [sp, #148]	; 0x94
 8005ebc:	4293      	cmp	r3, r2
 8005ebe:	f280 822b 	bge.w	8006318 <_svfprintf_r+0xc78>
 8005ec2:	9b24      	ldr	r3, [sp, #144]	; 0x90
 8005ec4:	9a14      	ldr	r2, [sp, #80]	; 0x50
 8005ec6:	f8ca 2000 	str.w	r2, [sl]
 8005eca:	9a13      	ldr	r2, [sp, #76]	; 0x4c
 8005ecc:	f8ca 2004 	str.w	r2, [sl, #4]
 8005ed0:	3301      	adds	r3, #1
 8005ed2:	4414      	add	r4, r2
 8005ed4:	2b07      	cmp	r3, #7
 8005ed6:	e9cd 3424 	strd	r3, r4, [sp, #144]	; 0x90
 8005eda:	f300 8331 	bgt.w	8006540 <_svfprintf_r+0xea0>
 8005ede:	f10a 0a08 	add.w	sl, sl, #8
 8005ee2:	9b0f      	ldr	r3, [sp, #60]	; 0x3c
 8005ee4:	1e5d      	subs	r5, r3, #1
 8005ee6:	2d00      	cmp	r5, #0
 8005ee8:	f77f ae88 	ble.w	8005bfc <_svfprintf_r+0x55c>
 8005eec:	2d10      	cmp	r5, #16
 8005eee:	9a24      	ldr	r2, [sp, #144]	; 0x90
 8005ef0:	4f9c      	ldr	r7, [pc, #624]	; (8006164 <_svfprintf_r+0xac4>)
 8005ef2:	f340 8385 	ble.w	8006600 <_svfprintf_r+0xf60>
 8005ef6:	4623      	mov	r3, r4
 8005ef8:	2610      	movs	r6, #16
 8005efa:	e9dd 4908 	ldrd	r4, r9, [sp, #32]
 8005efe:	e005      	b.n	8005f0c <_svfprintf_r+0x86c>
 8005f00:	f10a 0a08 	add.w	sl, sl, #8
 8005f04:	3d10      	subs	r5, #16
 8005f06:	2d10      	cmp	r5, #16
 8005f08:	f340 8379 	ble.w	80065fe <_svfprintf_r+0xf5e>
 8005f0c:	3201      	adds	r2, #1
 8005f0e:	3310      	adds	r3, #16
 8005f10:	2a07      	cmp	r2, #7
 8005f12:	e9cd 2324 	strd	r2, r3, [sp, #144]	; 0x90
 8005f16:	e9ca 7600 	strd	r7, r6, [sl]
 8005f1a:	ddf1      	ble.n	8005f00 <_svfprintf_r+0x860>
 8005f1c:	aa23      	add	r2, sp, #140	; 0x8c
 8005f1e:	4621      	mov	r1, r4
 8005f20:	4648      	mov	r0, r9
 8005f22:	f002 fa25 	bl	8008370 <__ssprint_r>
 8005f26:	2800      	cmp	r0, #0
 8005f28:	f47f ac87 	bne.w	800583a <_svfprintf_r+0x19a>
 8005f2c:	e9dd 2324 	ldrd	r2, r3, [sp, #144]	; 0x90
 8005f30:	46c2      	mov	sl, r8
 8005f32:	e7e7      	b.n	8005f04 <_svfprintf_r+0x864>
 8005f34:	9b07      	ldr	r3, [sp, #28]
 8005f36:	9a04      	ldr	r2, [sp, #16]
 8005f38:	1a9d      	subs	r5, r3, r2
 8005f3a:	2d00      	cmp	r5, #0
 8005f3c:	f77f ae13 	ble.w	8005b66 <_svfprintf_r+0x4c6>
 8005f40:	2d10      	cmp	r5, #16
 8005f42:	9a24      	ldr	r2, [sp, #144]	; 0x90
 8005f44:	4f87      	ldr	r7, [pc, #540]	; (8006164 <_svfprintf_r+0xac4>)
 8005f46:	dd22      	ble.n	8005f8e <_svfprintf_r+0x8ee>
 8005f48:	4653      	mov	r3, sl
 8005f4a:	4621      	mov	r1, r4
 8005f4c:	2610      	movs	r6, #16
 8005f4e:	e9dd a408 	ldrd	sl, r4, [sp, #32]
 8005f52:	e004      	b.n	8005f5e <_svfprintf_r+0x8be>
 8005f54:	3d10      	subs	r5, #16
 8005f56:	2d10      	cmp	r5, #16
 8005f58:	f103 0308 	add.w	r3, r3, #8
 8005f5c:	dd15      	ble.n	8005f8a <_svfprintf_r+0x8ea>
 8005f5e:	3201      	adds	r2, #1
 8005f60:	3110      	adds	r1, #16
 8005f62:	2a07      	cmp	r2, #7
 8005f64:	e9cd 2124 	strd	r2, r1, [sp, #144]	; 0x90
 8005f68:	e9c3 7600 	strd	r7, r6, [r3]
 8005f6c:	ddf2      	ble.n	8005f54 <_svfprintf_r+0x8b4>
 8005f6e:	aa23      	add	r2, sp, #140	; 0x8c
 8005f70:	4651      	mov	r1, sl
 8005f72:	4620      	mov	r0, r4
 8005f74:	f002 f9fc 	bl	8008370 <__ssprint_r>
 8005f78:	2800      	cmp	r0, #0
 8005f7a:	f47f ac5e 	bne.w	800583a <_svfprintf_r+0x19a>
 8005f7e:	3d10      	subs	r5, #16
 8005f80:	2d10      	cmp	r5, #16
 8005f82:	e9dd 2124 	ldrd	r2, r1, [sp, #144]	; 0x90
 8005f86:	4643      	mov	r3, r8
 8005f88:	dce9      	bgt.n	8005f5e <_svfprintf_r+0x8be>
 8005f8a:	469a      	mov	sl, r3
 8005f8c:	460c      	mov	r4, r1
 8005f8e:	3201      	adds	r2, #1
 8005f90:	442c      	add	r4, r5
 8005f92:	2a07      	cmp	r2, #7
 8005f94:	e9cd 2424 	strd	r2, r4, [sp, #144]	; 0x90
 8005f98:	e9ca 7500 	strd	r7, r5, [sl]
 8005f9c:	f300 833a 	bgt.w	8006614 <_svfprintf_r+0xf74>
 8005fa0:	f10a 0a08 	add.w	sl, sl, #8
 8005fa4:	e5df      	b.n	8005b66 <_svfprintf_r+0x4c6>
 8005fa6:	aa23      	add	r2, sp, #140	; 0x8c
 8005fa8:	e9dd 1008 	ldrd	r1, r0, [sp, #32]
 8005fac:	f002 f9e0 	bl	8008370 <__ssprint_r>
 8005fb0:	2800      	cmp	r0, #0
 8005fb2:	f43f ae63 	beq.w	8005c7c <_svfprintf_r+0x5dc>
 8005fb6:	e440      	b.n	800583a <_svfprintf_r+0x19a>
 8005fb8:	aa23      	add	r2, sp, #140	; 0x8c
 8005fba:	e9dd 1008 	ldrd	r1, r0, [sp, #32]
 8005fbe:	f002 f9d7 	bl	8008370 <__ssprint_r>
 8005fc2:	2800      	cmp	r0, #0
 8005fc4:	f47f ac39 	bne.w	800583a <_svfprintf_r+0x19a>
 8005fc8:	9b1d      	ldr	r3, [sp, #116]	; 0x74
 8005fca:	9c25      	ldr	r4, [sp, #148]	; 0x94
 8005fcc:	46c2      	mov	sl, r8
 8005fce:	b91b      	cbnz	r3, 8005fd8 <_svfprintf_r+0x938>
 8005fd0:	9a0f      	ldr	r2, [sp, #60]	; 0x3c
 8005fd2:	2a00      	cmp	r2, #0
 8005fd4:	f000 8375 	beq.w	80066c2 <_svfprintf_r+0x1022>
 8005fd8:	9a24      	ldr	r2, [sp, #144]	; 0x90
 8005fda:	9914      	ldr	r1, [sp, #80]	; 0x50
 8005fdc:	f8ca 1000 	str.w	r1, [sl]
 8005fe0:	9913      	ldr	r1, [sp, #76]	; 0x4c
 8005fe2:	f8ca 1004 	str.w	r1, [sl, #4]
 8005fe6:	3201      	adds	r2, #1
 8005fe8:	440c      	add	r4, r1
 8005fea:	2a07      	cmp	r2, #7
 8005fec:	9425      	str	r4, [sp, #148]	; 0x94
 8005fee:	9224      	str	r2, [sp, #144]	; 0x90
 8005ff0:	f300 8450 	bgt.w	8006894 <_svfprintf_r+0x11f4>
 8005ff4:	f10a 0a08 	add.w	sl, sl, #8
 8005ff8:	2b00      	cmp	r3, #0
 8005ffa:	f2c0 8487 	blt.w	800690c <_svfprintf_r+0x126c>
 8005ffe:	9b0f      	ldr	r3, [sp, #60]	; 0x3c
 8006000:	990d      	ldr	r1, [sp, #52]	; 0x34
 8006002:	3201      	adds	r2, #1
 8006004:	441c      	add	r4, r3
 8006006:	2a07      	cmp	r2, #7
 8006008:	e9cd 2424 	strd	r2, r4, [sp, #144]	; 0x90
 800600c:	e9ca 1300 	strd	r1, r3, [sl]
 8006010:	f77f adf2 	ble.w	8005bf8 <_svfprintf_r+0x558>
 8006014:	aa23      	add	r2, sp, #140	; 0x8c
 8006016:	e9dd 1008 	ldrd	r1, r0, [sp, #32]
 800601a:	f002 f9a9 	bl	8008370 <__ssprint_r>
 800601e:	2800      	cmp	r0, #0
 8006020:	f47f ac0b 	bne.w	800583a <_svfprintf_r+0x19a>
 8006024:	9c25      	ldr	r4, [sp, #148]	; 0x94
 8006026:	46c2      	mov	sl, r8
 8006028:	e5e8      	b.n	8005bfc <_svfprintf_r+0x55c>
 800602a:	9a0f      	ldr	r2, [sp, #60]	; 0x3c
 800602c:	9b24      	ldr	r3, [sp, #144]	; 0x90
 800602e:	2a01      	cmp	r2, #1
 8006030:	f104 0401 	add.w	r4, r4, #1
 8006034:	f103 0501 	add.w	r5, r3, #1
 8006038:	f10a 0608 	add.w	r6, sl, #8
 800603c:	f340 814a 	ble.w	80062d4 <_svfprintf_r+0xc34>
 8006040:	2301      	movs	r3, #1
 8006042:	9a0d      	ldr	r2, [sp, #52]	; 0x34
 8006044:	f8ca 2000 	str.w	r2, [sl]
 8006048:	2d07      	cmp	r5, #7
 800604a:	e9cd 5424 	strd	r5, r4, [sp, #144]	; 0x90
 800604e:	f8ca 3004 	str.w	r3, [sl, #4]
 8006052:	f300 82b8 	bgt.w	80065c6 <_svfprintf_r+0xf26>
 8006056:	9b13      	ldr	r3, [sp, #76]	; 0x4c
 8006058:	9a14      	ldr	r2, [sp, #80]	; 0x50
 800605a:	3501      	adds	r5, #1
 800605c:	441c      	add	r4, r3
 800605e:	2d07      	cmp	r5, #7
 8006060:	e9cd 5424 	strd	r5, r4, [sp, #144]	; 0x90
 8006064:	e9c6 2300 	strd	r2, r3, [r6]
 8006068:	f300 82b9 	bgt.w	80065de <_svfprintf_r+0xf3e>
 800606c:	3608      	adds	r6, #8
 800606e:	1c6b      	adds	r3, r5, #1
 8006070:	461f      	mov	r7, r3
 8006072:	46b9      	mov	r9, r7
 8006074:	9f0f      	ldr	r7, [sp, #60]	; 0x3c
 8006076:	930a      	str	r3, [sp, #40]	; 0x28
 8006078:	3f01      	subs	r7, #1
 800607a:	2200      	movs	r2, #0
 800607c:	2300      	movs	r3, #0
 800607e:	e9dd 0110 	ldrd	r0, r1, [sp, #64]	; 0x40
 8006082:	9705      	str	r7, [sp, #20]
 8006084:	f106 0a08 	add.w	sl, r6, #8
 8006088:	f7fb f878 	bl	800117c <__aeabi_dcmpeq>
 800608c:	2800      	cmp	r0, #0
 800608e:	f040 80e1 	bne.w	8006254 <_svfprintf_r+0xbb4>
 8006092:	9b0d      	ldr	r3, [sp, #52]	; 0x34
 8006094:	6077      	str	r7, [r6, #4]
 8006096:	3301      	adds	r3, #1
 8006098:	443c      	add	r4, r7
 800609a:	f1b9 0f07 	cmp.w	r9, #7
 800609e:	6033      	str	r3, [r6, #0]
 80060a0:	9425      	str	r4, [sp, #148]	; 0x94
 80060a2:	f8cd 9090 	str.w	r9, [sp, #144]	; 0x90
 80060a6:	f300 823b 	bgt.w	8006520 <_svfprintf_r+0xe80>
 80060aa:	f106 0310 	add.w	r3, r6, #16
 80060ae:	f105 0902 	add.w	r9, r5, #2
 80060b2:	4656      	mov	r6, sl
 80060b4:	469a      	mov	sl, r3
 80060b6:	9a15      	ldr	r2, [sp, #84]	; 0x54
 80060b8:	6072      	str	r2, [r6, #4]
 80060ba:	4414      	add	r4, r2
 80060bc:	ab1f      	add	r3, sp, #124	; 0x7c
 80060be:	f1b9 0f07 	cmp.w	r9, #7
 80060c2:	9425      	str	r4, [sp, #148]	; 0x94
 80060c4:	f8cd 9090 	str.w	r9, [sp, #144]	; 0x90
 80060c8:	6033      	str	r3, [r6, #0]
 80060ca:	f77f ad97 	ble.w	8005bfc <_svfprintf_r+0x55c>
 80060ce:	e7a1      	b.n	8006014 <_svfprintf_r+0x974>
 80060d0:	2b01      	cmp	r3, #1
 80060d2:	9703      	str	r7, [sp, #12]
 80060d4:	f47f ac9e 	bne.w	8005a14 <_svfprintf_r+0x374>
 80060d8:	2d00      	cmp	r5, #0
 80060da:	bf08      	it	eq
 80060dc:	2c0a      	cmpeq	r4, #10
 80060de:	f080 8147 	bcs.w	8006370 <_svfprintf_r+0xcd0>
 80060e2:	ab40      	add	r3, sp, #256	; 0x100
 80060e4:	3430      	adds	r4, #48	; 0x30
 80060e6:	f803 4d41 	strb.w	r4, [r3, #-65]!
 80060ea:	930d      	str	r3, [sp, #52]	; 0x34
 80060ec:	2301      	movs	r3, #1
 80060ee:	930a      	str	r3, [sp, #40]	; 0x28
 80060f0:	e4ae      	b.n	8005a50 <_svfprintf_r+0x3b0>
 80060f2:	aa23      	add	r2, sp, #140	; 0x8c
 80060f4:	e9dd 1008 	ldrd	r1, r0, [sp, #32]
 80060f8:	f002 f93a 	bl	8008370 <__ssprint_r>
 80060fc:	2800      	cmp	r0, #0
 80060fe:	f47f ab9c 	bne.w	800583a <_svfprintf_r+0x19a>
 8006102:	9c25      	ldr	r4, [sp, #148]	; 0x94
 8006104:	46c2      	mov	sl, r8
 8006106:	e51b      	b.n	8005b40 <_svfprintf_r+0x4a0>
 8006108:	aa23      	add	r2, sp, #140	; 0x8c
 800610a:	e9dd 1008 	ldrd	r1, r0, [sp, #32]
 800610e:	f002 f92f 	bl	8008370 <__ssprint_r>
 8006112:	2800      	cmp	r0, #0
 8006114:	f47f ab91 	bne.w	800583a <_svfprintf_r+0x19a>
 8006118:	9c25      	ldr	r4, [sp, #148]	; 0x94
 800611a:	46c2      	mov	sl, r8
 800611c:	e51f      	b.n	8005b5e <_svfprintf_r+0x4be>
 800611e:	9f12      	ldr	r7, [sp, #72]	; 0x48
 8006120:	4642      	mov	r2, r8
 8006122:	0923      	lsrs	r3, r4, #4
 8006124:	f004 000f 	and.w	r0, r4, #15
 8006128:	ea43 7305 	orr.w	r3, r3, r5, lsl #28
 800612c:	0929      	lsrs	r1, r5, #4
 800612e:	461c      	mov	r4, r3
 8006130:	460d      	mov	r5, r1
 8006132:	5c3b      	ldrb	r3, [r7, r0]
 8006134:	f802 3d01 	strb.w	r3, [r2, #-1]!
 8006138:	ea54 0305 	orrs.w	r3, r4, r5
 800613c:	d1f1      	bne.n	8006122 <_svfprintf_r+0xa82>
 800613e:	eba8 0302 	sub.w	r3, r8, r2
 8006142:	920d      	str	r2, [sp, #52]	; 0x34
 8006144:	930a      	str	r3, [sp, #40]	; 0x28
 8006146:	e483      	b.n	8005a50 <_svfprintf_r+0x3b0>
 8006148:	aa23      	add	r2, sp, #140	; 0x8c
 800614a:	e9dd 1008 	ldrd	r1, r0, [sp, #32]
 800614e:	f002 f90f 	bl	8008370 <__ssprint_r>
 8006152:	2800      	cmp	r0, #0
 8006154:	f47f ab71 	bne.w	800583a <_svfprintf_r+0x19a>
 8006158:	9c25      	ldr	r4, [sp, #148]	; 0x94
 800615a:	46c2      	mov	sl, r8
 800615c:	e53a      	b.n	8005bd4 <_svfprintf_r+0x534>
 800615e:	bf00      	nop
 8006160:	08008a44 	.word	0x08008a44
 8006164:	08008cd0 	.word	0x08008cd0
 8006168:	9b1d      	ldr	r3, [sp, #116]	; 0x74
 800616a:	2b00      	cmp	r3, #0
 800616c:	f340 825e 	ble.w	800662c <_svfprintf_r+0xf8c>
 8006170:	e9dd 320e 	ldrd	r3, r2, [sp, #56]	; 0x38
 8006174:	4293      	cmp	r3, r2
 8006176:	bfa8      	it	ge
 8006178:	4613      	movge	r3, r2
 800617a:	2b00      	cmp	r3, #0
 800617c:	461d      	mov	r5, r3
 800617e:	dd0e      	ble.n	800619e <_svfprintf_r+0xafe>
 8006180:	9b24      	ldr	r3, [sp, #144]	; 0x90
 8006182:	9a0d      	ldr	r2, [sp, #52]	; 0x34
 8006184:	f8ca 2000 	str.w	r2, [sl]
 8006188:	3301      	adds	r3, #1
 800618a:	442c      	add	r4, r5
 800618c:	2b07      	cmp	r3, #7
 800618e:	9425      	str	r4, [sp, #148]	; 0x94
 8006190:	f8ca 5004 	str.w	r5, [sl, #4]
 8006194:	9324      	str	r3, [sp, #144]	; 0x90
 8006196:	f300 8318 	bgt.w	80067ca <_svfprintf_r+0x112a>
 800619a:	f10a 0a08 	add.w	sl, sl, #8
 800619e:	9b0e      	ldr	r3, [sp, #56]	; 0x38
 80061a0:	2d00      	cmp	r5, #0
 80061a2:	bfa8      	it	ge
 80061a4:	1b5b      	subge	r3, r3, r5
 80061a6:	2b00      	cmp	r3, #0
 80061a8:	461d      	mov	r5, r3
 80061aa:	f300 8180 	bgt.w	80064ae <_svfprintf_r+0xe0e>
 80061ae:	9b1d      	ldr	r3, [sp, #116]	; 0x74
 80061b0:	9a0f      	ldr	r2, [sp, #60]	; 0x3c
 80061b2:	4293      	cmp	r3, r2
 80061b4:	f2c0 81e4 	blt.w	8006580 <_svfprintf_r+0xee0>
 80061b8:	9a03      	ldr	r2, [sp, #12]
 80061ba:	07d0      	lsls	r0, r2, #31
 80061bc:	f100 81e0 	bmi.w	8006580 <_svfprintf_r+0xee0>
 80061c0:	9a0f      	ldr	r2, [sp, #60]	; 0x3c
 80061c2:	980e      	ldr	r0, [sp, #56]	; 0x38
 80061c4:	1ad3      	subs	r3, r2, r3
 80061c6:	1a15      	subs	r5, r2, r0
 80061c8:	429d      	cmp	r5, r3
 80061ca:	bfa8      	it	ge
 80061cc:	461d      	movge	r5, r3
 80061ce:	2d00      	cmp	r5, #0
 80061d0:	dd0f      	ble.n	80061f2 <_svfprintf_r+0xb52>
 80061d2:	9a24      	ldr	r2, [sp, #144]	; 0x90
 80061d4:	990d      	ldr	r1, [sp, #52]	; 0x34
 80061d6:	f8ca 5004 	str.w	r5, [sl, #4]
 80061da:	3201      	adds	r2, #1
 80061dc:	4401      	add	r1, r0
 80061de:	442c      	add	r4, r5
 80061e0:	2a07      	cmp	r2, #7
 80061e2:	f8ca 1000 	str.w	r1, [sl]
 80061e6:	e9cd 2424 	strd	r2, r4, [sp, #144]	; 0x90
 80061ea:	f300 8323 	bgt.w	8006834 <_svfprintf_r+0x1194>
 80061ee:	f10a 0a08 	add.w	sl, sl, #8
 80061f2:	2d00      	cmp	r5, #0
 80061f4:	bfac      	ite	ge
 80061f6:	1b5d      	subge	r5, r3, r5
 80061f8:	461d      	movlt	r5, r3
 80061fa:	2d00      	cmp	r5, #0
 80061fc:	f77f acfe 	ble.w	8005bfc <_svfprintf_r+0x55c>
 8006200:	2d10      	cmp	r5, #16
 8006202:	9a24      	ldr	r2, [sp, #144]	; 0x90
 8006204:	4fc5      	ldr	r7, [pc, #788]	; (800651c <_svfprintf_r+0xe7c>)
 8006206:	f340 81fb 	ble.w	8006600 <_svfprintf_r+0xf60>
 800620a:	4623      	mov	r3, r4
 800620c:	2610      	movs	r6, #16
 800620e:	e9dd 4908 	ldrd	r4, r9, [sp, #32]
 8006212:	e005      	b.n	8006220 <_svfprintf_r+0xb80>
 8006214:	f10a 0a08 	add.w	sl, sl, #8
 8006218:	3d10      	subs	r5, #16
 800621a:	2d10      	cmp	r5, #16
 800621c:	f340 81ef 	ble.w	80065fe <_svfprintf_r+0xf5e>
 8006220:	3201      	adds	r2, #1
 8006222:	3310      	adds	r3, #16
 8006224:	2a07      	cmp	r2, #7
 8006226:	e9cd 2324 	strd	r2, r3, [sp, #144]	; 0x90
 800622a:	e9ca 7600 	strd	r7, r6, [sl]
 800622e:	ddf1      	ble.n	8006214 <_svfprintf_r+0xb74>
 8006230:	aa23      	add	r2, sp, #140	; 0x8c
 8006232:	4621      	mov	r1, r4
 8006234:	4648      	mov	r0, r9
 8006236:	f002 f89b 	bl	8008370 <__ssprint_r>
 800623a:	2800      	cmp	r0, #0
 800623c:	f47f aafd 	bne.w	800583a <_svfprintf_r+0x19a>
 8006240:	e9dd 2324 	ldrd	r2, r3, [sp, #144]	; 0x90
 8006244:	46c2      	mov	sl, r8
 8006246:	e7e7      	b.n	8006218 <_svfprintf_r+0xb78>
 8006248:	9b05      	ldr	r3, [sp, #20]
 800624a:	930a      	str	r3, [sp, #40]	; 0x28
 800624c:	f8cd 8034 	str.w	r8, [sp, #52]	; 0x34
 8006250:	f7ff bbfe 	b.w	8005a50 <_svfprintf_r+0x3b0>
 8006254:	9a05      	ldr	r2, [sp, #20]
 8006256:	2a00      	cmp	r2, #0
 8006258:	f77f af2d 	ble.w	80060b6 <_svfprintf_r+0xa16>
 800625c:	2a10      	cmp	r2, #16
 800625e:	4faf      	ldr	r7, [pc, #700]	; (800651c <_svfprintf_r+0xe7c>)
 8006260:	f340 83ea 	ble.w	8006a38 <_svfprintf_r+0x1398>
 8006264:	4633      	mov	r3, r6
 8006266:	4692      	mov	sl, r2
 8006268:	f04f 0910 	mov.w	r9, #16
 800626c:	4622      	mov	r2, r4
 800626e:	9d0a      	ldr	r5, [sp, #40]	; 0x28
 8006270:	e9dd 6408 	ldrd	r6, r4, [sp, #32]
 8006274:	e007      	b.n	8006286 <_svfprintf_r+0xbe6>
 8006276:	3308      	adds	r3, #8
 8006278:	f1aa 0a10 	sub.w	sl, sl, #16
 800627c:	f1ba 0f10 	cmp.w	sl, #16
 8006280:	f340 81ef 	ble.w	8006662 <_svfprintf_r+0xfc2>
 8006284:	3501      	adds	r5, #1
 8006286:	3210      	adds	r2, #16
 8006288:	2d07      	cmp	r5, #7
 800628a:	e9cd 5224 	strd	r5, r2, [sp, #144]	; 0x90
 800628e:	e9c3 7900 	strd	r7, r9, [r3]
 8006292:	ddf0      	ble.n	8006276 <_svfprintf_r+0xbd6>
 8006294:	aa23      	add	r2, sp, #140	; 0x8c
 8006296:	4631      	mov	r1, r6
 8006298:	4620      	mov	r0, r4
 800629a:	f002 f869 	bl	8008370 <__ssprint_r>
 800629e:	2800      	cmp	r0, #0
 80062a0:	f47f aacb 	bne.w	800583a <_svfprintf_r+0x19a>
 80062a4:	e9dd 5224 	ldrd	r5, r2, [sp, #144]	; 0x90
 80062a8:	4643      	mov	r3, r8
 80062aa:	e7e5      	b.n	8006278 <_svfprintf_r+0xbd8>
 80062ac:	9b0b      	ldr	r3, [sp, #44]	; 0x2c
 80062ae:	06fd      	lsls	r5, r7, #27
 80062b0:	f853 4b04 	ldr.w	r4, [r3], #4
 80062b4:	930b      	str	r3, [sp, #44]	; 0x2c
 80062b6:	d576      	bpl.n	80063a6 <_svfprintf_r+0xd06>
 80062b8:	2500      	movs	r5, #0
 80062ba:	2301      	movs	r3, #1
 80062bc:	f7ff bad9 	b.w	8005872 <_svfprintf_r+0x1d2>
 80062c0:	9a0b      	ldr	r2, [sp, #44]	; 0x2c
 80062c2:	f852 4b04 	ldr.w	r4, [r2], #4
 80062c6:	920b      	str	r2, [sp, #44]	; 0x2c
 80062c8:	f017 0210 	ands.w	r2, r7, #16
 80062cc:	d079      	beq.n	80063c2 <_svfprintf_r+0xd22>
 80062ce:	2500      	movs	r5, #0
 80062d0:	f7ff bacf 	b.w	8005872 <_svfprintf_r+0x1d2>
 80062d4:	9a03      	ldr	r2, [sp, #12]
 80062d6:	07d1      	lsls	r1, r2, #31
 80062d8:	f53f aeb2 	bmi.w	8006040 <_svfprintf_r+0x9a0>
 80062dc:	2201      	movs	r2, #1
 80062de:	990d      	ldr	r1, [sp, #52]	; 0x34
 80062e0:	f8ca 1000 	str.w	r1, [sl]
 80062e4:	2d07      	cmp	r5, #7
 80062e6:	e9cd 5424 	strd	r5, r4, [sp, #144]	; 0x90
 80062ea:	f8ca 2004 	str.w	r2, [sl, #4]
 80062ee:	f300 8117 	bgt.w	8006520 <_svfprintf_r+0xe80>
 80062f2:	f103 0902 	add.w	r9, r3, #2
 80062f6:	f10a 0a10 	add.w	sl, sl, #16
 80062fa:	e6dc      	b.n	80060b6 <_svfprintf_r+0xa16>
 80062fc:	2b30      	cmp	r3, #48	; 0x30
 80062fe:	f000 8139 	beq.w	8006574 <_svfprintf_r+0xed4>
 8006302:	9a0d      	ldr	r2, [sp, #52]	; 0x34
 8006304:	3902      	subs	r1, #2
 8006306:	2330      	movs	r3, #48	; 0x30
 8006308:	f802 3c01 	strb.w	r3, [r2, #-1]
 800630c:	eba8 0301 	sub.w	r3, r8, r1
 8006310:	930a      	str	r3, [sp, #40]	; 0x28
 8006312:	910d      	str	r1, [sp, #52]	; 0x34
 8006314:	f7ff bb9c 	b.w	8005a50 <_svfprintf_r+0x3b0>
 8006318:	9b03      	ldr	r3, [sp, #12]
 800631a:	07de      	lsls	r6, r3, #31
 800631c:	f53f add1 	bmi.w	8005ec2 <_svfprintf_r+0x822>
 8006320:	e46c      	b.n	8005bfc <_svfprintf_r+0x55c>
 8006322:	aa23      	add	r2, sp, #140	; 0x8c
 8006324:	e9dd 1008 	ldrd	r1, r0, [sp, #32]
 8006328:	f002 f822 	bl	8008370 <__ssprint_r>
 800632c:	2800      	cmp	r0, #0
 800632e:	f47f aa84 	bne.w	800583a <_svfprintf_r+0x19a>
 8006332:	9c25      	ldr	r4, [sp, #148]	; 0x94
 8006334:	e497      	b.n	8005c66 <_svfprintf_r+0x5c6>
 8006336:	f8cd 8034 	str.w	r8, [sp, #52]	; 0x34
 800633a:	f7ff bb89 	b.w	8005a50 <_svfprintf_r+0x3b0>
 800633e:	2500      	movs	r5, #0
 8006340:	e4b0      	b.n	8005ca4 <_svfprintf_r+0x604>
 8006342:	17e5      	asrs	r5, r4, #31
 8006344:	2c00      	cmp	r4, #0
 8006346:	f175 0300 	sbcs.w	r3, r5, #0
 800634a:	f6bf ab51 	bge.w	80059f0 <_svfprintf_r+0x350>
 800634e:	9b05      	ldr	r3, [sp, #20]
 8006350:	4264      	negs	r4, r4
 8006352:	f04f 062d 	mov.w	r6, #45	; 0x2d
 8006356:	eb65 0545 	sbc.w	r5, r5, r5, lsl #1
 800635a:	3301      	adds	r3, #1
 800635c:	f88d 606f 	strb.w	r6, [sp, #111]	; 0x6f
 8006360:	f47f ab4c 	bne.w	80059fc <_svfprintf_r+0x35c>
 8006364:	2d00      	cmp	r5, #0
 8006366:	bf08      	it	eq
 8006368:	2c0a      	cmpeq	r4, #10
 800636a:	9703      	str	r7, [sp, #12]
 800636c:	f4ff aeb9 	bcc.w	80060e2 <_svfprintf_r+0xa42>
 8006370:	4647      	mov	r7, r8
 8006372:	4620      	mov	r0, r4
 8006374:	4629      	mov	r1, r5
 8006376:	220a      	movs	r2, #10
 8006378:	2300      	movs	r3, #0
 800637a:	f7fa fbc1 	bl	8000b00 <__aeabi_uldivmod>
 800637e:	3230      	adds	r2, #48	; 0x30
 8006380:	f807 2d01 	strb.w	r2, [r7, #-1]!
 8006384:	4620      	mov	r0, r4
 8006386:	4629      	mov	r1, r5
 8006388:	2300      	movs	r3, #0
 800638a:	220a      	movs	r2, #10
 800638c:	f7fa fbb8 	bl	8000b00 <__aeabi_uldivmod>
 8006390:	4604      	mov	r4, r0
 8006392:	460d      	mov	r5, r1
 8006394:	ea54 0305 	orrs.w	r3, r4, r5
 8006398:	d1eb      	bne.n	8006372 <_svfprintf_r+0xcd2>
 800639a:	eba8 0307 	sub.w	r3, r8, r7
 800639e:	970d      	str	r7, [sp, #52]	; 0x34
 80063a0:	930a      	str	r3, [sp, #40]	; 0x28
 80063a2:	f7ff bb55 	b.w	8005a50 <_svfprintf_r+0x3b0>
 80063a6:	0678      	lsls	r0, r7, #25
 80063a8:	bf48      	it	mi
 80063aa:	b2a4      	uxthmi	r4, r4
 80063ac:	2500      	movs	r5, #0
 80063ae:	2301      	movs	r3, #1
 80063b0:	f7ff ba5f 	b.w	8005872 <_svfprintf_r+0x1d2>
 80063b4:	9a06      	ldr	r2, [sp, #24]
 80063b6:	4610      	mov	r0, r2
 80063b8:	17d1      	asrs	r1, r2, #31
 80063ba:	e9c3 0100 	strd	r0, r1, [r3]
 80063be:	f7ff b997 	b.w	80056f0 <_svfprintf_r+0x50>
 80063c2:	f017 0340 	ands.w	r3, r7, #64	; 0x40
 80063c6:	bf1c      	itt	ne
 80063c8:	4613      	movne	r3, r2
 80063ca:	b2a4      	uxthne	r4, r4
 80063cc:	2500      	movs	r5, #0
 80063ce:	f7ff ba50 	b.w	8005872 <_svfprintf_r+0x1d2>
 80063d2:	e9dd 0110 	ldrd	r0, r1, [sp, #64]	; 0x40
 80063d6:	4602      	mov	r2, r0
 80063d8:	460b      	mov	r3, r1
 80063da:	f7fa ff01 	bl	80011e0 <__aeabi_dcmpun>
 80063de:	2800      	cmp	r0, #0
 80063e0:	f040 8303 	bne.w	80069ea <_svfprintf_r+0x134a>
 80063e4:	9b05      	ldr	r3, [sp, #20]
 80063e6:	1c5a      	adds	r2, r3, #1
 80063e8:	f029 0620 	bic.w	r6, r9, #32
 80063ec:	f000 8244 	beq.w	8006878 <_svfprintf_r+0x11d8>
 80063f0:	2e47      	cmp	r6, #71	; 0x47
 80063f2:	f000 816b 	beq.w	80066cc <_svfprintf_r+0x102c>
 80063f6:	9b11      	ldr	r3, [sp, #68]	; 0x44
 80063f8:	f447 7280 	orr.w	r2, r7, #256	; 0x100
 80063fc:	2b00      	cmp	r3, #0
 80063fe:	9203      	str	r2, [sp, #12]
 8006400:	f2c0 820b 	blt.w	800681a <_svfprintf_r+0x117a>
 8006404:	ed9d 7b10 	vldr	d7, [sp, #64]	; 0x40
 8006408:	ed8d 7b18 	vstr	d7, [sp, #96]	; 0x60
 800640c:	2300      	movs	r3, #0
 800640e:	930c      	str	r3, [sp, #48]	; 0x30
 8006410:	f1b9 0f66 	cmp.w	r9, #102	; 0x66
 8006414:	f000 8220 	beq.w	8006858 <_svfprintf_r+0x11b8>
 8006418:	f1b9 0f46 	cmp.w	r9, #70	; 0x46
 800641c:	f000 825c 	beq.w	80068d8 <_svfprintf_r+0x1238>
 8006420:	2e45      	cmp	r6, #69	; 0x45
 8006422:	f000 8158 	beq.w	80066d6 <_svfprintf_r+0x1036>
 8006426:	aa21      	add	r2, sp, #132	; 0x84
 8006428:	ab1e      	add	r3, sp, #120	; 0x78
 800642a:	e9cd 3200 	strd	r3, r2, [sp]
 800642e:	2102      	movs	r1, #2
 8006430:	ab1d      	add	r3, sp, #116	; 0x74
 8006432:	9a05      	ldr	r2, [sp, #20]
 8006434:	9809      	ldr	r0, [sp, #36]	; 0x24
 8006436:	ed9d 0b18 	vldr	d0, [sp, #96]	; 0x60
 800643a:	f000 fc01 	bl	8006c40 <_dtoa_r>
 800643e:	f1b9 0f67 	cmp.w	r9, #103	; 0x67
 8006442:	900d      	str	r0, [sp, #52]	; 0x34
 8006444:	f040 832f 	bne.w	8006aa6 <_svfprintf_r+0x1406>
 8006448:	07fb      	lsls	r3, r7, #31
 800644a:	f140 8169 	bpl.w	8006720 <_svfprintf_r+0x1080>
 800644e:	9b0d      	ldr	r3, [sp, #52]	; 0x34
 8006450:	9a05      	ldr	r2, [sp, #20]
 8006452:	189c      	adds	r4, r3, r2
 8006454:	2200      	movs	r2, #0
 8006456:	2300      	movs	r3, #0
 8006458:	e9dd 0118 	ldrd	r0, r1, [sp, #96]	; 0x60
 800645c:	f7fa fe8e 	bl	800117c <__aeabi_dcmpeq>
 8006460:	2800      	cmp	r0, #0
 8006462:	f000 81ce 	beq.w	8006802 <_svfprintf_r+0x1162>
 8006466:	4623      	mov	r3, r4
 8006468:	9a0d      	ldr	r2, [sp, #52]	; 0x34
 800646a:	1a9b      	subs	r3, r3, r2
 800646c:	930f      	str	r3, [sp, #60]	; 0x3c
 800646e:	2e47      	cmp	r6, #71	; 0x47
 8006470:	9b1d      	ldr	r3, [sp, #116]	; 0x74
 8006472:	930e      	str	r3, [sp, #56]	; 0x38
 8006474:	f000 815d 	beq.w	8006732 <_svfprintf_r+0x1092>
 8006478:	f1b9 0f66 	cmp.w	r9, #102	; 0x66
 800647c:	f040 8161 	bne.w	8006742 <_svfprintf_r+0x10a2>
 8006480:	9b0e      	ldr	r3, [sp, #56]	; 0x38
 8006482:	2b00      	cmp	r3, #0
 8006484:	9b05      	ldr	r3, [sp, #20]
 8006486:	f340 82d0 	ble.w	8006a2a <_svfprintf_r+0x138a>
 800648a:	2b00      	cmp	r3, #0
 800648c:	f040 82b9 	bne.w	8006a02 <_svfprintf_r+0x1362>
 8006490:	07fd      	lsls	r5, r7, #31
 8006492:	f100 82b6 	bmi.w	8006a02 <_svfprintf_r+0x1362>
 8006496:	9b0e      	ldr	r3, [sp, #56]	; 0x38
 8006498:	9304      	str	r3, [sp, #16]
 800649a:	930a      	str	r3, [sp, #40]	; 0x28
 800649c:	9b0c      	ldr	r3, [sp, #48]	; 0x30
 800649e:	2b00      	cmp	r3, #0
 80064a0:	f040 817a 	bne.w	8006798 <_svfprintf_r+0x10f8>
 80064a4:	9305      	str	r3, [sp, #20]
 80064a6:	f89d 606f 	ldrb.w	r6, [sp, #111]	; 0x6f
 80064aa:	f7ff ba60 	b.w	800596e <_svfprintf_r+0x2ce>
 80064ae:	2b10      	cmp	r3, #16
 80064b0:	9a24      	ldr	r2, [sp, #144]	; 0x90
 80064b2:	4f1a      	ldr	r7, [pc, #104]	; (800651c <_svfprintf_r+0xe7c>)
 80064b4:	f340 80ef 	ble.w	8006696 <_svfprintf_r+0xff6>
 80064b8:	4623      	mov	r3, r4
 80064ba:	2610      	movs	r6, #16
 80064bc:	e9dd 4908 	ldrd	r4, r9, [sp, #32]
 80064c0:	e005      	b.n	80064ce <_svfprintf_r+0xe2e>
 80064c2:	f10a 0a08 	add.w	sl, sl, #8
 80064c6:	3d10      	subs	r5, #16
 80064c8:	2d10      	cmp	r5, #16
 80064ca:	f340 80e3 	ble.w	8006694 <_svfprintf_r+0xff4>
 80064ce:	3201      	adds	r2, #1
 80064d0:	3310      	adds	r3, #16
 80064d2:	2a07      	cmp	r2, #7
 80064d4:	e9cd 2324 	strd	r2, r3, [sp, #144]	; 0x90
 80064d8:	e9ca 7600 	strd	r7, r6, [sl]
 80064dc:	ddf1      	ble.n	80064c2 <_svfprintf_r+0xe22>
 80064de:	aa23      	add	r2, sp, #140	; 0x8c
 80064e0:	4621      	mov	r1, r4
 80064e2:	4648      	mov	r0, r9
 80064e4:	f001 ff44 	bl	8008370 <__ssprint_r>
 80064e8:	2800      	cmp	r0, #0
 80064ea:	f47f a9a6 	bne.w	800583a <_svfprintf_r+0x19a>
 80064ee:	e9dd 2324 	ldrd	r2, r3, [sp, #144]	; 0x90
 80064f2:	46c2      	mov	sl, r8
 80064f4:	e7e7      	b.n	80064c6 <_svfprintf_r+0xe26>
 80064f6:	4264      	negs	r4, r4
 80064f8:	9407      	str	r4, [sp, #28]
 80064fa:	900b      	str	r0, [sp, #44]	; 0x2c
 80064fc:	e49e      	b.n	8005e3c <_svfprintf_r+0x79c>
 80064fe:	2140      	movs	r1, #64	; 0x40
 8006500:	9809      	ldr	r0, [sp, #36]	; 0x24
 8006502:	f7fe fd75 	bl	8004ff0 <_malloc_r>
 8006506:	9b08      	ldr	r3, [sp, #32]
 8006508:	6018      	str	r0, [r3, #0]
 800650a:	6118      	str	r0, [r3, #16]
 800650c:	2800      	cmp	r0, #0
 800650e:	f000 82c2 	beq.w	8006a96 <_svfprintf_r+0x13f6>
 8006512:	9a08      	ldr	r2, [sp, #32]
 8006514:	2340      	movs	r3, #64	; 0x40
 8006516:	6153      	str	r3, [r2, #20]
 8006518:	f7ff b8d9 	b.w	80056ce <_svfprintf_r+0x2e>
 800651c:	08008cd0 	.word	0x08008cd0
 8006520:	aa23      	add	r2, sp, #140	; 0x8c
 8006522:	e9dd 1008 	ldrd	r1, r0, [sp, #32]
 8006526:	f001 ff23 	bl	8008370 <__ssprint_r>
 800652a:	2800      	cmp	r0, #0
 800652c:	f47f a985 	bne.w	800583a <_svfprintf_r+0x19a>
 8006530:	e9dd 3424 	ldrd	r3, r4, [sp, #144]	; 0x90
 8006534:	f10d 0ac8 	add.w	sl, sp, #200	; 0xc8
 8006538:	f103 0901 	add.w	r9, r3, #1
 800653c:	4646      	mov	r6, r8
 800653e:	e5ba      	b.n	80060b6 <_svfprintf_r+0xa16>
 8006540:	aa23      	add	r2, sp, #140	; 0x8c
 8006542:	e9dd 1008 	ldrd	r1, r0, [sp, #32]
 8006546:	f001 ff13 	bl	8008370 <__ssprint_r>
 800654a:	2800      	cmp	r0, #0
 800654c:	f47f a975 	bne.w	800583a <_svfprintf_r+0x19a>
 8006550:	9c25      	ldr	r4, [sp, #148]	; 0x94
 8006552:	46c2      	mov	sl, r8
 8006554:	e4c5      	b.n	8005ee2 <_svfprintf_r+0x842>
 8006556:	9b05      	ldr	r3, [sp, #20]
 8006558:	9e0d      	ldr	r6, [sp, #52]	; 0x34
 800655a:	9605      	str	r6, [sp, #20]
 800655c:	2b06      	cmp	r3, #6
 800655e:	bf28      	it	cs
 8006560:	2306      	movcs	r3, #6
 8006562:	9304      	str	r3, [sp, #16]
 8006564:	930a      	str	r3, [sp, #40]	; 0x28
 8006566:	4bba      	ldr	r3, [pc, #744]	; (8006850 <_svfprintf_r+0x11b0>)
 8006568:	950b      	str	r5, [sp, #44]	; 0x2c
 800656a:	9703      	str	r7, [sp, #12]
 800656c:	960e      	str	r6, [sp, #56]	; 0x38
 800656e:	930d      	str	r3, [sp, #52]	; 0x34
 8006570:	f7ff b9fd 	b.w	800596e <_svfprintf_r+0x2ce>
 8006574:	9b0d      	ldr	r3, [sp, #52]	; 0x34
 8006576:	eba8 0303 	sub.w	r3, r8, r3
 800657a:	930a      	str	r3, [sp, #40]	; 0x28
 800657c:	f7ff ba68 	b.w	8005a50 <_svfprintf_r+0x3b0>
 8006580:	9a24      	ldr	r2, [sp, #144]	; 0x90
 8006582:	9914      	ldr	r1, [sp, #80]	; 0x50
 8006584:	f8ca 1000 	str.w	r1, [sl]
 8006588:	9913      	ldr	r1, [sp, #76]	; 0x4c
 800658a:	f8ca 1004 	str.w	r1, [sl, #4]
 800658e:	3201      	adds	r2, #1
 8006590:	440c      	add	r4, r1
 8006592:	2a07      	cmp	r2, #7
 8006594:	9425      	str	r4, [sp, #148]	; 0x94
 8006596:	9224      	str	r2, [sp, #144]	; 0x90
 8006598:	f300 8127 	bgt.w	80067ea <_svfprintf_r+0x114a>
 800659c:	f10a 0a08 	add.w	sl, sl, #8
 80065a0:	e60e      	b.n	80061c0 <_svfprintf_r+0xb20>
 80065a2:	9a06      	ldr	r2, [sp, #24]
 80065a4:	601a      	str	r2, [r3, #0]
 80065a6:	f7ff b8a3 	b.w	80056f0 <_svfprintf_r+0x50>
 80065aa:	aa23      	add	r2, sp, #140	; 0x8c
 80065ac:	e9dd 1008 	ldrd	r1, r0, [sp, #32]
 80065b0:	f001 fede 	bl	8008370 <__ssprint_r>
 80065b4:	2800      	cmp	r0, #0
 80065b6:	f47f a940 	bne.w	800583a <_svfprintf_r+0x19a>
 80065ba:	f89d 606f 	ldrb.w	r6, [sp, #111]	; 0x6f
 80065be:	9c25      	ldr	r4, [sp, #148]	; 0x94
 80065c0:	46c2      	mov	sl, r8
 80065c2:	f7ff baad 	b.w	8005b20 <_svfprintf_r+0x480>
 80065c6:	aa23      	add	r2, sp, #140	; 0x8c
 80065c8:	e9dd 1008 	ldrd	r1, r0, [sp, #32]
 80065cc:	f001 fed0 	bl	8008370 <__ssprint_r>
 80065d0:	2800      	cmp	r0, #0
 80065d2:	f47f a932 	bne.w	800583a <_svfprintf_r+0x19a>
 80065d6:	e9dd 5424 	ldrd	r5, r4, [sp, #144]	; 0x90
 80065da:	4646      	mov	r6, r8
 80065dc:	e53b      	b.n	8006056 <_svfprintf_r+0x9b6>
 80065de:	aa23      	add	r2, sp, #140	; 0x8c
 80065e0:	e9dd 1008 	ldrd	r1, r0, [sp, #32]
 80065e4:	f001 fec4 	bl	8008370 <__ssprint_r>
 80065e8:	2800      	cmp	r0, #0
 80065ea:	f47f a926 	bne.w	800583a <_svfprintf_r+0x19a>
 80065ee:	e9dd 5424 	ldrd	r5, r4, [sp, #144]	; 0x90
 80065f2:	4646      	mov	r6, r8
 80065f4:	e53b      	b.n	800606e <_svfprintf_r+0x9ce>
 80065f6:	2b01      	cmp	r3, #1
 80065f8:	f47f aa0c 	bne.w	8005a14 <_svfprintf_r+0x374>
 80065fc:	e571      	b.n	80060e2 <_svfprintf_r+0xa42>
 80065fe:	461c      	mov	r4, r3
 8006600:	3201      	adds	r2, #1
 8006602:	442c      	add	r4, r5
 8006604:	2a07      	cmp	r2, #7
 8006606:	e9cd 2424 	strd	r2, r4, [sp, #144]	; 0x90
 800660a:	e9ca 7500 	strd	r7, r5, [sl]
 800660e:	f77f aaf3 	ble.w	8005bf8 <_svfprintf_r+0x558>
 8006612:	e4ff      	b.n	8006014 <_svfprintf_r+0x974>
 8006614:	aa23      	add	r2, sp, #140	; 0x8c
 8006616:	e9dd 1008 	ldrd	r1, r0, [sp, #32]
 800661a:	f001 fea9 	bl	8008370 <__ssprint_r>
 800661e:	2800      	cmp	r0, #0
 8006620:	f47f a90b 	bne.w	800583a <_svfprintf_r+0x19a>
 8006624:	9c25      	ldr	r4, [sp, #148]	; 0x94
 8006626:	46c2      	mov	sl, r8
 8006628:	f7ff ba9d 	b.w	8005b66 <_svfprintf_r+0x4c6>
 800662c:	9a24      	ldr	r2, [sp, #144]	; 0x90
 800662e:	4989      	ldr	r1, [pc, #548]	; (8006854 <_svfprintf_r+0x11b4>)
 8006630:	f8ca 1000 	str.w	r1, [sl]
 8006634:	3201      	adds	r2, #1
 8006636:	3401      	adds	r4, #1
 8006638:	2101      	movs	r1, #1
 800663a:	2a07      	cmp	r2, #7
 800663c:	e9cd 2424 	strd	r2, r4, [sp, #144]	; 0x90
 8006640:	f8ca 1004 	str.w	r1, [sl, #4]
 8006644:	f73f acb8 	bgt.w	8005fb8 <_svfprintf_r+0x918>
 8006648:	f10a 0a08 	add.w	sl, sl, #8
 800664c:	e4bf      	b.n	8005fce <_svfprintf_r+0x92e>
 800664e:	aa23      	add	r2, sp, #140	; 0x8c
 8006650:	e9dd 1008 	ldrd	r1, r0, [sp, #32]
 8006654:	f001 fe8c 	bl	8008370 <__ssprint_r>
 8006658:	2800      	cmp	r0, #0
 800665a:	f47f a8ee 	bne.w	800583a <_svfprintf_r+0x19a>
 800665e:	46c2      	mov	sl, r8
 8006660:	e429      	b.n	8005eb6 <_svfprintf_r+0x816>
 8006662:	4614      	mov	r4, r2
 8006664:	461e      	mov	r6, r3
 8006666:	f8cd a014 	str.w	sl, [sp, #20]
 800666a:	f105 0901 	add.w	r9, r5, #1
 800666e:	f103 0208 	add.w	r2, r3, #8
 8006672:	9b05      	ldr	r3, [sp, #20]
 8006674:	f8cd 9090 	str.w	r9, [sp, #144]	; 0x90
 8006678:	441c      	add	r4, r3
 800667a:	f1b9 0f07 	cmp.w	r9, #7
 800667e:	9425      	str	r4, [sp, #148]	; 0x94
 8006680:	e9c6 7300 	strd	r7, r3, [r6]
 8006684:	f73f af4c 	bgt.w	8006520 <_svfprintf_r+0xe80>
 8006688:	f109 0901 	add.w	r9, r9, #1
 800668c:	f102 0a08 	add.w	sl, r2, #8
 8006690:	4616      	mov	r6, r2
 8006692:	e510      	b.n	80060b6 <_svfprintf_r+0xa16>
 8006694:	461c      	mov	r4, r3
 8006696:	3201      	adds	r2, #1
 8006698:	442c      	add	r4, r5
 800669a:	2a07      	cmp	r2, #7
 800669c:	e9cd 2424 	strd	r2, r4, [sp, #144]	; 0x90
 80066a0:	e9ca 7500 	strd	r7, r5, [sl]
 80066a4:	f300 8127 	bgt.w	80068f6 <_svfprintf_r+0x1256>
 80066a8:	f10a 0a08 	add.w	sl, sl, #8
 80066ac:	e57f      	b.n	80061ae <_svfprintf_r+0xb0e>
 80066ae:	980d      	ldr	r0, [sp, #52]	; 0x34
 80066b0:	9405      	str	r4, [sp, #20]
 80066b2:	f7fa fc4d 	bl	8000f50 <strlen>
 80066b6:	9703      	str	r7, [sp, #12]
 80066b8:	e9cd 050a 	strd	r0, r5, [sp, #40]	; 0x28
 80066bc:	4603      	mov	r3, r0
 80066be:	f7ff b950 	b.w	8005962 <_svfprintf_r+0x2c2>
 80066c2:	9a03      	ldr	r2, [sp, #12]
 80066c4:	07d5      	lsls	r5, r2, #31
 80066c6:	f57f aa99 	bpl.w	8005bfc <_svfprintf_r+0x55c>
 80066ca:	e485      	b.n	8005fd8 <_svfprintf_r+0x938>
 80066cc:	2b00      	cmp	r3, #0
 80066ce:	bf08      	it	eq
 80066d0:	2301      	moveq	r3, #1
 80066d2:	9305      	str	r3, [sp, #20]
 80066d4:	e68f      	b.n	80063f6 <_svfprintf_r+0xd56>
 80066d6:	9b05      	ldr	r3, [sp, #20]
 80066d8:	9809      	ldr	r0, [sp, #36]	; 0x24
 80066da:	1c5d      	adds	r5, r3, #1
 80066dc:	a921      	add	r1, sp, #132	; 0x84
 80066de:	ab1e      	add	r3, sp, #120	; 0x78
 80066e0:	e9cd 3100 	strd	r3, r1, [sp]
 80066e4:	462a      	mov	r2, r5
 80066e6:	ab1d      	add	r3, sp, #116	; 0x74
 80066e8:	2102      	movs	r1, #2
 80066ea:	ed9d 0b18 	vldr	d0, [sp, #96]	; 0x60
 80066ee:	f000 faa7 	bl	8006c40 <_dtoa_r>
 80066f2:	900d      	str	r0, [sp, #52]	; 0x34
 80066f4:	f1b9 0f47 	cmp.w	r9, #71	; 0x47
 80066f8:	f040 81c3 	bne.w	8006a82 <_svfprintf_r+0x13e2>
 80066fc:	07fb      	lsls	r3, r7, #31
 80066fe:	f140 81b9 	bpl.w	8006a74 <_svfprintf_r+0x13d4>
 8006702:	9b0d      	ldr	r3, [sp, #52]	; 0x34
 8006704:	f1b9 0f46 	cmp.w	r9, #70	; 0x46
 8006708:	eb03 0405 	add.w	r4, r3, r5
 800670c:	f47f aea2 	bne.w	8006454 <_svfprintf_r+0xdb4>
 8006710:	9b0d      	ldr	r3, [sp, #52]	; 0x34
 8006712:	781b      	ldrb	r3, [r3, #0]
 8006714:	2b30      	cmp	r3, #48	; 0x30
 8006716:	f000 815a 	beq.w	80069ce <_svfprintf_r+0x132e>
 800671a:	9d1d      	ldr	r5, [sp, #116]	; 0x74
 800671c:	442c      	add	r4, r5
 800671e:	e699      	b.n	8006454 <_svfprintf_r+0xdb4>
 8006720:	9a1d      	ldr	r2, [sp, #116]	; 0x74
 8006722:	9b21      	ldr	r3, [sp, #132]	; 0x84
 8006724:	920e      	str	r2, [sp, #56]	; 0x38
 8006726:	9a0d      	ldr	r2, [sp, #52]	; 0x34
 8006728:	2e47      	cmp	r6, #71	; 0x47
 800672a:	eba3 0302 	sub.w	r3, r3, r2
 800672e:	930f      	str	r3, [sp, #60]	; 0x3c
 8006730:	d107      	bne.n	8006742 <_svfprintf_r+0x10a2>
 8006732:	9b0e      	ldr	r3, [sp, #56]	; 0x38
 8006734:	1cda      	adds	r2, r3, #3
 8006736:	db02      	blt.n	800673e <_svfprintf_r+0x109e>
 8006738:	9a05      	ldr	r2, [sp, #20]
 800673a:	429a      	cmp	r2, r3
 800673c:	da33      	bge.n	80067a6 <_svfprintf_r+0x1106>
 800673e:	f1a9 0902 	sub.w	r9, r9, #2
 8006742:	9b0e      	ldr	r3, [sp, #56]	; 0x38
 8006744:	f88d 907c 	strb.w	r9, [sp, #124]	; 0x7c
 8006748:	3b01      	subs	r3, #1
 800674a:	2b00      	cmp	r3, #0
 800674c:	931d      	str	r3, [sp, #116]	; 0x74
 800674e:	bfbd      	ittte	lt
 8006750:	9b0e      	ldrlt	r3, [sp, #56]	; 0x38
 8006752:	f1c3 0301 	rsblt	r3, r3, #1
 8006756:	222d      	movlt	r2, #45	; 0x2d
 8006758:	222b      	movge	r2, #43	; 0x2b
 800675a:	2b09      	cmp	r3, #9
 800675c:	f88d 207d 	strb.w	r2, [sp, #125]	; 0x7d
 8006760:	f300 8101 	bgt.w	8006966 <_svfprintf_r+0x12c6>
 8006764:	3330      	adds	r3, #48	; 0x30
 8006766:	2230      	movs	r2, #48	; 0x30
 8006768:	f88d 307f 	strb.w	r3, [sp, #127]	; 0x7f
 800676c:	f88d 207e 	strb.w	r2, [sp, #126]	; 0x7e
 8006770:	ab20      	add	r3, sp, #128	; 0x80
 8006772:	aa1f      	add	r2, sp, #124	; 0x7c
 8006774:	1a9b      	subs	r3, r3, r2
 8006776:	9a0f      	ldr	r2, [sp, #60]	; 0x3c
 8006778:	9315      	str	r3, [sp, #84]	; 0x54
 800677a:	2a01      	cmp	r2, #1
 800677c:	4413      	add	r3, r2
 800677e:	930a      	str	r3, [sp, #40]	; 0x28
 8006780:	f340 8149 	ble.w	8006a16 <_svfprintf_r+0x1376>
 8006784:	9b0a      	ldr	r3, [sp, #40]	; 0x28
 8006786:	9a13      	ldr	r2, [sp, #76]	; 0x4c
 8006788:	4413      	add	r3, r2
 800678a:	930a      	str	r3, [sp, #40]	; 0x28
 800678c:	ea23 73e3 	bic.w	r3, r3, r3, asr #31
 8006790:	9304      	str	r3, [sp, #16]
 8006792:	2300      	movs	r3, #0
 8006794:	930e      	str	r3, [sp, #56]	; 0x38
 8006796:	e681      	b.n	800649c <_svfprintf_r+0xdfc>
 8006798:	262d      	movs	r6, #45	; 0x2d
 800679a:	2300      	movs	r3, #0
 800679c:	f88d 606f 	strb.w	r6, [sp, #111]	; 0x6f
 80067a0:	9305      	str	r3, [sp, #20]
 80067a2:	f7ff b8e7 	b.w	8005974 <_svfprintf_r+0x2d4>
 80067a6:	e9dd 310e 	ldrd	r3, r1, [sp, #56]	; 0x38
 80067aa:	428b      	cmp	r3, r1
 80067ac:	f2c0 8080 	blt.w	80068b0 <_svfprintf_r+0x1210>
 80067b0:	07f8      	lsls	r0, r7, #31
 80067b2:	f140 8105 	bpl.w	80069c0 <_svfprintf_r+0x1320>
 80067b6:	9b0e      	ldr	r3, [sp, #56]	; 0x38
 80067b8:	9a13      	ldr	r2, [sp, #76]	; 0x4c
 80067ba:	4413      	add	r3, r2
 80067bc:	930a      	str	r3, [sp, #40]	; 0x28
 80067be:	ea23 73e3 	bic.w	r3, r3, r3, asr #31
 80067c2:	9304      	str	r3, [sp, #16]
 80067c4:	f04f 0967 	mov.w	r9, #103	; 0x67
 80067c8:	e668      	b.n	800649c <_svfprintf_r+0xdfc>
 80067ca:	aa23      	add	r2, sp, #140	; 0x8c
 80067cc:	e9dd 1008 	ldrd	r1, r0, [sp, #32]
 80067d0:	f001 fdce 	bl	8008370 <__ssprint_r>
 80067d4:	2800      	cmp	r0, #0
 80067d6:	f47f a830 	bne.w	800583a <_svfprintf_r+0x19a>
 80067da:	9c25      	ldr	r4, [sp, #148]	; 0x94
 80067dc:	46c2      	mov	sl, r8
 80067de:	e4de      	b.n	800619e <_svfprintf_r+0xafe>
 80067e0:	262d      	movs	r6, #45	; 0x2d
 80067e2:	f88d 606f 	strb.w	r6, [sp, #111]	; 0x6f
 80067e6:	f7ff bad8 	b.w	8005d9a <_svfprintf_r+0x6fa>
 80067ea:	aa23      	add	r2, sp, #140	; 0x8c
 80067ec:	e9dd 1008 	ldrd	r1, r0, [sp, #32]
 80067f0:	f001 fdbe 	bl	8008370 <__ssprint_r>
 80067f4:	2800      	cmp	r0, #0
 80067f6:	f47f a820 	bne.w	800583a <_svfprintf_r+0x19a>
 80067fa:	9b1d      	ldr	r3, [sp, #116]	; 0x74
 80067fc:	9c25      	ldr	r4, [sp, #148]	; 0x94
 80067fe:	46c2      	mov	sl, r8
 8006800:	e4de      	b.n	80061c0 <_svfprintf_r+0xb20>
 8006802:	9b21      	ldr	r3, [sp, #132]	; 0x84
 8006804:	42a3      	cmp	r3, r4
 8006806:	f4bf ae2f 	bcs.w	8006468 <_svfprintf_r+0xdc8>
 800680a:	2130      	movs	r1, #48	; 0x30
 800680c:	1c5a      	adds	r2, r3, #1
 800680e:	9221      	str	r2, [sp, #132]	; 0x84
 8006810:	7019      	strb	r1, [r3, #0]
 8006812:	9b21      	ldr	r3, [sp, #132]	; 0x84
 8006814:	429c      	cmp	r4, r3
 8006816:	d8f9      	bhi.n	800680c <_svfprintf_r+0x116c>
 8006818:	e626      	b.n	8006468 <_svfprintf_r+0xdc8>
 800681a:	e9dd 1210 	ldrd	r1, r2, [sp, #64]	; 0x40
 800681e:	f102 4300 	add.w	r3, r2, #2147483648	; 0x80000000
 8006822:	9319      	str	r3, [sp, #100]	; 0x64
 8006824:	232d      	movs	r3, #45	; 0x2d
 8006826:	9118      	str	r1, [sp, #96]	; 0x60
 8006828:	930c      	str	r3, [sp, #48]	; 0x30
 800682a:	e5f1      	b.n	8006410 <_svfprintf_r+0xd70>
 800682c:	2300      	movs	r3, #0
 800682e:	9305      	str	r3, [sp, #20]
 8006830:	f7fe bf94 	b.w	800575c <_svfprintf_r+0xbc>
 8006834:	aa23      	add	r2, sp, #140	; 0x8c
 8006836:	e9dd 1008 	ldrd	r1, r0, [sp, #32]
 800683a:	f001 fd99 	bl	8008370 <__ssprint_r>
 800683e:	2800      	cmp	r0, #0
 8006840:	f47e affb 	bne.w	800583a <_svfprintf_r+0x19a>
 8006844:	9b1d      	ldr	r3, [sp, #116]	; 0x74
 8006846:	9a0f      	ldr	r2, [sp, #60]	; 0x3c
 8006848:	9c25      	ldr	r4, [sp, #148]	; 0x94
 800684a:	1ad3      	subs	r3, r2, r3
 800684c:	46c2      	mov	sl, r8
 800684e:	e4d0      	b.n	80061f2 <_svfprintf_r+0xb52>
 8006850:	08008cb8 	.word	0x08008cb8
 8006854:	08008a44 	.word	0x08008a44
 8006858:	9d05      	ldr	r5, [sp, #20]
 800685a:	9809      	ldr	r0, [sp, #36]	; 0x24
 800685c:	aa21      	add	r2, sp, #132	; 0x84
 800685e:	ab1e      	add	r3, sp, #120	; 0x78
 8006860:	e9cd 3200 	strd	r3, r2, [sp]
 8006864:	2103      	movs	r1, #3
 8006866:	ab1d      	add	r3, sp, #116	; 0x74
 8006868:	462a      	mov	r2, r5
 800686a:	ed9d 0b18 	vldr	d0, [sp, #96]	; 0x60
 800686e:	f000 f9e7 	bl	8006c40 <_dtoa_r>
 8006872:	900d      	str	r0, [sp, #52]	; 0x34
 8006874:	1944      	adds	r4, r0, r5
 8006876:	e74b      	b.n	8006710 <_svfprintf_r+0x1070>
 8006878:	2306      	movs	r3, #6
 800687a:	9305      	str	r3, [sp, #20]
 800687c:	e5bb      	b.n	80063f6 <_svfprintf_r+0xd56>
 800687e:	9b05      	ldr	r3, [sp, #20]
 8006880:	9304      	str	r3, [sp, #16]
 8006882:	930a      	str	r3, [sp, #40]	; 0x28
 8006884:	9005      	str	r0, [sp, #20]
 8006886:	950b      	str	r5, [sp, #44]	; 0x2c
 8006888:	9703      	str	r7, [sp, #12]
 800688a:	900e      	str	r0, [sp, #56]	; 0x38
 800688c:	f89d 606f 	ldrb.w	r6, [sp, #111]	; 0x6f
 8006890:	f7ff b86d 	b.w	800596e <_svfprintf_r+0x2ce>
 8006894:	aa23      	add	r2, sp, #140	; 0x8c
 8006896:	e9dd 1008 	ldrd	r1, r0, [sp, #32]
 800689a:	f001 fd69 	bl	8008370 <__ssprint_r>
 800689e:	2800      	cmp	r0, #0
 80068a0:	f47e afcb 	bne.w	800583a <_svfprintf_r+0x19a>
 80068a4:	9b1d      	ldr	r3, [sp, #116]	; 0x74
 80068a6:	e9dd 2424 	ldrd	r2, r4, [sp, #144]	; 0x90
 80068aa:	46c2      	mov	sl, r8
 80068ac:	f7ff bba4 	b.w	8005ff8 <_svfprintf_r+0x958>
 80068b0:	9a13      	ldr	r2, [sp, #76]	; 0x4c
 80068b2:	9b0f      	ldr	r3, [sp, #60]	; 0x3c
 80068b4:	4413      	add	r3, r2
 80068b6:	9a0e      	ldr	r2, [sp, #56]	; 0x38
 80068b8:	930a      	str	r3, [sp, #40]	; 0x28
 80068ba:	2a00      	cmp	r2, #0
 80068bc:	dc06      	bgt.n	80068cc <_svfprintf_r+0x122c>
 80068be:	9b0e      	ldr	r3, [sp, #56]	; 0x38
 80068c0:	9a0a      	ldr	r2, [sp, #40]	; 0x28
 80068c2:	f1c3 0301 	rsb	r3, r3, #1
 80068c6:	441a      	add	r2, r3
 80068c8:	4613      	mov	r3, r2
 80068ca:	920a      	str	r2, [sp, #40]	; 0x28
 80068cc:	ea23 73e3 	bic.w	r3, r3, r3, asr #31
 80068d0:	9304      	str	r3, [sp, #16]
 80068d2:	f04f 0967 	mov.w	r9, #103	; 0x67
 80068d6:	e5e1      	b.n	800649c <_svfprintf_r+0xdfc>
 80068d8:	9d05      	ldr	r5, [sp, #20]
 80068da:	9809      	ldr	r0, [sp, #36]	; 0x24
 80068dc:	aa21      	add	r2, sp, #132	; 0x84
 80068de:	ab1e      	add	r3, sp, #120	; 0x78
 80068e0:	e9cd 3200 	strd	r3, r2, [sp]
 80068e4:	2103      	movs	r1, #3
 80068e6:	ab1d      	add	r3, sp, #116	; 0x74
 80068e8:	462a      	mov	r2, r5
 80068ea:	ed9d 0b18 	vldr	d0, [sp, #96]	; 0x60
 80068ee:	f000 f9a7 	bl	8006c40 <_dtoa_r>
 80068f2:	900d      	str	r0, [sp, #52]	; 0x34
 80068f4:	e705      	b.n	8006702 <_svfprintf_r+0x1062>
 80068f6:	aa23      	add	r2, sp, #140	; 0x8c
 80068f8:	e9dd 1008 	ldrd	r1, r0, [sp, #32]
 80068fc:	f001 fd38 	bl	8008370 <__ssprint_r>
 8006900:	2800      	cmp	r0, #0
 8006902:	f47e af9a 	bne.w	800583a <_svfprintf_r+0x19a>
 8006906:	9c25      	ldr	r4, [sp, #148]	; 0x94
 8006908:	46c2      	mov	sl, r8
 800690a:	e450      	b.n	80061ae <_svfprintf_r+0xb0e>
 800690c:	425d      	negs	r5, r3
 800690e:	3310      	adds	r3, #16
 8006910:	4f72      	ldr	r7, [pc, #456]	; (8006adc <_svfprintf_r+0x143c>)
 8006912:	da1c      	bge.n	800694e <_svfprintf_r+0x12ae>
 8006914:	2610      	movs	r6, #16
 8006916:	f8dd 9024 	ldr.w	r9, [sp, #36]	; 0x24
 800691a:	e004      	b.n	8006926 <_svfprintf_r+0x1286>
 800691c:	f10a 0a08 	add.w	sl, sl, #8
 8006920:	3d10      	subs	r5, #16
 8006922:	2d10      	cmp	r5, #16
 8006924:	dd13      	ble.n	800694e <_svfprintf_r+0x12ae>
 8006926:	3201      	adds	r2, #1
 8006928:	3410      	adds	r4, #16
 800692a:	2a07      	cmp	r2, #7
 800692c:	e9cd 2424 	strd	r2, r4, [sp, #144]	; 0x90
 8006930:	e9ca 7600 	strd	r7, r6, [sl]
 8006934:	ddf2      	ble.n	800691c <_svfprintf_r+0x127c>
 8006936:	aa23      	add	r2, sp, #140	; 0x8c
 8006938:	9908      	ldr	r1, [sp, #32]
 800693a:	4648      	mov	r0, r9
 800693c:	f001 fd18 	bl	8008370 <__ssprint_r>
 8006940:	2800      	cmp	r0, #0
 8006942:	f47e af7a 	bne.w	800583a <_svfprintf_r+0x19a>
 8006946:	e9dd 2424 	ldrd	r2, r4, [sp, #144]	; 0x90
 800694a:	46c2      	mov	sl, r8
 800694c:	e7e8      	b.n	8006920 <_svfprintf_r+0x1280>
 800694e:	3201      	adds	r2, #1
 8006950:	442c      	add	r4, r5
 8006952:	2a07      	cmp	r2, #7
 8006954:	e9cd 2424 	strd	r2, r4, [sp, #144]	; 0x90
 8006958:	e9ca 7500 	strd	r7, r5, [sl]
 800695c:	dc7d      	bgt.n	8006a5a <_svfprintf_r+0x13ba>
 800695e:	f10a 0a08 	add.w	sl, sl, #8
 8006962:	f7ff bb4c 	b.w	8005ffe <_svfprintf_r+0x95e>
 8006966:	f10d 048b 	add.w	r4, sp, #139	; 0x8b
 800696a:	4620      	mov	r0, r4
 800696c:	4d5c      	ldr	r5, [pc, #368]	; (8006ae0 <_svfprintf_r+0x1440>)
 800696e:	e000      	b.n	8006972 <_svfprintf_r+0x12d2>
 8006970:	4610      	mov	r0, r2
 8006972:	fba5 1203 	umull	r1, r2, r5, r3
 8006976:	08d2      	lsrs	r2, r2, #3
 8006978:	eb02 0182 	add.w	r1, r2, r2, lsl #2
 800697c:	eba3 0341 	sub.w	r3, r3, r1, lsl #1
 8006980:	f103 0130 	add.w	r1, r3, #48	; 0x30
 8006984:	4613      	mov	r3, r2
 8006986:	2b09      	cmp	r3, #9
 8006988:	f800 1c01 	strb.w	r1, [r0, #-1]
 800698c:	f100 32ff 	add.w	r2, r0, #4294967295
 8006990:	dcee      	bgt.n	8006970 <_svfprintf_r+0x12d0>
 8006992:	3330      	adds	r3, #48	; 0x30
 8006994:	3802      	subs	r0, #2
 8006996:	b2d9      	uxtb	r1, r3
 8006998:	4284      	cmp	r4, r0
 800699a:	f802 1c01 	strb.w	r1, [r2, #-1]
 800699e:	d973      	bls.n	8006a88 <_svfprintf_r+0x13e8>
 80069a0:	f10d 007e 	add.w	r0, sp, #126	; 0x7e
 80069a4:	4613      	mov	r3, r2
 80069a6:	e001      	b.n	80069ac <_svfprintf_r+0x130c>
 80069a8:	f813 1b01 	ldrb.w	r1, [r3], #1
 80069ac:	f800 1b01 	strb.w	r1, [r0], #1
 80069b0:	429c      	cmp	r4, r3
 80069b2:	d1f9      	bne.n	80069a8 <_svfprintf_r+0x1308>
 80069b4:	ab23      	add	r3, sp, #140	; 0x8c
 80069b6:	1a9b      	subs	r3, r3, r2
 80069b8:	f10d 027e 	add.w	r2, sp, #126	; 0x7e
 80069bc:	4413      	add	r3, r2
 80069be:	e6d8      	b.n	8006772 <_svfprintf_r+0x10d2>
 80069c0:	ea23 72e3 	bic.w	r2, r3, r3, asr #31
 80069c4:	9204      	str	r2, [sp, #16]
 80069c6:	930a      	str	r3, [sp, #40]	; 0x28
 80069c8:	f04f 0967 	mov.w	r9, #103	; 0x67
 80069cc:	e566      	b.n	800649c <_svfprintf_r+0xdfc>
 80069ce:	2200      	movs	r2, #0
 80069d0:	2300      	movs	r3, #0
 80069d2:	e9dd 0118 	ldrd	r0, r1, [sp, #96]	; 0x60
 80069d6:	f7fa fbd1 	bl	800117c <__aeabi_dcmpeq>
 80069da:	2800      	cmp	r0, #0
 80069dc:	f47f ae9d 	bne.w	800671a <_svfprintf_r+0x107a>
 80069e0:	f1c5 0501 	rsb	r5, r5, #1
 80069e4:	951d      	str	r5, [sp, #116]	; 0x74
 80069e6:	442c      	add	r4, r5
 80069e8:	e534      	b.n	8006454 <_svfprintf_r+0xdb4>
 80069ea:	9b11      	ldr	r3, [sp, #68]	; 0x44
 80069ec:	4a3d      	ldr	r2, [pc, #244]	; (8006ae4 <_svfprintf_r+0x1444>)
 80069ee:	2b00      	cmp	r3, #0
 80069f0:	bfb6      	itet	lt
 80069f2:	262d      	movlt	r6, #45	; 0x2d
 80069f4:	f89d 606f 	ldrbge.w	r6, [sp, #111]	; 0x6f
 80069f8:	f88d 606f 	strblt.w	r6, [sp, #111]	; 0x6f
 80069fc:	4b3a      	ldr	r3, [pc, #232]	; (8006ae8 <_svfprintf_r+0x1448>)
 80069fe:	f7ff b9ce 	b.w	8005d9e <_svfprintf_r+0x6fe>
 8006a02:	9b0e      	ldr	r3, [sp, #56]	; 0x38
 8006a04:	9a13      	ldr	r2, [sp, #76]	; 0x4c
 8006a06:	4413      	add	r3, r2
 8006a08:	9a05      	ldr	r2, [sp, #20]
 8006a0a:	441a      	add	r2, r3
 8006a0c:	ea22 73e2 	bic.w	r3, r2, r2, asr #31
 8006a10:	920a      	str	r2, [sp, #40]	; 0x28
 8006a12:	9304      	str	r3, [sp, #16]
 8006a14:	e542      	b.n	800649c <_svfprintf_r+0xdfc>
 8006a16:	f017 0301 	ands.w	r3, r7, #1
 8006a1a:	930e      	str	r3, [sp, #56]	; 0x38
 8006a1c:	f47f aeb2 	bne.w	8006784 <_svfprintf_r+0x10e4>
 8006a20:	9b0a      	ldr	r3, [sp, #40]	; 0x28
 8006a22:	ea23 73e3 	bic.w	r3, r3, r3, asr #31
 8006a26:	9304      	str	r3, [sp, #16]
 8006a28:	e538      	b.n	800649c <_svfprintf_r+0xdfc>
 8006a2a:	b93b      	cbnz	r3, 8006a3c <_svfprintf_r+0x139c>
 8006a2c:	07fc      	lsls	r4, r7, #31
 8006a2e:	d405      	bmi.n	8006a3c <_svfprintf_r+0x139c>
 8006a30:	2301      	movs	r3, #1
 8006a32:	9304      	str	r3, [sp, #16]
 8006a34:	930a      	str	r3, [sp, #40]	; 0x28
 8006a36:	e531      	b.n	800649c <_svfprintf_r+0xdfc>
 8006a38:	4652      	mov	r2, sl
 8006a3a:	e61a      	b.n	8006672 <_svfprintf_r+0xfd2>
 8006a3c:	9b13      	ldr	r3, [sp, #76]	; 0x4c
 8006a3e:	3301      	adds	r3, #1
 8006a40:	e7e2      	b.n	8006a08 <_svfprintf_r+0x1368>
 8006a42:	9d0b      	ldr	r5, [sp, #44]	; 0x2c
 8006a44:	f89b 3001 	ldrb.w	r3, [fp, #1]
 8006a48:	682c      	ldr	r4, [r5, #0]
 8006a4a:	4683      	mov	fp, r0
 8006a4c:	ea44 74e4 	orr.w	r4, r4, r4, asr #31
 8006a50:	1d28      	adds	r0, r5, #4
 8006a52:	9405      	str	r4, [sp, #20]
 8006a54:	900b      	str	r0, [sp, #44]	; 0x2c
 8006a56:	f7fe be7e 	b.w	8005756 <_svfprintf_r+0xb6>
 8006a5a:	aa23      	add	r2, sp, #140	; 0x8c
 8006a5c:	e9dd 1008 	ldrd	r1, r0, [sp, #32]
 8006a60:	f001 fc86 	bl	8008370 <__ssprint_r>
 8006a64:	2800      	cmp	r0, #0
 8006a66:	f47e aee8 	bne.w	800583a <_svfprintf_r+0x19a>
 8006a6a:	e9dd 2424 	ldrd	r2, r4, [sp, #144]	; 0x90
 8006a6e:	46c2      	mov	sl, r8
 8006a70:	f7ff bac5 	b.w	8005ffe <_svfprintf_r+0x95e>
 8006a74:	9a1d      	ldr	r2, [sp, #116]	; 0x74
 8006a76:	9b21      	ldr	r3, [sp, #132]	; 0x84
 8006a78:	920e      	str	r2, [sp, #56]	; 0x38
 8006a7a:	9a0d      	ldr	r2, [sp, #52]	; 0x34
 8006a7c:	1a9b      	subs	r3, r3, r2
 8006a7e:	930f      	str	r3, [sp, #60]	; 0x3c
 8006a80:	e657      	b.n	8006732 <_svfprintf_r+0x1092>
 8006a82:	9b0d      	ldr	r3, [sp, #52]	; 0x34
 8006a84:	195c      	adds	r4, r3, r5
 8006a86:	e4e5      	b.n	8006454 <_svfprintf_r+0xdb4>
 8006a88:	f10d 037e 	add.w	r3, sp, #126	; 0x7e
 8006a8c:	e671      	b.n	8006772 <_svfprintf_r+0x10d2>
 8006a8e:	f88d 106f 	strb.w	r1, [sp, #111]	; 0x6f
 8006a92:	f7fe bf9c 	b.w	80059ce <_svfprintf_r+0x32e>
 8006a96:	9a09      	ldr	r2, [sp, #36]	; 0x24
 8006a98:	230c      	movs	r3, #12
 8006a9a:	6013      	str	r3, [r2, #0]
 8006a9c:	f04f 33ff 	mov.w	r3, #4294967295
 8006aa0:	9306      	str	r3, [sp, #24]
 8006aa2:	f7fe bed3 	b.w	800584c <_svfprintf_r+0x1ac>
 8006aa6:	9d05      	ldr	r5, [sp, #20]
 8006aa8:	e624      	b.n	80066f4 <_svfprintf_r+0x1054>
 8006aaa:	f88d 106f 	strb.w	r1, [sp, #111]	; 0x6f
 8006aae:	f7ff b8ec 	b.w	8005c8a <_svfprintf_r+0x5ea>
 8006ab2:	f88d 106f 	strb.w	r1, [sp, #111]	; 0x6f
 8006ab6:	f7ff b93f 	b.w	8005d38 <_svfprintf_r+0x698>
 8006aba:	f88d 106f 	strb.w	r1, [sp, #111]	; 0x6f
 8006abe:	f7ff b98e 	b.w	8005dde <_svfprintf_r+0x73e>
 8006ac2:	f88d 106f 	strb.w	r1, [sp, #111]	; 0x6f
 8006ac6:	f7ff b9c6 	b.w	8005e56 <_svfprintf_r+0x7b6>
 8006aca:	f88d 106f 	strb.w	r1, [sp, #111]	; 0x6f
 8006ace:	f7fe bf58 	b.w	8005982 <_svfprintf_r+0x2e2>
 8006ad2:	f88d 106f 	strb.w	r1, [sp, #111]	; 0x6f
 8006ad6:	f7ff b916 	b.w	8005d06 <_svfprintf_r+0x666>
 8006ada:	bf00      	nop
 8006adc:	08008cd0 	.word	0x08008cd0
 8006ae0:	cccccccd 	.word	0xcccccccd
 8006ae4:	08008c8c 	.word	0x08008c8c
 8006ae8:	08008c88 	.word	0x08008c88
 8006aec:	00000000 	.word	0x00000000

08006af0 <__ascii_wctomb>:
 8006af0:	b121      	cbz	r1, 8006afc <__ascii_wctomb+0xc>
 8006af2:	2aff      	cmp	r2, #255	; 0xff
 8006af4:	d804      	bhi.n	8006b00 <__ascii_wctomb+0x10>
 8006af6:	700a      	strb	r2, [r1, #0]
 8006af8:	2001      	movs	r0, #1
 8006afa:	4770      	bx	lr
 8006afc:	4608      	mov	r0, r1
 8006afe:	4770      	bx	lr
 8006b00:	238a      	movs	r3, #138	; 0x8a
 8006b02:	6003      	str	r3, [r0, #0]
 8006b04:	f04f 30ff 	mov.w	r0, #4294967295
 8006b08:	4770      	bx	lr
 8006b0a:	bf00      	nop
 8006b0c:	0000      	movs	r0, r0
	...

08006b10 <quorem>:
 8006b10:	e92d 4ff0 	stmdb	sp!, {r4, r5, r6, r7, r8, r9, sl, fp, lr}
 8006b14:	6903      	ldr	r3, [r0, #16]
 8006b16:	690f      	ldr	r7, [r1, #16]
 8006b18:	42bb      	cmp	r3, r7
 8006b1a:	b083      	sub	sp, #12
 8006b1c:	f2c0 8086 	blt.w	8006c2c <quorem+0x11c>
 8006b20:	3f01      	subs	r7, #1
 8006b22:	f101 0914 	add.w	r9, r1, #20
 8006b26:	f100 0a14 	add.w	sl, r0, #20
 8006b2a:	f859 2027 	ldr.w	r2, [r9, r7, lsl #2]
 8006b2e:	f85a 3027 	ldr.w	r3, [sl, r7, lsl #2]
 8006b32:	00bc      	lsls	r4, r7, #2
 8006b34:	3201      	adds	r2, #1
 8006b36:	fbb3 f8f2 	udiv	r8, r3, r2
 8006b3a:	eb0a 0304 	add.w	r3, sl, r4
 8006b3e:	9400      	str	r4, [sp, #0]
 8006b40:	eb09 0b04 	add.w	fp, r9, r4
 8006b44:	9301      	str	r3, [sp, #4]
 8006b46:	f1b8 0f00 	cmp.w	r8, #0
 8006b4a:	d038      	beq.n	8006bbe <quorem+0xae>
 8006b4c:	2500      	movs	r5, #0
 8006b4e:	462e      	mov	r6, r5
 8006b50:	46ce      	mov	lr, r9
 8006b52:	46d4      	mov	ip, sl
 8006b54:	f85e 4b04 	ldr.w	r4, [lr], #4
 8006b58:	f8dc 3000 	ldr.w	r3, [ip]
 8006b5c:	b2a2      	uxth	r2, r4
 8006b5e:	fb08 5502 	mla	r5, r8, r2, r5
 8006b62:	0c22      	lsrs	r2, r4, #16
 8006b64:	0c2c      	lsrs	r4, r5, #16
 8006b66:	fb08 4202 	mla	r2, r8, r2, r4
 8006b6a:	b2ad      	uxth	r5, r5
 8006b6c:	1b75      	subs	r5, r6, r5
 8006b6e:	b296      	uxth	r6, r2
 8006b70:	ebc6 4613 	rsb	r6, r6, r3, lsr #16
 8006b74:	fa15 f383 	uxtah	r3, r5, r3
 8006b78:	eb06 4623 	add.w	r6, r6, r3, asr #16
 8006b7c:	b29b      	uxth	r3, r3
 8006b7e:	ea43 4306 	orr.w	r3, r3, r6, lsl #16
 8006b82:	45f3      	cmp	fp, lr
 8006b84:	ea4f 4512 	mov.w	r5, r2, lsr #16
 8006b88:	f84c 3b04 	str.w	r3, [ip], #4
 8006b8c:	ea4f 4626 	mov.w	r6, r6, asr #16
 8006b90:	d2e0      	bcs.n	8006b54 <quorem+0x44>
 8006b92:	9b00      	ldr	r3, [sp, #0]
 8006b94:	f85a 3003 	ldr.w	r3, [sl, r3]
 8006b98:	b98b      	cbnz	r3, 8006bbe <quorem+0xae>
 8006b9a:	9a01      	ldr	r2, [sp, #4]
 8006b9c:	1f13      	subs	r3, r2, #4
 8006b9e:	459a      	cmp	sl, r3
 8006ba0:	d20c      	bcs.n	8006bbc <quorem+0xac>
 8006ba2:	f852 3c04 	ldr.w	r3, [r2, #-4]
 8006ba6:	b94b      	cbnz	r3, 8006bbc <quorem+0xac>
 8006ba8:	f1a2 0308 	sub.w	r3, r2, #8
 8006bac:	e002      	b.n	8006bb4 <quorem+0xa4>
 8006bae:	681a      	ldr	r2, [r3, #0]
 8006bb0:	3b04      	subs	r3, #4
 8006bb2:	b91a      	cbnz	r2, 8006bbc <quorem+0xac>
 8006bb4:	459a      	cmp	sl, r3
 8006bb6:	f107 37ff 	add.w	r7, r7, #4294967295
 8006bba:	d3f8      	bcc.n	8006bae <quorem+0x9e>
 8006bbc:	6107      	str	r7, [r0, #16]
 8006bbe:	4604      	mov	r4, r0
 8006bc0:	f001 fad6 	bl	8008170 <__mcmp>
 8006bc4:	2800      	cmp	r0, #0
 8006bc6:	db2d      	blt.n	8006c24 <quorem+0x114>
 8006bc8:	f108 0801 	add.w	r8, r8, #1
 8006bcc:	4655      	mov	r5, sl
 8006bce:	2300      	movs	r3, #0
 8006bd0:	f859 1b04 	ldr.w	r1, [r9], #4
 8006bd4:	6828      	ldr	r0, [r5, #0]
 8006bd6:	b28a      	uxth	r2, r1
 8006bd8:	1a9a      	subs	r2, r3, r2
 8006bda:	0c0b      	lsrs	r3, r1, #16
 8006bdc:	fa12 f280 	uxtah	r2, r2, r0
 8006be0:	ebc3 4310 	rsb	r3, r3, r0, lsr #16
 8006be4:	eb03 4322 	add.w	r3, r3, r2, asr #16
 8006be8:	b292      	uxth	r2, r2
 8006bea:	ea42 4203 	orr.w	r2, r2, r3, lsl #16
 8006bee:	45cb      	cmp	fp, r9
 8006bf0:	f845 2b04 	str.w	r2, [r5], #4
 8006bf4:	ea4f 4323 	mov.w	r3, r3, asr #16
 8006bf8:	d2ea      	bcs.n	8006bd0 <quorem+0xc0>
 8006bfa:	f85a 2027 	ldr.w	r2, [sl, r7, lsl #2]
 8006bfe:	eb0a 0387 	add.w	r3, sl, r7, lsl #2
 8006c02:	b97a      	cbnz	r2, 8006c24 <quorem+0x114>
 8006c04:	1f1a      	subs	r2, r3, #4
 8006c06:	4592      	cmp	sl, r2
 8006c08:	d20b      	bcs.n	8006c22 <quorem+0x112>
 8006c0a:	f853 2c04 	ldr.w	r2, [r3, #-4]
 8006c0e:	b942      	cbnz	r2, 8006c22 <quorem+0x112>
 8006c10:	3b08      	subs	r3, #8
 8006c12:	e002      	b.n	8006c1a <quorem+0x10a>
 8006c14:	681a      	ldr	r2, [r3, #0]
 8006c16:	3b04      	subs	r3, #4
 8006c18:	b91a      	cbnz	r2, 8006c22 <quorem+0x112>
 8006c1a:	459a      	cmp	sl, r3
 8006c1c:	f107 37ff 	add.w	r7, r7, #4294967295
 8006c20:	d3f8      	bcc.n	8006c14 <quorem+0x104>
 8006c22:	6127      	str	r7, [r4, #16]
 8006c24:	4640      	mov	r0, r8
 8006c26:	b003      	add	sp, #12
 8006c28:	e8bd 8ff0 	ldmia.w	sp!, {r4, r5, r6, r7, r8, r9, sl, fp, pc}
 8006c2c:	2000      	movs	r0, #0
 8006c2e:	b003      	add	sp, #12
 8006c30:	e8bd 8ff0 	ldmia.w	sp!, {r4, r5, r6, r7, r8, r9, sl, fp, pc}
	...

08006c40 <_dtoa_r>:
 8006c40:	e92d 4ff0 	stmdb	sp!, {r4, r5, r6, r7, r8, r9, sl, fp, lr}
 8006c44:	ec55 4b10 	vmov	r4, r5, d0
 8006c48:	b09b      	sub	sp, #108	; 0x6c
 8006c4a:	6c06      	ldr	r6, [r0, #64]	; 0x40
 8006c4c:	9102      	str	r1, [sp, #8]
 8006c4e:	4681      	mov	r9, r0
 8006c50:	9207      	str	r2, [sp, #28]
 8006c52:	9305      	str	r3, [sp, #20]
 8006c54:	e9cd 4500 	strd	r4, r5, [sp]
 8006c58:	b156      	cbz	r6, 8006c70 <_dtoa_r+0x30>
 8006c5a:	6c42      	ldr	r2, [r0, #68]	; 0x44
 8006c5c:	6072      	str	r2, [r6, #4]
 8006c5e:	2301      	movs	r3, #1
 8006c60:	4093      	lsls	r3, r2
 8006c62:	60b3      	str	r3, [r6, #8]
 8006c64:	4631      	mov	r1, r6
 8006c66:	f001 f883 	bl	8007d70 <_Bfree>
 8006c6a:	2300      	movs	r3, #0
 8006c6c:	f8c9 3040 	str.w	r3, [r9, #64]	; 0x40
 8006c70:	f1b5 0800 	subs.w	r8, r5, #0
 8006c74:	9a24      	ldr	r2, [sp, #144]	; 0x90
 8006c76:	bfb4      	ite	lt
 8006c78:	2301      	movlt	r3, #1
 8006c7a:	2300      	movge	r3, #0
 8006c7c:	6013      	str	r3, [r2, #0]
 8006c7e:	4b76      	ldr	r3, [pc, #472]	; (8006e58 <_dtoa_r+0x218>)
 8006c80:	bfbc      	itt	lt
 8006c82:	f028 4800 	biclt.w	r8, r8, #2147483648	; 0x80000000
 8006c86:	f8cd 8004 	strlt.w	r8, [sp, #4]
 8006c8a:	ea33 0308 	bics.w	r3, r3, r8
 8006c8e:	f000 80a6 	beq.w	8006dde <_dtoa_r+0x19e>
 8006c92:	e9dd 6700 	ldrd	r6, r7, [sp]
 8006c96:	2200      	movs	r2, #0
 8006c98:	2300      	movs	r3, #0
 8006c9a:	4630      	mov	r0, r6
 8006c9c:	4639      	mov	r1, r7
 8006c9e:	f7fa fa6d 	bl	800117c <__aeabi_dcmpeq>
 8006ca2:	4605      	mov	r5, r0
 8006ca4:	b178      	cbz	r0, 8006cc6 <_dtoa_r+0x86>
 8006ca6:	9a05      	ldr	r2, [sp, #20]
 8006ca8:	2301      	movs	r3, #1
 8006caa:	6013      	str	r3, [r2, #0]
 8006cac:	9b25      	ldr	r3, [sp, #148]	; 0x94
 8006cae:	2b00      	cmp	r3, #0
 8006cb0:	f000 80c0 	beq.w	8006e34 <_dtoa_r+0x1f4>
 8006cb4:	4b69      	ldr	r3, [pc, #420]	; (8006e5c <_dtoa_r+0x21c>)
 8006cb6:	9a25      	ldr	r2, [sp, #148]	; 0x94
 8006cb8:	f103 3bff 	add.w	fp, r3, #4294967295
 8006cbc:	6013      	str	r3, [r2, #0]
 8006cbe:	4658      	mov	r0, fp
 8006cc0:	b01b      	add	sp, #108	; 0x6c
 8006cc2:	e8bd 8ff0 	ldmia.w	sp!, {r4, r5, r6, r7, r8, r9, sl, fp, pc}
 8006cc6:	aa18      	add	r2, sp, #96	; 0x60
 8006cc8:	a919      	add	r1, sp, #100	; 0x64
 8006cca:	ec47 6b10 	vmov	d0, r6, r7
 8006cce:	4648      	mov	r0, r9
 8006cd0:	f001 fae6 	bl	80082a0 <__d2b>
 8006cd4:	ea5f 5418 	movs.w	r4, r8, lsr #20
 8006cd8:	4682      	mov	sl, r0
 8006cda:	f040 80a0 	bne.w	8006e1e <_dtoa_r+0x1de>
 8006cde:	e9dd 5418 	ldrd	r5, r4, [sp, #96]	; 0x60
 8006ce2:	442c      	add	r4, r5
 8006ce4:	f204 4332 	addw	r3, r4, #1074	; 0x432
 8006ce8:	2b20      	cmp	r3, #32
 8006cea:	f340 842e 	ble.w	800754a <_dtoa_r+0x90a>
 8006cee:	f1c3 0340 	rsb	r3, r3, #64	; 0x40
 8006cf2:	fa08 f803 	lsl.w	r8, r8, r3
 8006cf6:	9b00      	ldr	r3, [sp, #0]
 8006cf8:	f204 4012 	addw	r0, r4, #1042	; 0x412
 8006cfc:	fa23 f000 	lsr.w	r0, r3, r0
 8006d00:	ea48 0000 	orr.w	r0, r8, r0
 8006d04:	f7f9 fc3e 	bl	8000584 <__aeabi_ui2d>
 8006d08:	2301      	movs	r3, #1
 8006d0a:	4606      	mov	r6, r0
 8006d0c:	3c01      	subs	r4, #1
 8006d0e:	f1a1 77f8 	sub.w	r7, r1, #32505856	; 0x1f00000
 8006d12:	930f      	str	r3, [sp, #60]	; 0x3c
 8006d14:	4630      	mov	r0, r6
 8006d16:	4639      	mov	r1, r7
 8006d18:	2200      	movs	r2, #0
 8006d1a:	4b51      	ldr	r3, [pc, #324]	; (8006e60 <_dtoa_r+0x220>)
 8006d1c:	f7f9 faf4 	bl	8000308 <__aeabi_dsub>
 8006d20:	a347      	add	r3, pc, #284	; (adr r3, 8006e40 <_dtoa_r+0x200>)
 8006d22:	e9d3 2300 	ldrd	r2, r3, [r3]
 8006d26:	f7f9 fcab 	bl	8000680 <__aeabi_dmul>
 8006d2a:	a347      	add	r3, pc, #284	; (adr r3, 8006e48 <_dtoa_r+0x208>)
 8006d2c:	e9d3 2300 	ldrd	r2, r3, [r3]
 8006d30:	f7f9 faec 	bl	800030c <__adddf3>
 8006d34:	4606      	mov	r6, r0
 8006d36:	4620      	mov	r0, r4
 8006d38:	460f      	mov	r7, r1
 8006d3a:	f7f9 fc33 	bl	80005a4 <__aeabi_i2d>
 8006d3e:	a344      	add	r3, pc, #272	; (adr r3, 8006e50 <_dtoa_r+0x210>)
 8006d40:	e9d3 2300 	ldrd	r2, r3, [r3]
 8006d44:	f7f9 fc9c 	bl	8000680 <__aeabi_dmul>
 8006d48:	4602      	mov	r2, r0
 8006d4a:	460b      	mov	r3, r1
 8006d4c:	4630      	mov	r0, r6
 8006d4e:	4639      	mov	r1, r7
 8006d50:	f7f9 fadc 	bl	800030c <__adddf3>
 8006d54:	4606      	mov	r6, r0
 8006d56:	460f      	mov	r7, r1
 8006d58:	f7f9 feaa 	bl	8000ab0 <__aeabi_d2iz>
 8006d5c:	2200      	movs	r2, #0
 8006d5e:	9006      	str	r0, [sp, #24]
 8006d60:	2300      	movs	r3, #0
 8006d62:	4630      	mov	r0, r6
 8006d64:	4639      	mov	r1, r7
 8006d66:	f7fa fa13 	bl	8001190 <__aeabi_dcmplt>
 8006d6a:	2800      	cmp	r0, #0
 8006d6c:	f040 8273 	bne.w	8007256 <_dtoa_r+0x616>
 8006d70:	9e06      	ldr	r6, [sp, #24]
 8006d72:	2e16      	cmp	r6, #22
 8006d74:	f200 825d 	bhi.w	8007232 <_dtoa_r+0x5f2>
 8006d78:	4b3a      	ldr	r3, [pc, #232]	; (8006e64 <_dtoa_r+0x224>)
 8006d7a:	eb03 03c6 	add.w	r3, r3, r6, lsl #3
 8006d7e:	e9d3 0100 	ldrd	r0, r1, [r3]
 8006d82:	e9dd 2300 	ldrd	r2, r3, [sp]
 8006d86:	f7fa fa21 	bl	80011cc <__aeabi_dcmpgt>
 8006d8a:	2800      	cmp	r0, #0
 8006d8c:	f000 83d9 	beq.w	8007542 <_dtoa_r+0x902>
 8006d90:	1e73      	subs	r3, r6, #1
 8006d92:	9306      	str	r3, [sp, #24]
 8006d94:	2300      	movs	r3, #0
 8006d96:	930d      	str	r3, [sp, #52]	; 0x34
 8006d98:	1b2c      	subs	r4, r5, r4
 8006d9a:	f1b4 0801 	subs.w	r8, r4, #1
 8006d9e:	f100 8254 	bmi.w	800724a <_dtoa_r+0x60a>
 8006da2:	2300      	movs	r3, #0
 8006da4:	9308      	str	r3, [sp, #32]
 8006da6:	9b06      	ldr	r3, [sp, #24]
 8006da8:	2b00      	cmp	r3, #0
 8006daa:	f2c0 8245 	blt.w	8007238 <_dtoa_r+0x5f8>
 8006dae:	4498      	add	r8, r3
 8006db0:	930c      	str	r3, [sp, #48]	; 0x30
 8006db2:	2300      	movs	r3, #0
 8006db4:	930b      	str	r3, [sp, #44]	; 0x2c
 8006db6:	9b02      	ldr	r3, [sp, #8]
 8006db8:	2b09      	cmp	r3, #9
 8006dba:	d85b      	bhi.n	8006e74 <_dtoa_r+0x234>
 8006dbc:	2b05      	cmp	r3, #5
 8006dbe:	f340 83c2 	ble.w	8007546 <_dtoa_r+0x906>
 8006dc2:	3b04      	subs	r3, #4
 8006dc4:	9302      	str	r3, [sp, #8]
 8006dc6:	2500      	movs	r5, #0
 8006dc8:	9b02      	ldr	r3, [sp, #8]
 8006dca:	3b02      	subs	r3, #2
 8006dcc:	2b03      	cmp	r3, #3
 8006dce:	f200 849a 	bhi.w	8007706 <_dtoa_r+0xac6>
 8006dd2:	e8df f013 	tbh	[pc, r3, lsl #1]
 8006dd6:	03e1      	.short	0x03e1
 8006dd8:	03ea03c1 	.word	0x03ea03c1
 8006ddc:	04f7      	.short	0x04f7
 8006dde:	9a05      	ldr	r2, [sp, #20]
 8006de0:	f242 730f 	movw	r3, #9999	; 0x270f
 8006de4:	6013      	str	r3, [r2, #0]
 8006de6:	9b00      	ldr	r3, [sp, #0]
 8006de8:	b983      	cbnz	r3, 8006e0c <_dtoa_r+0x1cc>
 8006dea:	f3c8 0313 	ubfx	r3, r8, #0, #20
 8006dee:	b96b      	cbnz	r3, 8006e0c <_dtoa_r+0x1cc>
 8006df0:	9b25      	ldr	r3, [sp, #148]	; 0x94
 8006df2:	f8df b074 	ldr.w	fp, [pc, #116]	; 8006e68 <_dtoa_r+0x228>
 8006df6:	2b00      	cmp	r3, #0
 8006df8:	f43f af61 	beq.w	8006cbe <_dtoa_r+0x7e>
 8006dfc:	f10b 0308 	add.w	r3, fp, #8
 8006e00:	9a25      	ldr	r2, [sp, #148]	; 0x94
 8006e02:	4658      	mov	r0, fp
 8006e04:	6013      	str	r3, [r2, #0]
 8006e06:	b01b      	add	sp, #108	; 0x6c
 8006e08:	e8bd 8ff0 	ldmia.w	sp!, {r4, r5, r6, r7, r8, r9, sl, fp, pc}
 8006e0c:	9b25      	ldr	r3, [sp, #148]	; 0x94
 8006e0e:	f8df b05c 	ldr.w	fp, [pc, #92]	; 8006e6c <_dtoa_r+0x22c>
 8006e12:	2b00      	cmp	r3, #0
 8006e14:	f43f af53 	beq.w	8006cbe <_dtoa_r+0x7e>
 8006e18:	f10b 0303 	add.w	r3, fp, #3
 8006e1c:	e7f0      	b.n	8006e00 <_dtoa_r+0x1c0>
 8006e1e:	f3c7 0313 	ubfx	r3, r7, #0, #20
 8006e22:	f043 577f 	orr.w	r7, r3, #1069547520	; 0x3fc00000
 8006e26:	950f      	str	r5, [sp, #60]	; 0x3c
 8006e28:	f2a4 34ff 	subw	r4, r4, #1023	; 0x3ff
 8006e2c:	f447 1740 	orr.w	r7, r7, #3145728	; 0x300000
 8006e30:	9d18      	ldr	r5, [sp, #96]	; 0x60
 8006e32:	e76f      	b.n	8006d14 <_dtoa_r+0xd4>
 8006e34:	f8df b038 	ldr.w	fp, [pc, #56]	; 8006e70 <_dtoa_r+0x230>
 8006e38:	4658      	mov	r0, fp
 8006e3a:	b01b      	add	sp, #108	; 0x6c
 8006e3c:	e8bd 8ff0 	ldmia.w	sp!, {r4, r5, r6, r7, r8, r9, sl, fp, pc}
 8006e40:	636f4361 	.word	0x636f4361
 8006e44:	3fd287a7 	.word	0x3fd287a7
 8006e48:	8b60c8b3 	.word	0x8b60c8b3
 8006e4c:	3fc68a28 	.word	0x3fc68a28
 8006e50:	509f79fb 	.word	0x509f79fb
 8006e54:	3fd34413 	.word	0x3fd34413
 8006e58:	7ff00000 	.word	0x7ff00000
 8006e5c:	08008a45 	.word	0x08008a45
 8006e60:	3ff80000 	.word	0x3ff80000
 8006e64:	08008e30 	.word	0x08008e30
 8006e68:	08008df0 	.word	0x08008df0
 8006e6c:	08008dfc 	.word	0x08008dfc
 8006e70:	08008a44 	.word	0x08008a44
 8006e74:	f04f 34ff 	mov.w	r4, #4294967295
 8006e78:	2501      	movs	r5, #1
 8006e7a:	e9cd 4509 	strd	r4, r5, [sp, #36]	; 0x24
 8006e7e:	2300      	movs	r3, #0
 8006e80:	9302      	str	r3, [sp, #8]
 8006e82:	9307      	str	r3, [sp, #28]
 8006e84:	2100      	movs	r1, #0
 8006e86:	f8c9 1044 	str.w	r1, [r9, #68]	; 0x44
 8006e8a:	940e      	str	r4, [sp, #56]	; 0x38
 8006e8c:	4648      	mov	r0, r9
 8006e8e:	f000 ff47 	bl	8007d20 <_Balloc>
 8006e92:	2c0e      	cmp	r4, #14
 8006e94:	4683      	mov	fp, r0
 8006e96:	f8c9 0040 	str.w	r0, [r9, #64]	; 0x40
 8006e9a:	f200 80fb 	bhi.w	8007094 <_dtoa_r+0x454>
 8006e9e:	2d00      	cmp	r5, #0
 8006ea0:	f000 80f8 	beq.w	8007094 <_dtoa_r+0x454>
 8006ea4:	ed9d 7b00 	vldr	d7, [sp]
 8006ea8:	9906      	ldr	r1, [sp, #24]
 8006eaa:	2900      	cmp	r1, #0
 8006eac:	ed8d 7b10 	vstr	d7, [sp, #64]	; 0x40
 8006eb0:	f340 83e7 	ble.w	8007682 <_dtoa_r+0xa42>
 8006eb4:	4b9d      	ldr	r3, [pc, #628]	; (800712c <_dtoa_r+0x4ec>)
 8006eb6:	f001 020f 	and.w	r2, r1, #15
 8006eba:	eb03 03c2 	add.w	r3, r3, r2, lsl #3
 8006ebe:	ed93 7b00 	vldr	d7, [r3]
 8006ec2:	110c      	asrs	r4, r1, #4
 8006ec4:	06e2      	lsls	r2, r4, #27
 8006ec6:	ed8d 7b00 	vstr	d7, [sp]
 8006eca:	f140 84a1 	bpl.w	8007810 <_dtoa_r+0xbd0>
 8006ece:	4b98      	ldr	r3, [pc, #608]	; (8007130 <_dtoa_r+0x4f0>)
 8006ed0:	e9dd 0110 	ldrd	r0, r1, [sp, #64]	; 0x40
 8006ed4:	e9d3 2308 	ldrd	r2, r3, [r3, #32]
 8006ed8:	f7f9 fcfc 	bl	80008d4 <__aeabi_ddiv>
 8006edc:	e9cd 0112 	strd	r0, r1, [sp, #72]	; 0x48
 8006ee0:	f004 040f 	and.w	r4, r4, #15
 8006ee4:	2603      	movs	r6, #3
 8006ee6:	b17c      	cbz	r4, 8006f08 <_dtoa_r+0x2c8>
 8006ee8:	e9dd 0100 	ldrd	r0, r1, [sp]
 8006eec:	4d90      	ldr	r5, [pc, #576]	; (8007130 <_dtoa_r+0x4f0>)
 8006eee:	07e3      	lsls	r3, r4, #31
 8006ef0:	d504      	bpl.n	8006efc <_dtoa_r+0x2bc>
 8006ef2:	e9d5 2300 	ldrd	r2, r3, [r5]
 8006ef6:	f7f9 fbc3 	bl	8000680 <__aeabi_dmul>
 8006efa:	3601      	adds	r6, #1
 8006efc:	1064      	asrs	r4, r4, #1
 8006efe:	f105 0508 	add.w	r5, r5, #8
 8006f02:	d1f4      	bne.n	8006eee <_dtoa_r+0x2ae>
 8006f04:	e9cd 0100 	strd	r0, r1, [sp]
 8006f08:	e9dd 2300 	ldrd	r2, r3, [sp]
 8006f0c:	e9dd 0112 	ldrd	r0, r1, [sp, #72]	; 0x48
 8006f10:	f7f9 fce0 	bl	80008d4 <__aeabi_ddiv>
 8006f14:	e9cd 0100 	strd	r0, r1, [sp]
 8006f18:	9b0d      	ldr	r3, [sp, #52]	; 0x34
 8006f1a:	b143      	cbz	r3, 8006f2e <_dtoa_r+0x2ee>
 8006f1c:	2200      	movs	r2, #0
 8006f1e:	4b85      	ldr	r3, [pc, #532]	; (8007134 <_dtoa_r+0x4f4>)
 8006f20:	e9dd 0100 	ldrd	r0, r1, [sp]
 8006f24:	f7fa f934 	bl	8001190 <__aeabi_dcmplt>
 8006f28:	2800      	cmp	r0, #0
 8006f2a:	f040 8503 	bne.w	8007934 <_dtoa_r+0xcf4>
 8006f2e:	4630      	mov	r0, r6
 8006f30:	f7f9 fb38 	bl	80005a4 <__aeabi_i2d>
 8006f34:	e9dd 2300 	ldrd	r2, r3, [sp]
 8006f38:	f7f9 fba2 	bl	8000680 <__aeabi_dmul>
 8006f3c:	4b7e      	ldr	r3, [pc, #504]	; (8007138 <_dtoa_r+0x4f8>)
 8006f3e:	2200      	movs	r2, #0
 8006f40:	f7f9 f9e4 	bl	800030c <__adddf3>
 8006f44:	9b09      	ldr	r3, [sp, #36]	; 0x24
 8006f46:	4606      	mov	r6, r0
 8006f48:	f1a1 7750 	sub.w	r7, r1, #54525952	; 0x3400000
 8006f4c:	2b00      	cmp	r3, #0
 8006f4e:	f000 841e 	beq.w	800778e <_dtoa_r+0xb4e>
 8006f52:	9b06      	ldr	r3, [sp, #24]
 8006f54:	9316      	str	r3, [sp, #88]	; 0x58
 8006f56:	9b09      	ldr	r3, [sp, #36]	; 0x24
 8006f58:	9312      	str	r3, [sp, #72]	; 0x48
 8006f5a:	e9dd 0100 	ldrd	r0, r1, [sp]
 8006f5e:	f7f9 fda7 	bl	8000ab0 <__aeabi_d2iz>
 8006f62:	9a12      	ldr	r2, [sp, #72]	; 0x48
 8006f64:	4b71      	ldr	r3, [pc, #452]	; (800712c <_dtoa_r+0x4ec>)
 8006f66:	eb03 03c2 	add.w	r3, r3, r2, lsl #3
 8006f6a:	ed13 7b02 	vldr	d7, [r3, #-8]
 8006f6e:	f100 0530 	add.w	r5, r0, #48	; 0x30
 8006f72:	ed8d 7b14 	vstr	d7, [sp, #80]	; 0x50
 8006f76:	f7f9 fb15 	bl	80005a4 <__aeabi_i2d>
 8006f7a:	460b      	mov	r3, r1
 8006f7c:	4602      	mov	r2, r0
 8006f7e:	e9dd 0100 	ldrd	r0, r1, [sp]
 8006f82:	e9cd 6700 	strd	r6, r7, [sp]
 8006f86:	f7f9 f9bf 	bl	8000308 <__aeabi_dsub>
 8006f8a:	9b0a      	ldr	r3, [sp, #40]	; 0x28
 8006f8c:	b2ed      	uxtb	r5, r5
 8006f8e:	4606      	mov	r6, r0
 8006f90:	460f      	mov	r7, r1
 8006f92:	f10b 0401 	add.w	r4, fp, #1
 8006f96:	2b00      	cmp	r3, #0
 8006f98:	f000 845b 	beq.w	8007852 <_dtoa_r+0xc12>
 8006f9c:	e9dd 2314 	ldrd	r2, r3, [sp, #80]	; 0x50
 8006fa0:	2000      	movs	r0, #0
 8006fa2:	4966      	ldr	r1, [pc, #408]	; (800713c <_dtoa_r+0x4fc>)
 8006fa4:	f7f9 fc96 	bl	80008d4 <__aeabi_ddiv>
 8006fa8:	e9dd 2300 	ldrd	r2, r3, [sp]
 8006fac:	f7f9 f9ac 	bl	8000308 <__aeabi_dsub>
 8006fb0:	f88b 5000 	strb.w	r5, [fp]
 8006fb4:	4632      	mov	r2, r6
 8006fb6:	463b      	mov	r3, r7
 8006fb8:	e9cd 0100 	strd	r0, r1, [sp]
 8006fbc:	f7fa f906 	bl	80011cc <__aeabi_dcmpgt>
 8006fc0:	2800      	cmp	r0, #0
 8006fc2:	f040 8506 	bne.w	80079d2 <_dtoa_r+0xd92>
 8006fc6:	4632      	mov	r2, r6
 8006fc8:	463b      	mov	r3, r7
 8006fca:	2000      	movs	r0, #0
 8006fcc:	4959      	ldr	r1, [pc, #356]	; (8007134 <_dtoa_r+0x4f4>)
 8006fce:	f7f9 f99b 	bl	8000308 <__aeabi_dsub>
 8006fd2:	4602      	mov	r2, r0
 8006fd4:	460b      	mov	r3, r1
 8006fd6:	e9dd 0100 	ldrd	r0, r1, [sp]
 8006fda:	f7fa f8f7 	bl	80011cc <__aeabi_dcmpgt>
 8006fde:	2800      	cmp	r0, #0
 8006fe0:	f040 84ff 	bne.w	80079e2 <_dtoa_r+0xda2>
 8006fe4:	9a12      	ldr	r2, [sp, #72]	; 0x48
 8006fe6:	2a01      	cmp	r2, #1
 8006fe8:	d050      	beq.n	800708c <_dtoa_r+0x44c>
 8006fea:	445a      	add	r2, fp
 8006fec:	f8cd 805c 	str.w	r8, [sp, #92]	; 0x5c
 8006ff0:	f8cd a048 	str.w	sl, [sp, #72]	; 0x48
 8006ff4:	f8cd b050 	str.w	fp, [sp, #80]	; 0x50
 8006ff8:	4692      	mov	sl, r2
 8006ffa:	46cb      	mov	fp, r9
 8006ffc:	e9dd 8900 	ldrd	r8, r9, [sp]
 8007000:	e00c      	b.n	800701c <_dtoa_r+0x3dc>
 8007002:	2000      	movs	r0, #0
 8007004:	494b      	ldr	r1, [pc, #300]	; (8007134 <_dtoa_r+0x4f4>)
 8007006:	f7f9 f97f 	bl	8000308 <__aeabi_dsub>
 800700a:	4642      	mov	r2, r8
 800700c:	464b      	mov	r3, r9
 800700e:	f7fa f8bf 	bl	8001190 <__aeabi_dcmplt>
 8007012:	2800      	cmp	r0, #0
 8007014:	f040 84e0 	bne.w	80079d8 <_dtoa_r+0xd98>
 8007018:	4554      	cmp	r4, sl
 800701a:	d030      	beq.n	800707e <_dtoa_r+0x43e>
 800701c:	4640      	mov	r0, r8
 800701e:	4649      	mov	r1, r9
 8007020:	2200      	movs	r2, #0
 8007022:	4b47      	ldr	r3, [pc, #284]	; (8007140 <_dtoa_r+0x500>)
 8007024:	f7f9 fb2c 	bl	8000680 <__aeabi_dmul>
 8007028:	2200      	movs	r2, #0
 800702a:	4b45      	ldr	r3, [pc, #276]	; (8007140 <_dtoa_r+0x500>)
 800702c:	4680      	mov	r8, r0
 800702e:	4689      	mov	r9, r1
 8007030:	4630      	mov	r0, r6
 8007032:	4639      	mov	r1, r7
 8007034:	f7f9 fb24 	bl	8000680 <__aeabi_dmul>
 8007038:	460f      	mov	r7, r1
 800703a:	4606      	mov	r6, r0
 800703c:	f7f9 fd38 	bl	8000ab0 <__aeabi_d2iz>
 8007040:	4605      	mov	r5, r0
 8007042:	f7f9 faaf 	bl	80005a4 <__aeabi_i2d>
 8007046:	4602      	mov	r2, r0
 8007048:	460b      	mov	r3, r1
 800704a:	4630      	mov	r0, r6
 800704c:	4639      	mov	r1, r7
 800704e:	f7f9 f95b 	bl	8000308 <__aeabi_dsub>
 8007052:	3530      	adds	r5, #48	; 0x30
 8007054:	b2ed      	uxtb	r5, r5
 8007056:	4642      	mov	r2, r8
 8007058:	464b      	mov	r3, r9
 800705a:	f804 5b01 	strb.w	r5, [r4], #1
 800705e:	4606      	mov	r6, r0
 8007060:	460f      	mov	r7, r1
 8007062:	f7fa f895 	bl	8001190 <__aeabi_dcmplt>
 8007066:	4632      	mov	r2, r6
 8007068:	463b      	mov	r3, r7
 800706a:	2800      	cmp	r0, #0
 800706c:	d0c9      	beq.n	8007002 <_dtoa_r+0x3c2>
 800706e:	9b16      	ldr	r3, [sp, #88]	; 0x58
 8007070:	f8dd a048 	ldr.w	sl, [sp, #72]	; 0x48
 8007074:	9306      	str	r3, [sp, #24]
 8007076:	46d9      	mov	r9, fp
 8007078:	f8dd b050 	ldr.w	fp, [sp, #80]	; 0x50
 800707c:	e238      	b.n	80074f0 <_dtoa_r+0x8b0>
 800707e:	46d9      	mov	r9, fp
 8007080:	f8dd 805c 	ldr.w	r8, [sp, #92]	; 0x5c
 8007084:	f8dd a048 	ldr.w	sl, [sp, #72]	; 0x48
 8007088:	f8dd b050 	ldr.w	fp, [sp, #80]	; 0x50
 800708c:	e9dd 3410 	ldrd	r3, r4, [sp, #64]	; 0x40
 8007090:	e9cd 3400 	strd	r3, r4, [sp]
 8007094:	9b19      	ldr	r3, [sp, #100]	; 0x64
 8007096:	2b00      	cmp	r3, #0
 8007098:	f2c0 80ae 	blt.w	80071f8 <_dtoa_r+0x5b8>
 800709c:	9a06      	ldr	r2, [sp, #24]
 800709e:	2a0e      	cmp	r2, #14
 80070a0:	f300 80aa 	bgt.w	80071f8 <_dtoa_r+0x5b8>
 80070a4:	4b21      	ldr	r3, [pc, #132]	; (800712c <_dtoa_r+0x4ec>)
 80070a6:	eb03 03c2 	add.w	r3, r3, r2, lsl #3
 80070aa:	ed93 7b00 	vldr	d7, [r3]
 80070ae:	9b07      	ldr	r3, [sp, #28]
 80070b0:	2b00      	cmp	r3, #0
 80070b2:	ed8d 7b02 	vstr	d7, [sp, #8]
 80070b6:	f2c0 82c0 	blt.w	800763a <_dtoa_r+0x9fa>
 80070ba:	e9dd 6700 	ldrd	r6, r7, [sp]
 80070be:	e9dd 2302 	ldrd	r2, r3, [sp, #8]
 80070c2:	4630      	mov	r0, r6
 80070c4:	4639      	mov	r1, r7
 80070c6:	f7f9 fc05 	bl	80008d4 <__aeabi_ddiv>
 80070ca:	f7f9 fcf1 	bl	8000ab0 <__aeabi_d2iz>
 80070ce:	4605      	mov	r5, r0
 80070d0:	f7f9 fa68 	bl	80005a4 <__aeabi_i2d>
 80070d4:	e9dd 2302 	ldrd	r2, r3, [sp, #8]
 80070d8:	f7f9 fad2 	bl	8000680 <__aeabi_dmul>
 80070dc:	460b      	mov	r3, r1
 80070de:	4602      	mov	r2, r0
 80070e0:	4639      	mov	r1, r7
 80070e2:	4630      	mov	r0, r6
 80070e4:	f7f9 f910 	bl	8000308 <__aeabi_dsub>
 80070e8:	f105 0330 	add.w	r3, r5, #48	; 0x30
 80070ec:	f88b 3000 	strb.w	r3, [fp]
 80070f0:	9b09      	ldr	r3, [sp, #36]	; 0x24
 80070f2:	2b01      	cmp	r3, #1
 80070f4:	4606      	mov	r6, r0
 80070f6:	460f      	mov	r7, r1
 80070f8:	f10b 0401 	add.w	r4, fp, #1
 80070fc:	d053      	beq.n	80071a6 <_dtoa_r+0x566>
 80070fe:	2200      	movs	r2, #0
 8007100:	4b0f      	ldr	r3, [pc, #60]	; (8007140 <_dtoa_r+0x500>)
 8007102:	f7f9 fabd 	bl	8000680 <__aeabi_dmul>
 8007106:	2200      	movs	r2, #0
 8007108:	2300      	movs	r3, #0
 800710a:	4606      	mov	r6, r0
 800710c:	460f      	mov	r7, r1
 800710e:	f7fa f835 	bl	800117c <__aeabi_dcmpeq>
 8007112:	2800      	cmp	r0, #0
 8007114:	f040 81ec 	bne.w	80074f0 <_dtoa_r+0x8b0>
 8007118:	f8cd a000 	str.w	sl, [sp]
 800711c:	f8cd 901c 	str.w	r9, [sp, #28]
 8007120:	f8dd 8024 	ldr.w	r8, [sp, #36]	; 0x24
 8007124:	e9dd 9a02 	ldrd	r9, sl, [sp, #8]
 8007128:	e017      	b.n	800715a <_dtoa_r+0x51a>
 800712a:	bf00      	nop
 800712c:	08008e30 	.word	0x08008e30
 8007130:	08008e00 	.word	0x08008e00
 8007134:	3ff00000 	.word	0x3ff00000
 8007138:	401c0000 	.word	0x401c0000
 800713c:	3fe00000 	.word	0x3fe00000
 8007140:	40240000 	.word	0x40240000
 8007144:	f7f9 fa9c 	bl	8000680 <__aeabi_dmul>
 8007148:	2200      	movs	r2, #0
 800714a:	2300      	movs	r3, #0
 800714c:	4606      	mov	r6, r0
 800714e:	460f      	mov	r7, r1
 8007150:	f7fa f814 	bl	800117c <__aeabi_dcmpeq>
 8007154:	2800      	cmp	r0, #0
 8007156:	f040 833f 	bne.w	80077d8 <_dtoa_r+0xb98>
 800715a:	464a      	mov	r2, r9
 800715c:	4653      	mov	r3, sl
 800715e:	4630      	mov	r0, r6
 8007160:	4639      	mov	r1, r7
 8007162:	f7f9 fbb7 	bl	80008d4 <__aeabi_ddiv>
 8007166:	f7f9 fca3 	bl	8000ab0 <__aeabi_d2iz>
 800716a:	4605      	mov	r5, r0
 800716c:	f7f9 fa1a 	bl	80005a4 <__aeabi_i2d>
 8007170:	464a      	mov	r2, r9
 8007172:	4653      	mov	r3, sl
 8007174:	f7f9 fa84 	bl	8000680 <__aeabi_dmul>
 8007178:	4602      	mov	r2, r0
 800717a:	460b      	mov	r3, r1
 800717c:	4630      	mov	r0, r6
 800717e:	4639      	mov	r1, r7
 8007180:	f7f9 f8c2 	bl	8000308 <__aeabi_dsub>
 8007184:	f105 0c30 	add.w	ip, r5, #48	; 0x30
 8007188:	f804 cb01 	strb.w	ip, [r4], #1
 800718c:	eba4 0c0b 	sub.w	ip, r4, fp
 8007190:	45e0      	cmp	r8, ip
 8007192:	4606      	mov	r6, r0
 8007194:	460f      	mov	r7, r1
 8007196:	f04f 0200 	mov.w	r2, #0
 800719a:	4bc2      	ldr	r3, [pc, #776]	; (80074a4 <_dtoa_r+0x864>)
 800719c:	d1d2      	bne.n	8007144 <_dtoa_r+0x504>
 800719e:	f8dd a000 	ldr.w	sl, [sp]
 80071a2:	f8dd 901c 	ldr.w	r9, [sp, #28]
 80071a6:	4632      	mov	r2, r6
 80071a8:	463b      	mov	r3, r7
 80071aa:	4630      	mov	r0, r6
 80071ac:	4639      	mov	r1, r7
 80071ae:	f7f9 f8ad 	bl	800030c <__adddf3>
 80071b2:	e9dd 2302 	ldrd	r2, r3, [sp, #8]
 80071b6:	4606      	mov	r6, r0
 80071b8:	460f      	mov	r7, r1
 80071ba:	f7fa f807 	bl	80011cc <__aeabi_dcmpgt>
 80071be:	b958      	cbnz	r0, 80071d8 <_dtoa_r+0x598>
 80071c0:	e9dd 2302 	ldrd	r2, r3, [sp, #8]
 80071c4:	4630      	mov	r0, r6
 80071c6:	4639      	mov	r1, r7
 80071c8:	f7f9 ffd8 	bl	800117c <__aeabi_dcmpeq>
 80071cc:	2800      	cmp	r0, #0
 80071ce:	f000 818f 	beq.w	80074f0 <_dtoa_r+0x8b0>
 80071d2:	07e9      	lsls	r1, r5, #31
 80071d4:	f140 818c 	bpl.w	80074f0 <_dtoa_r+0x8b0>
 80071d8:	f814 5c01 	ldrb.w	r5, [r4, #-1]
 80071dc:	e005      	b.n	80071ea <_dtoa_r+0x5aa>
 80071de:	459b      	cmp	fp, r3
 80071e0:	f000 8376 	beq.w	80078d0 <_dtoa_r+0xc90>
 80071e4:	f813 5c01 	ldrb.w	r5, [r3, #-1]
 80071e8:	461c      	mov	r4, r3
 80071ea:	2d39      	cmp	r5, #57	; 0x39
 80071ec:	f104 33ff 	add.w	r3, r4, #4294967295
 80071f0:	d0f5      	beq.n	80071de <_dtoa_r+0x59e>
 80071f2:	3501      	adds	r5, #1
 80071f4:	701d      	strb	r5, [r3, #0]
 80071f6:	e17b      	b.n	80074f0 <_dtoa_r+0x8b0>
 80071f8:	9a0a      	ldr	r2, [sp, #40]	; 0x28
 80071fa:	2a00      	cmp	r2, #0
 80071fc:	d03b      	beq.n	8007276 <_dtoa_r+0x636>
 80071fe:	9a02      	ldr	r2, [sp, #8]
 8007200:	2a01      	cmp	r2, #1
 8007202:	f340 820d 	ble.w	8007620 <_dtoa_r+0x9e0>
 8007206:	9b09      	ldr	r3, [sp, #36]	; 0x24
 8007208:	1e5f      	subs	r7, r3, #1
 800720a:	9b0b      	ldr	r3, [sp, #44]	; 0x2c
 800720c:	42bb      	cmp	r3, r7
 800720e:	f2c0 82e8 	blt.w	80077e2 <_dtoa_r+0xba2>
 8007212:	1bdf      	subs	r7, r3, r7
 8007214:	9b09      	ldr	r3, [sp, #36]	; 0x24
 8007216:	2b00      	cmp	r3, #0
 8007218:	f2c0 830e 	blt.w	8007838 <_dtoa_r+0xbf8>
 800721c:	9a08      	ldr	r2, [sp, #32]
 800721e:	4614      	mov	r4, r2
 8007220:	441a      	add	r2, r3
 8007222:	4498      	add	r8, r3
 8007224:	9208      	str	r2, [sp, #32]
 8007226:	2101      	movs	r1, #1
 8007228:	4648      	mov	r0, r9
 800722a:	f000 fe41 	bl	8007eb0 <__i2b>
 800722e:	4605      	mov	r5, r0
 8007230:	e024      	b.n	800727c <_dtoa_r+0x63c>
 8007232:	2301      	movs	r3, #1
 8007234:	930d      	str	r3, [sp, #52]	; 0x34
 8007236:	e5af      	b.n	8006d98 <_dtoa_r+0x158>
 8007238:	9a08      	ldr	r2, [sp, #32]
 800723a:	9b06      	ldr	r3, [sp, #24]
 800723c:	1ad2      	subs	r2, r2, r3
 800723e:	425b      	negs	r3, r3
 8007240:	930b      	str	r3, [sp, #44]	; 0x2c
 8007242:	2300      	movs	r3, #0
 8007244:	9208      	str	r2, [sp, #32]
 8007246:	930c      	str	r3, [sp, #48]	; 0x30
 8007248:	e5b5      	b.n	8006db6 <_dtoa_r+0x176>
 800724a:	f1c4 0301 	rsb	r3, r4, #1
 800724e:	9308      	str	r3, [sp, #32]
 8007250:	f04f 0800 	mov.w	r8, #0
 8007254:	e5a7      	b.n	8006da6 <_dtoa_r+0x166>
 8007256:	f8dd 8018 	ldr.w	r8, [sp, #24]
 800725a:	4640      	mov	r0, r8
 800725c:	f7f9 f9a2 	bl	80005a4 <__aeabi_i2d>
 8007260:	4632      	mov	r2, r6
 8007262:	463b      	mov	r3, r7
 8007264:	f7f9 ff8a 	bl	800117c <__aeabi_dcmpeq>
 8007268:	2800      	cmp	r0, #0
 800726a:	f47f ad81 	bne.w	8006d70 <_dtoa_r+0x130>
 800726e:	f108 33ff 	add.w	r3, r8, #4294967295
 8007272:	9306      	str	r3, [sp, #24]
 8007274:	e57c      	b.n	8006d70 <_dtoa_r+0x130>
 8007276:	9f0b      	ldr	r7, [sp, #44]	; 0x2c
 8007278:	9c08      	ldr	r4, [sp, #32]
 800727a:	9d0a      	ldr	r5, [sp, #40]	; 0x28
 800727c:	2c00      	cmp	r4, #0
 800727e:	dd0c      	ble.n	800729a <_dtoa_r+0x65a>
 8007280:	f1b8 0f00 	cmp.w	r8, #0
 8007284:	dd09      	ble.n	800729a <_dtoa_r+0x65a>
 8007286:	4544      	cmp	r4, r8
 8007288:	9a08      	ldr	r2, [sp, #32]
 800728a:	4623      	mov	r3, r4
 800728c:	bfa8      	it	ge
 800728e:	4643      	movge	r3, r8
 8007290:	1ad2      	subs	r2, r2, r3
 8007292:	9208      	str	r2, [sp, #32]
 8007294:	1ae4      	subs	r4, r4, r3
 8007296:	eba8 0803 	sub.w	r8, r8, r3
 800729a:	9b0b      	ldr	r3, [sp, #44]	; 0x2c
 800729c:	b16b      	cbz	r3, 80072ba <_dtoa_r+0x67a>
 800729e:	9a0a      	ldr	r2, [sp, #40]	; 0x28
 80072a0:	2a00      	cmp	r2, #0
 80072a2:	f000 8292 	beq.w	80077ca <_dtoa_r+0xb8a>
 80072a6:	1bde      	subs	r6, r3, r7
 80072a8:	2f00      	cmp	r7, #0
 80072aa:	f040 819d 	bne.w	80075e8 <_dtoa_r+0x9a8>
 80072ae:	4651      	mov	r1, sl
 80072b0:	4632      	mov	r2, r6
 80072b2:	4648      	mov	r0, r9
 80072b4:	f000 feb4 	bl	8008020 <__pow5mult>
 80072b8:	4682      	mov	sl, r0
 80072ba:	2101      	movs	r1, #1
 80072bc:	4648      	mov	r0, r9
 80072be:	f000 fdf7 	bl	8007eb0 <__i2b>
 80072c2:	9a0c      	ldr	r2, [sp, #48]	; 0x30
 80072c4:	4606      	mov	r6, r0
 80072c6:	2a00      	cmp	r2, #0
 80072c8:	f040 8127 	bne.w	800751a <_dtoa_r+0x8da>
 80072cc:	9b02      	ldr	r3, [sp, #8]
 80072ce:	2b01      	cmp	r3, #1
 80072d0:	f340 816e 	ble.w	80075b0 <_dtoa_r+0x970>
 80072d4:	2001      	movs	r0, #1
 80072d6:	4440      	add	r0, r8
 80072d8:	f010 001f 	ands.w	r0, r0, #31
 80072dc:	f000 811b 	beq.w	8007516 <_dtoa_r+0x8d6>
 80072e0:	f1c0 0320 	rsb	r3, r0, #32
 80072e4:	2b04      	cmp	r3, #4
 80072e6:	f340 83b0 	ble.w	8007a4a <_dtoa_r+0xe0a>
 80072ea:	f1c0 001c 	rsb	r0, r0, #28
 80072ee:	9b08      	ldr	r3, [sp, #32]
 80072f0:	4403      	add	r3, r0
 80072f2:	9308      	str	r3, [sp, #32]
 80072f4:	4404      	add	r4, r0
 80072f6:	4480      	add	r8, r0
 80072f8:	9b08      	ldr	r3, [sp, #32]
 80072fa:	2b00      	cmp	r3, #0
 80072fc:	dd05      	ble.n	800730a <_dtoa_r+0x6ca>
 80072fe:	4651      	mov	r1, sl
 8007300:	461a      	mov	r2, r3
 8007302:	4648      	mov	r0, r9
 8007304:	f000 fedc 	bl	80080c0 <__lshift>
 8007308:	4682      	mov	sl, r0
 800730a:	f1b8 0f00 	cmp.w	r8, #0
 800730e:	dd05      	ble.n	800731c <_dtoa_r+0x6dc>
 8007310:	4631      	mov	r1, r6
 8007312:	4642      	mov	r2, r8
 8007314:	4648      	mov	r0, r9
 8007316:	f000 fed3 	bl	80080c0 <__lshift>
 800731a:	4606      	mov	r6, r0
 800731c:	9b0d      	ldr	r3, [sp, #52]	; 0x34
 800731e:	2b00      	cmp	r3, #0
 8007320:	d178      	bne.n	8007414 <_dtoa_r+0x7d4>
 8007322:	9b09      	ldr	r3, [sp, #36]	; 0x24
 8007324:	2b00      	cmp	r3, #0
 8007326:	f340 820b 	ble.w	8007740 <_dtoa_r+0xb00>
 800732a:	9b0a      	ldr	r3, [sp, #40]	; 0x28
 800732c:	2b00      	cmp	r3, #0
 800732e:	f000 808a 	beq.w	8007446 <_dtoa_r+0x806>
 8007332:	2c00      	cmp	r4, #0
 8007334:	f300 816d 	bgt.w	8007612 <_dtoa_r+0x9d2>
 8007338:	9b0c      	ldr	r3, [sp, #48]	; 0x30
 800733a:	2b00      	cmp	r3, #0
 800733c:	f040 81cf 	bne.w	80076de <_dtoa_r+0xa9e>
 8007340:	46a8      	mov	r8, r5
 8007342:	9a00      	ldr	r2, [sp, #0]
 8007344:	f8cd b02c 	str.w	fp, [sp, #44]	; 0x2c
 8007348:	f002 0201 	and.w	r2, r2, #1
 800734c:	920a      	str	r2, [sp, #40]	; 0x28
 800734e:	9a09      	ldr	r2, [sp, #36]	; 0x24
 8007350:	f10b 33ff 	add.w	r3, fp, #4294967295
 8007354:	441a      	add	r2, r3
 8007356:	465f      	mov	r7, fp
 8007358:	9209      	str	r2, [sp, #36]	; 0x24
 800735a:	46b3      	mov	fp, r6
 800735c:	4659      	mov	r1, fp
 800735e:	4650      	mov	r0, sl
 8007360:	f7ff fbd6 	bl	8006b10 <quorem>
 8007364:	4629      	mov	r1, r5
 8007366:	4604      	mov	r4, r0
 8007368:	4650      	mov	r0, sl
 800736a:	f000 ff01 	bl	8008170 <__mcmp>
 800736e:	4659      	mov	r1, fp
 8007370:	4606      	mov	r6, r0
 8007372:	4642      	mov	r2, r8
 8007374:	4648      	mov	r0, r9
 8007376:	f000 ff1b 	bl	80081b0 <__mdiff>
 800737a:	f104 0330 	add.w	r3, r4, #48	; 0x30
 800737e:	9300      	str	r3, [sp, #0]
 8007380:	68c3      	ldr	r3, [r0, #12]
 8007382:	4601      	mov	r1, r0
 8007384:	2b00      	cmp	r3, #0
 8007386:	f040 81d6 	bne.w	8007736 <_dtoa_r+0xaf6>
 800738a:	9008      	str	r0, [sp, #32]
 800738c:	4650      	mov	r0, sl
 800738e:	f000 feef 	bl	8008170 <__mcmp>
 8007392:	9a08      	ldr	r2, [sp, #32]
 8007394:	9007      	str	r0, [sp, #28]
 8007396:	4611      	mov	r1, r2
 8007398:	4648      	mov	r0, r9
 800739a:	f000 fce9 	bl	8007d70 <_Bfree>
 800739e:	9b07      	ldr	r3, [sp, #28]
 80073a0:	b933      	cbnz	r3, 80073b0 <_dtoa_r+0x770>
 80073a2:	9a02      	ldr	r2, [sp, #8]
 80073a4:	b922      	cbnz	r2, 80073b0 <_dtoa_r+0x770>
 80073a6:	9b0a      	ldr	r3, [sp, #40]	; 0x28
 80073a8:	2b00      	cmp	r3, #0
 80073aa:	f000 831d 	beq.w	80079e8 <_dtoa_r+0xda8>
 80073ae:	9b02      	ldr	r3, [sp, #8]
 80073b0:	2e00      	cmp	r6, #0
 80073b2:	f2c0 821e 	blt.w	80077f2 <_dtoa_r+0xbb2>
 80073b6:	d105      	bne.n	80073c4 <_dtoa_r+0x784>
 80073b8:	9a02      	ldr	r2, [sp, #8]
 80073ba:	b91a      	cbnz	r2, 80073c4 <_dtoa_r+0x784>
 80073bc:	9a0a      	ldr	r2, [sp, #40]	; 0x28
 80073be:	2a00      	cmp	r2, #0
 80073c0:	f000 8217 	beq.w	80077f2 <_dtoa_r+0xbb2>
 80073c4:	2b00      	cmp	r3, #0
 80073c6:	f107 0401 	add.w	r4, r7, #1
 80073ca:	f300 8228 	bgt.w	800781e <_dtoa_r+0xbde>
 80073ce:	f89d 3000 	ldrb.w	r3, [sp]
 80073d2:	703b      	strb	r3, [r7, #0]
 80073d4:	9b09      	ldr	r3, [sp, #36]	; 0x24
 80073d6:	42bb      	cmp	r3, r7
 80073d8:	f000 8232 	beq.w	8007840 <_dtoa_r+0xc00>
 80073dc:	4651      	mov	r1, sl
 80073de:	2300      	movs	r3, #0
 80073e0:	220a      	movs	r2, #10
 80073e2:	4648      	mov	r0, r9
 80073e4:	f000 fcd4 	bl	8007d90 <__multadd>
 80073e8:	4545      	cmp	r5, r8
 80073ea:	4682      	mov	sl, r0
 80073ec:	4629      	mov	r1, r5
 80073ee:	f04f 0300 	mov.w	r3, #0
 80073f2:	f04f 020a 	mov.w	r2, #10
 80073f6:	4648      	mov	r0, r9
 80073f8:	f000 8197 	beq.w	800772a <_dtoa_r+0xaea>
 80073fc:	f000 fcc8 	bl	8007d90 <__multadd>
 8007400:	4641      	mov	r1, r8
 8007402:	4605      	mov	r5, r0
 8007404:	2300      	movs	r3, #0
 8007406:	220a      	movs	r2, #10
 8007408:	4648      	mov	r0, r9
 800740a:	f000 fcc1 	bl	8007d90 <__multadd>
 800740e:	4627      	mov	r7, r4
 8007410:	4680      	mov	r8, r0
 8007412:	e7a3      	b.n	800735c <_dtoa_r+0x71c>
 8007414:	4631      	mov	r1, r6
 8007416:	4650      	mov	r0, sl
 8007418:	f000 feaa 	bl	8008170 <__mcmp>
 800741c:	2800      	cmp	r0, #0
 800741e:	da80      	bge.n	8007322 <_dtoa_r+0x6e2>
 8007420:	9f06      	ldr	r7, [sp, #24]
 8007422:	4651      	mov	r1, sl
 8007424:	2300      	movs	r3, #0
 8007426:	220a      	movs	r2, #10
 8007428:	4648      	mov	r0, r9
 800742a:	3f01      	subs	r7, #1
 800742c:	9706      	str	r7, [sp, #24]
 800742e:	f000 fcaf 	bl	8007d90 <__multadd>
 8007432:	9b0a      	ldr	r3, [sp, #40]	; 0x28
 8007434:	4682      	mov	sl, r0
 8007436:	2b00      	cmp	r3, #0
 8007438:	f040 82ee 	bne.w	8007a18 <_dtoa_r+0xdd8>
 800743c:	9b0e      	ldr	r3, [sp, #56]	; 0x38
 800743e:	2b00      	cmp	r3, #0
 8007440:	f340 82f6 	ble.w	8007a30 <_dtoa_r+0xdf0>
 8007444:	9309      	str	r3, [sp, #36]	; 0x24
 8007446:	465c      	mov	r4, fp
 8007448:	f8dd 8024 	ldr.w	r8, [sp, #36]	; 0x24
 800744c:	e002      	b.n	8007454 <_dtoa_r+0x814>
 800744e:	f000 fc9f 	bl	8007d90 <__multadd>
 8007452:	4682      	mov	sl, r0
 8007454:	4631      	mov	r1, r6
 8007456:	4650      	mov	r0, sl
 8007458:	f7ff fb5a 	bl	8006b10 <quorem>
 800745c:	f100 0730 	add.w	r7, r0, #48	; 0x30
 8007460:	f804 7b01 	strb.w	r7, [r4], #1
 8007464:	eba4 030b 	sub.w	r3, r4, fp
 8007468:	4598      	cmp	r8, r3
 800746a:	f04f 020a 	mov.w	r2, #10
 800746e:	f04f 0300 	mov.w	r3, #0
 8007472:	4651      	mov	r1, sl
 8007474:	4648      	mov	r0, r9
 8007476:	dcea      	bgt.n	800744e <_dtoa_r+0x80e>
 8007478:	2300      	movs	r3, #0
 800747a:	9700      	str	r7, [sp, #0]
 800747c:	9302      	str	r3, [sp, #8]
 800747e:	4651      	mov	r1, sl
 8007480:	2201      	movs	r2, #1
 8007482:	4648      	mov	r0, r9
 8007484:	f000 fe1c 	bl	80080c0 <__lshift>
 8007488:	4631      	mov	r1, r6
 800748a:	4682      	mov	sl, r0
 800748c:	f000 fe70 	bl	8008170 <__mcmp>
 8007490:	2800      	cmp	r0, #0
 8007492:	f814 2c01 	ldrb.w	r2, [r4, #-1]
 8007496:	dc15      	bgt.n	80074c4 <_dtoa_r+0x884>
 8007498:	d109      	bne.n	80074ae <_dtoa_r+0x86e>
 800749a:	9b00      	ldr	r3, [sp, #0]
 800749c:	07db      	lsls	r3, r3, #31
 800749e:	d411      	bmi.n	80074c4 <_dtoa_r+0x884>
 80074a0:	e005      	b.n	80074ae <_dtoa_r+0x86e>
 80074a2:	bf00      	nop
 80074a4:	40240000 	.word	0x40240000
 80074a8:	f814 2c02 	ldrb.w	r2, [r4, #-2]
 80074ac:	461c      	mov	r4, r3
 80074ae:	2a30      	cmp	r2, #48	; 0x30
 80074b0:	f104 33ff 	add.w	r3, r4, #4294967295
 80074b4:	d0f8      	beq.n	80074a8 <_dtoa_r+0x868>
 80074b6:	e00b      	b.n	80074d0 <_dtoa_r+0x890>
 80074b8:	459b      	cmp	fp, r3
 80074ba:	f000 814e 	beq.w	800775a <_dtoa_r+0xb1a>
 80074be:	f813 2c01 	ldrb.w	r2, [r3, #-1]
 80074c2:	461c      	mov	r4, r3
 80074c4:	2a39      	cmp	r2, #57	; 0x39
 80074c6:	f104 33ff 	add.w	r3, r4, #4294967295
 80074ca:	d0f5      	beq.n	80074b8 <_dtoa_r+0x878>
 80074cc:	3201      	adds	r2, #1
 80074ce:	701a      	strb	r2, [r3, #0]
 80074d0:	4631      	mov	r1, r6
 80074d2:	4648      	mov	r0, r9
 80074d4:	f000 fc4c 	bl	8007d70 <_Bfree>
 80074d8:	b155      	cbz	r5, 80074f0 <_dtoa_r+0x8b0>
 80074da:	9902      	ldr	r1, [sp, #8]
 80074dc:	b121      	cbz	r1, 80074e8 <_dtoa_r+0x8a8>
 80074de:	42a9      	cmp	r1, r5
 80074e0:	d002      	beq.n	80074e8 <_dtoa_r+0x8a8>
 80074e2:	4648      	mov	r0, r9
 80074e4:	f000 fc44 	bl	8007d70 <_Bfree>
 80074e8:	4629      	mov	r1, r5
 80074ea:	4648      	mov	r0, r9
 80074ec:	f000 fc40 	bl	8007d70 <_Bfree>
 80074f0:	4651      	mov	r1, sl
 80074f2:	4648      	mov	r0, r9
 80074f4:	f000 fc3c 	bl	8007d70 <_Bfree>
 80074f8:	2200      	movs	r2, #0
 80074fa:	9b06      	ldr	r3, [sp, #24]
 80074fc:	7022      	strb	r2, [r4, #0]
 80074fe:	9a05      	ldr	r2, [sp, #20]
 8007500:	3301      	adds	r3, #1
 8007502:	6013      	str	r3, [r2, #0]
 8007504:	9b25      	ldr	r3, [sp, #148]	; 0x94
 8007506:	2b00      	cmp	r3, #0
 8007508:	f43f abd9 	beq.w	8006cbe <_dtoa_r+0x7e>
 800750c:	4658      	mov	r0, fp
 800750e:	601c      	str	r4, [r3, #0]
 8007510:	b01b      	add	sp, #108	; 0x6c
 8007512:	e8bd 8ff0 	ldmia.w	sp!, {r4, r5, r6, r7, r8, r9, sl, fp, pc}
 8007516:	201c      	movs	r0, #28
 8007518:	e6e9      	b.n	80072ee <_dtoa_r+0x6ae>
 800751a:	4601      	mov	r1, r0
 800751c:	4648      	mov	r0, r9
 800751e:	f000 fd7f 	bl	8008020 <__pow5mult>
 8007522:	9b02      	ldr	r3, [sp, #8]
 8007524:	2b01      	cmp	r3, #1
 8007526:	4606      	mov	r6, r0
 8007528:	f340 80d4 	ble.w	80076d4 <_dtoa_r+0xa94>
 800752c:	2300      	movs	r3, #0
 800752e:	930c      	str	r3, [sp, #48]	; 0x30
 8007530:	6933      	ldr	r3, [r6, #16]
 8007532:	eb06 0383 	add.w	r3, r6, r3, lsl #2
 8007536:	6918      	ldr	r0, [r3, #16]
 8007538:	f000 fc6a 	bl	8007e10 <__hi0bits>
 800753c:	f1c0 0020 	rsb	r0, r0, #32
 8007540:	e6c9      	b.n	80072d6 <_dtoa_r+0x696>
 8007542:	900d      	str	r0, [sp, #52]	; 0x34
 8007544:	e428      	b.n	8006d98 <_dtoa_r+0x158>
 8007546:	2501      	movs	r5, #1
 8007548:	e43e      	b.n	8006dc8 <_dtoa_r+0x188>
 800754a:	f1c3 0820 	rsb	r8, r3, #32
 800754e:	9b00      	ldr	r3, [sp, #0]
 8007550:	fa03 f008 	lsl.w	r0, r3, r8
 8007554:	f7ff bbd6 	b.w	8006d04 <_dtoa_r+0xc4>
 8007558:	2300      	movs	r3, #0
 800755a:	930a      	str	r3, [sp, #40]	; 0x28
 800755c:	e9dd 3206 	ldrd	r3, r2, [sp, #24]
 8007560:	4413      	add	r3, r2
 8007562:	930e      	str	r3, [sp, #56]	; 0x38
 8007564:	3301      	adds	r3, #1
 8007566:	2b01      	cmp	r3, #1
 8007568:	461e      	mov	r6, r3
 800756a:	9309      	str	r3, [sp, #36]	; 0x24
 800756c:	bfb8      	it	lt
 800756e:	2601      	movlt	r6, #1
 8007570:	2100      	movs	r1, #0
 8007572:	2e17      	cmp	r6, #23
 8007574:	f8c9 1044 	str.w	r1, [r9, #68]	; 0x44
 8007578:	9c09      	ldr	r4, [sp, #36]	; 0x24
 800757a:	f77f ac87 	ble.w	8006e8c <_dtoa_r+0x24c>
 800757e:	2201      	movs	r2, #1
 8007580:	2304      	movs	r3, #4
 8007582:	005b      	lsls	r3, r3, #1
 8007584:	f103 0014 	add.w	r0, r3, #20
 8007588:	42b0      	cmp	r0, r6
 800758a:	4611      	mov	r1, r2
 800758c:	f102 0201 	add.w	r2, r2, #1
 8007590:	d9f7      	bls.n	8007582 <_dtoa_r+0x942>
 8007592:	f8c9 1044 	str.w	r1, [r9, #68]	; 0x44
 8007596:	e479      	b.n	8006e8c <_dtoa_r+0x24c>
 8007598:	2300      	movs	r3, #0
 800759a:	930a      	str	r3, [sp, #40]	; 0x28
 800759c:	9e07      	ldr	r6, [sp, #28]
 800759e:	2e00      	cmp	r6, #0
 80075a0:	f340 80e2 	ble.w	8007768 <_dtoa_r+0xb28>
 80075a4:	960e      	str	r6, [sp, #56]	; 0x38
 80075a6:	9609      	str	r6, [sp, #36]	; 0x24
 80075a8:	e7e2      	b.n	8007570 <_dtoa_r+0x930>
 80075aa:	2301      	movs	r3, #1
 80075ac:	930a      	str	r3, [sp, #40]	; 0x28
 80075ae:	e7f5      	b.n	800759c <_dtoa_r+0x95c>
 80075b0:	9b00      	ldr	r3, [sp, #0]
 80075b2:	2b00      	cmp	r3, #0
 80075b4:	f47f ae8e 	bne.w	80072d4 <_dtoa_r+0x694>
 80075b8:	e9dd 1200 	ldrd	r1, r2, [sp]
 80075bc:	f3c2 0313 	ubfx	r3, r2, #0, #20
 80075c0:	2b00      	cmp	r3, #0
 80075c2:	f040 8193 	bne.w	80078ec <_dtoa_r+0xcac>
 80075c6:	f022 4300 	bic.w	r3, r2, #2147483648	; 0x80000000
 80075ca:	0d1b      	lsrs	r3, r3, #20
 80075cc:	051b      	lsls	r3, r3, #20
 80075ce:	b12b      	cbz	r3, 80075dc <_dtoa_r+0x99c>
 80075d0:	9b08      	ldr	r3, [sp, #32]
 80075d2:	3301      	adds	r3, #1
 80075d4:	9308      	str	r3, [sp, #32]
 80075d6:	f108 0801 	add.w	r8, r8, #1
 80075da:	2301      	movs	r3, #1
 80075dc:	9a0c      	ldr	r2, [sp, #48]	; 0x30
 80075de:	930c      	str	r3, [sp, #48]	; 0x30
 80075e0:	2a00      	cmp	r2, #0
 80075e2:	f43f ae77 	beq.w	80072d4 <_dtoa_r+0x694>
 80075e6:	e7a3      	b.n	8007530 <_dtoa_r+0x8f0>
 80075e8:	463a      	mov	r2, r7
 80075ea:	4629      	mov	r1, r5
 80075ec:	4648      	mov	r0, r9
 80075ee:	f000 fd17 	bl	8008020 <__pow5mult>
 80075f2:	4652      	mov	r2, sl
 80075f4:	4601      	mov	r1, r0
 80075f6:	4605      	mov	r5, r0
 80075f8:	4648      	mov	r0, r9
 80075fa:	f000 fc69 	bl	8007ed0 <__multiply>
 80075fe:	4651      	mov	r1, sl
 8007600:	4607      	mov	r7, r0
 8007602:	4648      	mov	r0, r9
 8007604:	f000 fbb4 	bl	8007d70 <_Bfree>
 8007608:	46ba      	mov	sl, r7
 800760a:	2e00      	cmp	r6, #0
 800760c:	f43f ae55 	beq.w	80072ba <_dtoa_r+0x67a>
 8007610:	e64d      	b.n	80072ae <_dtoa_r+0x66e>
 8007612:	4629      	mov	r1, r5
 8007614:	4622      	mov	r2, r4
 8007616:	4648      	mov	r0, r9
 8007618:	f000 fd52 	bl	80080c0 <__lshift>
 800761c:	4605      	mov	r5, r0
 800761e:	e68b      	b.n	8007338 <_dtoa_r+0x6f8>
 8007620:	9a0f      	ldr	r2, [sp, #60]	; 0x3c
 8007622:	2a00      	cmp	r2, #0
 8007624:	f000 815e 	beq.w	80078e4 <_dtoa_r+0xca4>
 8007628:	f203 4333 	addw	r3, r3, #1075	; 0x433
 800762c:	9a08      	ldr	r2, [sp, #32]
 800762e:	9f0b      	ldr	r7, [sp, #44]	; 0x2c
 8007630:	4614      	mov	r4, r2
 8007632:	441a      	add	r2, r3
 8007634:	4498      	add	r8, r3
 8007636:	9208      	str	r2, [sp, #32]
 8007638:	e5f5      	b.n	8007226 <_dtoa_r+0x5e6>
 800763a:	9b09      	ldr	r3, [sp, #36]	; 0x24
 800763c:	2b00      	cmp	r3, #0
 800763e:	f73f ad3c 	bgt.w	80070ba <_dtoa_r+0x47a>
 8007642:	f040 80bc 	bne.w	80077be <_dtoa_r+0xb7e>
 8007646:	ec51 0b17 	vmov	r0, r1, d7
 800764a:	2200      	movs	r2, #0
 800764c:	4bb3      	ldr	r3, [pc, #716]	; (800791c <_dtoa_r+0xcdc>)
 800764e:	f7f9 f817 	bl	8000680 <__aeabi_dmul>
 8007652:	e9dd 2300 	ldrd	r2, r3, [sp]
 8007656:	f7f9 fdaf 	bl	80011b8 <__aeabi_dcmpge>
 800765a:	9e09      	ldr	r6, [sp, #36]	; 0x24
 800765c:	4635      	mov	r5, r6
 800765e:	2800      	cmp	r0, #0
 8007660:	d176      	bne.n	8007750 <_dtoa_r+0xb10>
 8007662:	9a06      	ldr	r2, [sp, #24]
 8007664:	2331      	movs	r3, #49	; 0x31
 8007666:	3201      	adds	r2, #1
 8007668:	9206      	str	r2, [sp, #24]
 800766a:	f88b 3000 	strb.w	r3, [fp]
 800766e:	f10b 0401 	add.w	r4, fp, #1
 8007672:	4631      	mov	r1, r6
 8007674:	4648      	mov	r0, r9
 8007676:	f000 fb7b 	bl	8007d70 <_Bfree>
 800767a:	2d00      	cmp	r5, #0
 800767c:	f47f af34 	bne.w	80074e8 <_dtoa_r+0x8a8>
 8007680:	e736      	b.n	80074f0 <_dtoa_r+0x8b0>
 8007682:	f000 8143 	beq.w	800790c <_dtoa_r+0xccc>
 8007686:	9b06      	ldr	r3, [sp, #24]
 8007688:	425c      	negs	r4, r3
 800768a:	4ba5      	ldr	r3, [pc, #660]	; (8007920 <_dtoa_r+0xce0>)
 800768c:	f004 020f 	and.w	r2, r4, #15
 8007690:	eb03 03c2 	add.w	r3, r3, r2, lsl #3
 8007694:	e9d3 2300 	ldrd	r2, r3, [r3]
 8007698:	e9dd 0110 	ldrd	r0, r1, [sp, #64]	; 0x40
 800769c:	f7f8 fff0 	bl	8000680 <__aeabi_dmul>
 80076a0:	1124      	asrs	r4, r4, #4
 80076a2:	e9cd 0100 	strd	r0, r1, [sp]
 80076a6:	f000 81c8 	beq.w	8007a3a <_dtoa_r+0xdfa>
 80076aa:	4d9e      	ldr	r5, [pc, #632]	; (8007924 <_dtoa_r+0xce4>)
 80076ac:	2300      	movs	r3, #0
 80076ae:	2602      	movs	r6, #2
 80076b0:	07e7      	lsls	r7, r4, #31
 80076b2:	d505      	bpl.n	80076c0 <_dtoa_r+0xa80>
 80076b4:	e9d5 2300 	ldrd	r2, r3, [r5]
 80076b8:	f7f8 ffe2 	bl	8000680 <__aeabi_dmul>
 80076bc:	3601      	adds	r6, #1
 80076be:	2301      	movs	r3, #1
 80076c0:	1064      	asrs	r4, r4, #1
 80076c2:	f105 0508 	add.w	r5, r5, #8
 80076c6:	d1f3      	bne.n	80076b0 <_dtoa_r+0xa70>
 80076c8:	2b00      	cmp	r3, #0
 80076ca:	f43f ac25 	beq.w	8006f18 <_dtoa_r+0x2d8>
 80076ce:	e9cd 0100 	strd	r0, r1, [sp]
 80076d2:	e421      	b.n	8006f18 <_dtoa_r+0x2d8>
 80076d4:	9b00      	ldr	r3, [sp, #0]
 80076d6:	2b00      	cmp	r3, #0
 80076d8:	f43f af6e 	beq.w	80075b8 <_dtoa_r+0x978>
 80076dc:	e726      	b.n	800752c <_dtoa_r+0x8ec>
 80076de:	6869      	ldr	r1, [r5, #4]
 80076e0:	4648      	mov	r0, r9
 80076e2:	f000 fb1d 	bl	8007d20 <_Balloc>
 80076e6:	692b      	ldr	r3, [r5, #16]
 80076e8:	3302      	adds	r3, #2
 80076ea:	009a      	lsls	r2, r3, #2
 80076ec:	4604      	mov	r4, r0
 80076ee:	f105 010c 	add.w	r1, r5, #12
 80076f2:	300c      	adds	r0, #12
 80076f4:	f7f9 fb8c 	bl	8000e10 <memcpy>
 80076f8:	4621      	mov	r1, r4
 80076fa:	2201      	movs	r2, #1
 80076fc:	4648      	mov	r0, r9
 80076fe:	f000 fcdf 	bl	80080c0 <__lshift>
 8007702:	4680      	mov	r8, r0
 8007704:	e61d      	b.n	8007342 <_dtoa_r+0x702>
 8007706:	2400      	movs	r4, #0
 8007708:	f8c9 4044 	str.w	r4, [r9, #68]	; 0x44
 800770c:	4621      	mov	r1, r4
 800770e:	4648      	mov	r0, r9
 8007710:	f000 fb06 	bl	8007d20 <_Balloc>
 8007714:	f04f 33ff 	mov.w	r3, #4294967295
 8007718:	930e      	str	r3, [sp, #56]	; 0x38
 800771a:	9309      	str	r3, [sp, #36]	; 0x24
 800771c:	2301      	movs	r3, #1
 800771e:	4683      	mov	fp, r0
 8007720:	9407      	str	r4, [sp, #28]
 8007722:	f8c9 0040 	str.w	r0, [r9, #64]	; 0x40
 8007726:	930a      	str	r3, [sp, #40]	; 0x28
 8007728:	e4b4      	b.n	8007094 <_dtoa_r+0x454>
 800772a:	f000 fb31 	bl	8007d90 <__multadd>
 800772e:	4627      	mov	r7, r4
 8007730:	4605      	mov	r5, r0
 8007732:	4680      	mov	r8, r0
 8007734:	e612      	b.n	800735c <_dtoa_r+0x71c>
 8007736:	4648      	mov	r0, r9
 8007738:	f000 fb1a 	bl	8007d70 <_Bfree>
 800773c:	2301      	movs	r3, #1
 800773e:	e637      	b.n	80073b0 <_dtoa_r+0x770>
 8007740:	9b02      	ldr	r3, [sp, #8]
 8007742:	2b02      	cmp	r3, #2
 8007744:	f77f adf1 	ble.w	800732a <_dtoa_r+0x6ea>
 8007748:	9b09      	ldr	r3, [sp, #36]	; 0x24
 800774a:	2b00      	cmp	r3, #0
 800774c:	f000 80d0 	beq.w	80078f0 <_dtoa_r+0xcb0>
 8007750:	9b07      	ldr	r3, [sp, #28]
 8007752:	43db      	mvns	r3, r3
 8007754:	9306      	str	r3, [sp, #24]
 8007756:	465c      	mov	r4, fp
 8007758:	e78b      	b.n	8007672 <_dtoa_r+0xa32>
 800775a:	9a06      	ldr	r2, [sp, #24]
 800775c:	2331      	movs	r3, #49	; 0x31
 800775e:	3201      	adds	r2, #1
 8007760:	9206      	str	r2, [sp, #24]
 8007762:	f88b 3000 	strb.w	r3, [fp]
 8007766:	e6b3      	b.n	80074d0 <_dtoa_r+0x890>
 8007768:	2401      	movs	r4, #1
 800776a:	9409      	str	r4, [sp, #36]	; 0x24
 800776c:	9407      	str	r4, [sp, #28]
 800776e:	f7ff bb89 	b.w	8006e84 <_dtoa_r+0x244>
 8007772:	4630      	mov	r0, r6
 8007774:	f7f8 ff16 	bl	80005a4 <__aeabi_i2d>
 8007778:	e9dd 2300 	ldrd	r2, r3, [sp]
 800777c:	f7f8 ff80 	bl	8000680 <__aeabi_dmul>
 8007780:	2200      	movs	r2, #0
 8007782:	4b69      	ldr	r3, [pc, #420]	; (8007928 <_dtoa_r+0xce8>)
 8007784:	f7f8 fdc2 	bl	800030c <__adddf3>
 8007788:	4606      	mov	r6, r0
 800778a:	f1a1 7750 	sub.w	r7, r1, #54525952	; 0x3400000
 800778e:	2200      	movs	r2, #0
 8007790:	4b62      	ldr	r3, [pc, #392]	; (800791c <_dtoa_r+0xcdc>)
 8007792:	e9dd 0100 	ldrd	r0, r1, [sp]
 8007796:	f7f8 fdb7 	bl	8000308 <__aeabi_dsub>
 800779a:	4632      	mov	r2, r6
 800779c:	463b      	mov	r3, r7
 800779e:	4604      	mov	r4, r0
 80077a0:	460d      	mov	r5, r1
 80077a2:	f7f9 fd13 	bl	80011cc <__aeabi_dcmpgt>
 80077a6:	2800      	cmp	r0, #0
 80077a8:	d150      	bne.n	800784c <_dtoa_r+0xc0c>
 80077aa:	4632      	mov	r2, r6
 80077ac:	f107 4300 	add.w	r3, r7, #2147483648	; 0x80000000
 80077b0:	4620      	mov	r0, r4
 80077b2:	4629      	mov	r1, r5
 80077b4:	f7f9 fcec 	bl	8001190 <__aeabi_dcmplt>
 80077b8:	2800      	cmp	r0, #0
 80077ba:	f43f ac67 	beq.w	800708c <_dtoa_r+0x44c>
 80077be:	2600      	movs	r6, #0
 80077c0:	4635      	mov	r5, r6
 80077c2:	e7c5      	b.n	8007750 <_dtoa_r+0xb10>
 80077c4:	2301      	movs	r3, #1
 80077c6:	930a      	str	r3, [sp, #40]	; 0x28
 80077c8:	e6c8      	b.n	800755c <_dtoa_r+0x91c>
 80077ca:	4651      	mov	r1, sl
 80077cc:	9a0b      	ldr	r2, [sp, #44]	; 0x2c
 80077ce:	4648      	mov	r0, r9
 80077d0:	f000 fc26 	bl	8008020 <__pow5mult>
 80077d4:	4682      	mov	sl, r0
 80077d6:	e570      	b.n	80072ba <_dtoa_r+0x67a>
 80077d8:	f8dd a000 	ldr.w	sl, [sp]
 80077dc:	f8dd 901c 	ldr.w	r9, [sp, #28]
 80077e0:	e686      	b.n	80074f0 <_dtoa_r+0x8b0>
 80077e2:	9b0b      	ldr	r3, [sp, #44]	; 0x2c
 80077e4:	9a0c      	ldr	r2, [sp, #48]	; 0x30
 80077e6:	1afb      	subs	r3, r7, r3
 80077e8:	441a      	add	r2, r3
 80077ea:	e9cd 720b 	strd	r7, r2, [sp, #44]	; 0x2c
 80077ee:	2700      	movs	r7, #0
 80077f0:	e510      	b.n	8007214 <_dtoa_r+0x5d4>
 80077f2:	2b00      	cmp	r3, #0
 80077f4:	9402      	str	r4, [sp, #8]
 80077f6:	465e      	mov	r6, fp
 80077f8:	f107 0401 	add.w	r4, r7, #1
 80077fc:	f8dd b02c 	ldr.w	fp, [sp, #44]	; 0x2c
 8007800:	f300 80bc 	bgt.w	800797c <_dtoa_r+0xd3c>
 8007804:	f89d 3000 	ldrb.w	r3, [sp]
 8007808:	9502      	str	r5, [sp, #8]
 800780a:	703b      	strb	r3, [r7, #0]
 800780c:	4645      	mov	r5, r8
 800780e:	e65f      	b.n	80074d0 <_dtoa_r+0x890>
 8007810:	ed9d 7b10 	vldr	d7, [sp, #64]	; 0x40
 8007814:	2602      	movs	r6, #2
 8007816:	ed8d 7b12 	vstr	d7, [sp, #72]	; 0x48
 800781a:	f7ff bb64 	b.w	8006ee6 <_dtoa_r+0x2a6>
 800781e:	9b00      	ldr	r3, [sp, #0]
 8007820:	2b39      	cmp	r3, #57	; 0x39
 8007822:	465e      	mov	r6, fp
 8007824:	f8dd b02c 	ldr.w	fp, [sp, #44]	; 0x2c
 8007828:	f000 80ba 	beq.w	80079a0 <_dtoa_r+0xd60>
 800782c:	9b00      	ldr	r3, [sp, #0]
 800782e:	9502      	str	r5, [sp, #8]
 8007830:	3301      	adds	r3, #1
 8007832:	703b      	strb	r3, [r7, #0]
 8007834:	4645      	mov	r5, r8
 8007836:	e64b      	b.n	80074d0 <_dtoa_r+0x890>
 8007838:	e9dd 3208 	ldrd	r3, r2, [sp, #32]
 800783c:	1a9c      	subs	r4, r3, r2
 800783e:	e4f2      	b.n	8007226 <_dtoa_r+0x5e6>
 8007840:	465e      	mov	r6, fp
 8007842:	9502      	str	r5, [sp, #8]
 8007844:	f8dd b02c 	ldr.w	fp, [sp, #44]	; 0x2c
 8007848:	4645      	mov	r5, r8
 800784a:	e618      	b.n	800747e <_dtoa_r+0x83e>
 800784c:	2600      	movs	r6, #0
 800784e:	4635      	mov	r5, r6
 8007850:	e707      	b.n	8007662 <_dtoa_r+0xa22>
 8007852:	e9dd 2314 	ldrd	r2, r3, [sp, #80]	; 0x50
 8007856:	e9dd 0100 	ldrd	r0, r1, [sp]
 800785a:	f7f8 ff11 	bl	8000680 <__aeabi_dmul>
 800785e:	9b12      	ldr	r3, [sp, #72]	; 0x48
 8007860:	f88b 5000 	strb.w	r5, [fp]
 8007864:	2b01      	cmp	r3, #1
 8007866:	e9cd 0100 	strd	r0, r1, [sp]
 800786a:	d020      	beq.n	80078ae <_dtoa_r+0xc6e>
 800786c:	9b12      	ldr	r3, [sp, #72]	; 0x48
 800786e:	f8cd 8048 	str.w	r8, [sp, #72]	; 0x48
 8007872:	445b      	add	r3, fp
 8007874:	4698      	mov	r8, r3
 8007876:	2200      	movs	r2, #0
 8007878:	4b2c      	ldr	r3, [pc, #176]	; (800792c <_dtoa_r+0xcec>)
 800787a:	4630      	mov	r0, r6
 800787c:	4639      	mov	r1, r7
 800787e:	f7f8 feff 	bl	8000680 <__aeabi_dmul>
 8007882:	460f      	mov	r7, r1
 8007884:	4606      	mov	r6, r0
 8007886:	f7f9 f913 	bl	8000ab0 <__aeabi_d2iz>
 800788a:	4605      	mov	r5, r0
 800788c:	f7f8 fe8a 	bl	80005a4 <__aeabi_i2d>
 8007890:	3530      	adds	r5, #48	; 0x30
 8007892:	4602      	mov	r2, r0
 8007894:	460b      	mov	r3, r1
 8007896:	4630      	mov	r0, r6
 8007898:	4639      	mov	r1, r7
 800789a:	f7f8 fd35 	bl	8000308 <__aeabi_dsub>
 800789e:	f804 5b01 	strb.w	r5, [r4], #1
 80078a2:	4544      	cmp	r4, r8
 80078a4:	4606      	mov	r6, r0
 80078a6:	460f      	mov	r7, r1
 80078a8:	d1e5      	bne.n	8007876 <_dtoa_r+0xc36>
 80078aa:	f8dd 8048 	ldr.w	r8, [sp, #72]	; 0x48
 80078ae:	4b20      	ldr	r3, [pc, #128]	; (8007930 <_dtoa_r+0xcf0>)
 80078b0:	2200      	movs	r2, #0
 80078b2:	e9dd 0100 	ldrd	r0, r1, [sp]
 80078b6:	f7f8 fd29 	bl	800030c <__adddf3>
 80078ba:	4632      	mov	r2, r6
 80078bc:	463b      	mov	r3, r7
 80078be:	f7f9 fc67 	bl	8001190 <__aeabi_dcmplt>
 80078c2:	2800      	cmp	r0, #0
 80078c4:	d071      	beq.n	80079aa <_dtoa_r+0xd6a>
 80078c6:	9b16      	ldr	r3, [sp, #88]	; 0x58
 80078c8:	9306      	str	r3, [sp, #24]
 80078ca:	f814 5c01 	ldrb.w	r5, [r4, #-1]
 80078ce:	e48c      	b.n	80071ea <_dtoa_r+0x5aa>
 80078d0:	2330      	movs	r3, #48	; 0x30
 80078d2:	f88b 3000 	strb.w	r3, [fp]
 80078d6:	9b06      	ldr	r3, [sp, #24]
 80078d8:	f814 5c01 	ldrb.w	r5, [r4, #-1]
 80078dc:	3301      	adds	r3, #1
 80078de:	9306      	str	r3, [sp, #24]
 80078e0:	465b      	mov	r3, fp
 80078e2:	e486      	b.n	80071f2 <_dtoa_r+0x5b2>
 80078e4:	9b18      	ldr	r3, [sp, #96]	; 0x60
 80078e6:	f1c3 0336 	rsb	r3, r3, #54	; 0x36
 80078ea:	e69f      	b.n	800762c <_dtoa_r+0x9ec>
 80078ec:	2300      	movs	r3, #0
 80078ee:	e675      	b.n	80075dc <_dtoa_r+0x99c>
 80078f0:	4631      	mov	r1, r6
 80078f2:	2205      	movs	r2, #5
 80078f4:	4648      	mov	r0, r9
 80078f6:	f000 fa4b 	bl	8007d90 <__multadd>
 80078fa:	4601      	mov	r1, r0
 80078fc:	4606      	mov	r6, r0
 80078fe:	4650      	mov	r0, sl
 8007900:	f000 fc36 	bl	8008170 <__mcmp>
 8007904:	2800      	cmp	r0, #0
 8007906:	f73f aeac 	bgt.w	8007662 <_dtoa_r+0xa22>
 800790a:	e721      	b.n	8007750 <_dtoa_r+0xb10>
 800790c:	ed9d 7b10 	vldr	d7, [sp, #64]	; 0x40
 8007910:	2602      	movs	r6, #2
 8007912:	ed8d 7b00 	vstr	d7, [sp]
 8007916:	f7ff baff 	b.w	8006f18 <_dtoa_r+0x2d8>
 800791a:	bf00      	nop
 800791c:	40140000 	.word	0x40140000
 8007920:	08008e30 	.word	0x08008e30
 8007924:	08008e00 	.word	0x08008e00
 8007928:	401c0000 	.word	0x401c0000
 800792c:	40240000 	.word	0x40240000
 8007930:	3fe00000 	.word	0x3fe00000
 8007934:	9b09      	ldr	r3, [sp, #36]	; 0x24
 8007936:	2b00      	cmp	r3, #0
 8007938:	f43f af1b 	beq.w	8007772 <_dtoa_r+0xb32>
 800793c:	9c0e      	ldr	r4, [sp, #56]	; 0x38
 800793e:	2c00      	cmp	r4, #0
 8007940:	f77f aba4 	ble.w	800708c <_dtoa_r+0x44c>
 8007944:	2200      	movs	r2, #0
 8007946:	4b45      	ldr	r3, [pc, #276]	; (8007a5c <_dtoa_r+0xe1c>)
 8007948:	e9dd 0100 	ldrd	r0, r1, [sp]
 800794c:	f7f8 fe98 	bl	8000680 <__aeabi_dmul>
 8007950:	e9cd 0100 	strd	r0, r1, [sp]
 8007954:	1c70      	adds	r0, r6, #1
 8007956:	f7f8 fe25 	bl	80005a4 <__aeabi_i2d>
 800795a:	e9dd 2300 	ldrd	r2, r3, [sp]
 800795e:	f7f8 fe8f 	bl	8000680 <__aeabi_dmul>
 8007962:	4b3f      	ldr	r3, [pc, #252]	; (8007a60 <_dtoa_r+0xe20>)
 8007964:	2200      	movs	r2, #0
 8007966:	f7f8 fcd1 	bl	800030c <__adddf3>
 800796a:	9b06      	ldr	r3, [sp, #24]
 800796c:	9412      	str	r4, [sp, #72]	; 0x48
 800796e:	3b01      	subs	r3, #1
 8007970:	4606      	mov	r6, r0
 8007972:	f1a1 7750 	sub.w	r7, r1, #54525952	; 0x3400000
 8007976:	9316      	str	r3, [sp, #88]	; 0x58
 8007978:	f7ff baef 	b.w	8006f5a <_dtoa_r+0x31a>
 800797c:	4651      	mov	r1, sl
 800797e:	2201      	movs	r2, #1
 8007980:	4648      	mov	r0, r9
 8007982:	f000 fb9d 	bl	80080c0 <__lshift>
 8007986:	4631      	mov	r1, r6
 8007988:	4682      	mov	sl, r0
 800798a:	f000 fbf1 	bl	8008170 <__mcmp>
 800798e:	2800      	cmp	r0, #0
 8007990:	dd3b      	ble.n	8007a0a <_dtoa_r+0xdca>
 8007992:	9b00      	ldr	r3, [sp, #0]
 8007994:	2b39      	cmp	r3, #57	; 0x39
 8007996:	d003      	beq.n	80079a0 <_dtoa_r+0xd60>
 8007998:	9b02      	ldr	r3, [sp, #8]
 800799a:	3331      	adds	r3, #49	; 0x31
 800799c:	9300      	str	r3, [sp, #0]
 800799e:	e731      	b.n	8007804 <_dtoa_r+0xbc4>
 80079a0:	2239      	movs	r2, #57	; 0x39
 80079a2:	9502      	str	r5, [sp, #8]
 80079a4:	703a      	strb	r2, [r7, #0]
 80079a6:	4645      	mov	r5, r8
 80079a8:	e58c      	b.n	80074c4 <_dtoa_r+0x884>
 80079aa:	e9dd 2300 	ldrd	r2, r3, [sp]
 80079ae:	2000      	movs	r0, #0
 80079b0:	492c      	ldr	r1, [pc, #176]	; (8007a64 <_dtoa_r+0xe24>)
 80079b2:	f7f8 fca9 	bl	8000308 <__aeabi_dsub>
 80079b6:	4632      	mov	r2, r6
 80079b8:	463b      	mov	r3, r7
 80079ba:	f7f9 fc07 	bl	80011cc <__aeabi_dcmpgt>
 80079be:	b910      	cbnz	r0, 80079c6 <_dtoa_r+0xd86>
 80079c0:	f7ff bb64 	b.w	800708c <_dtoa_r+0x44c>
 80079c4:	4614      	mov	r4, r2
 80079c6:	f814 3c01 	ldrb.w	r3, [r4, #-1]
 80079ca:	2b30      	cmp	r3, #48	; 0x30
 80079cc:	f104 32ff 	add.w	r2, r4, #4294967295
 80079d0:	d0f8      	beq.n	80079c4 <_dtoa_r+0xd84>
 80079d2:	9b16      	ldr	r3, [sp, #88]	; 0x58
 80079d4:	9306      	str	r3, [sp, #24]
 80079d6:	e58b      	b.n	80074f0 <_dtoa_r+0x8b0>
 80079d8:	46d9      	mov	r9, fp
 80079da:	f8dd a048 	ldr.w	sl, [sp, #72]	; 0x48
 80079de:	f8dd b050 	ldr.w	fp, [sp, #80]	; 0x50
 80079e2:	9b16      	ldr	r3, [sp, #88]	; 0x58
 80079e4:	9306      	str	r3, [sp, #24]
 80079e6:	e400      	b.n	80071ea <_dtoa_r+0x5aa>
 80079e8:	9b00      	ldr	r3, [sp, #0]
 80079ea:	2b39      	cmp	r3, #57	; 0x39
 80079ec:	4621      	mov	r1, r4
 80079ee:	4632      	mov	r2, r6
 80079f0:	f107 0401 	add.w	r4, r7, #1
 80079f4:	465e      	mov	r6, fp
 80079f6:	f8dd b02c 	ldr.w	fp, [sp, #44]	; 0x2c
 80079fa:	d0d1      	beq.n	80079a0 <_dtoa_r+0xd60>
 80079fc:	2a00      	cmp	r2, #0
 80079fe:	f77f af01 	ble.w	8007804 <_dtoa_r+0xbc4>
 8007a02:	460b      	mov	r3, r1
 8007a04:	3331      	adds	r3, #49	; 0x31
 8007a06:	9300      	str	r3, [sp, #0]
 8007a08:	e6fc      	b.n	8007804 <_dtoa_r+0xbc4>
 8007a0a:	f47f aefb 	bne.w	8007804 <_dtoa_r+0xbc4>
 8007a0e:	9b00      	ldr	r3, [sp, #0]
 8007a10:	07da      	lsls	r2, r3, #31
 8007a12:	f57f aef7 	bpl.w	8007804 <_dtoa_r+0xbc4>
 8007a16:	e7bc      	b.n	8007992 <_dtoa_r+0xd52>
 8007a18:	4629      	mov	r1, r5
 8007a1a:	2300      	movs	r3, #0
 8007a1c:	220a      	movs	r2, #10
 8007a1e:	4648      	mov	r0, r9
 8007a20:	f000 f9b6 	bl	8007d90 <__multadd>
 8007a24:	9b0e      	ldr	r3, [sp, #56]	; 0x38
 8007a26:	2b00      	cmp	r3, #0
 8007a28:	4605      	mov	r5, r0
 8007a2a:	dd09      	ble.n	8007a40 <_dtoa_r+0xe00>
 8007a2c:	9309      	str	r3, [sp, #36]	; 0x24
 8007a2e:	e480      	b.n	8007332 <_dtoa_r+0x6f2>
 8007a30:	9b02      	ldr	r3, [sp, #8]
 8007a32:	2b02      	cmp	r3, #2
 8007a34:	dc0e      	bgt.n	8007a54 <_dtoa_r+0xe14>
 8007a36:	9b0e      	ldr	r3, [sp, #56]	; 0x38
 8007a38:	e504      	b.n	8007444 <_dtoa_r+0x804>
 8007a3a:	2602      	movs	r6, #2
 8007a3c:	f7ff ba6c 	b.w	8006f18 <_dtoa_r+0x2d8>
 8007a40:	9b02      	ldr	r3, [sp, #8]
 8007a42:	2b02      	cmp	r3, #2
 8007a44:	dc06      	bgt.n	8007a54 <_dtoa_r+0xe14>
 8007a46:	9b0e      	ldr	r3, [sp, #56]	; 0x38
 8007a48:	e7f0      	b.n	8007a2c <_dtoa_r+0xdec>
 8007a4a:	f43f ac55 	beq.w	80072f8 <_dtoa_r+0x6b8>
 8007a4e:	f1c0 003c 	rsb	r0, r0, #60	; 0x3c
 8007a52:	e44c      	b.n	80072ee <_dtoa_r+0x6ae>
 8007a54:	9b0e      	ldr	r3, [sp, #56]	; 0x38
 8007a56:	9309      	str	r3, [sp, #36]	; 0x24
 8007a58:	e676      	b.n	8007748 <_dtoa_r+0xb08>
 8007a5a:	bf00      	nop
 8007a5c:	40240000 	.word	0x40240000
 8007a60:	401c0000 	.word	0x401c0000
 8007a64:	3fe00000 	.word	0x3fe00000
	...

08007a70 <_malloc_trim_r>:
 8007a70:	b5f8      	push	{r3, r4, r5, r6, r7, lr}
 8007a72:	4f24      	ldr	r7, [pc, #144]	; (8007b04 <_malloc_trim_r+0x94>)
 8007a74:	460c      	mov	r4, r1
 8007a76:	4606      	mov	r6, r0
 8007a78:	f7f9 fd32 	bl	80014e0 <__malloc_lock>
 8007a7c:	68bb      	ldr	r3, [r7, #8]
 8007a7e:	685d      	ldr	r5, [r3, #4]
 8007a80:	f5c4 617e 	rsb	r1, r4, #4064	; 0xfe0
 8007a84:	310f      	adds	r1, #15
 8007a86:	f025 0503 	bic.w	r5, r5, #3
 8007a8a:	4429      	add	r1, r5
 8007a8c:	f421 617f 	bic.w	r1, r1, #4080	; 0xff0
 8007a90:	f021 010f 	bic.w	r1, r1, #15
 8007a94:	f5a1 5480 	sub.w	r4, r1, #4096	; 0x1000
 8007a98:	f5b4 5f80 	cmp.w	r4, #4096	; 0x1000
 8007a9c:	db07      	blt.n	8007aae <_malloc_trim_r+0x3e>
 8007a9e:	2100      	movs	r1, #0
 8007aa0:	4630      	mov	r0, r6
 8007aa2:	f7f9 fd4d 	bl	8001540 <_sbrk_r>
 8007aa6:	68bb      	ldr	r3, [r7, #8]
 8007aa8:	442b      	add	r3, r5
 8007aaa:	4298      	cmp	r0, r3
 8007aac:	d004      	beq.n	8007ab8 <_malloc_trim_r+0x48>
 8007aae:	4630      	mov	r0, r6
 8007ab0:	f7f9 fd2e 	bl	8001510 <__malloc_unlock>
 8007ab4:	2000      	movs	r0, #0
 8007ab6:	bdf8      	pop	{r3, r4, r5, r6, r7, pc}
 8007ab8:	4261      	negs	r1, r4
 8007aba:	4630      	mov	r0, r6
 8007abc:	f7f9 fd40 	bl	8001540 <_sbrk_r>
 8007ac0:	3001      	adds	r0, #1
 8007ac2:	d00d      	beq.n	8007ae0 <_malloc_trim_r+0x70>
 8007ac4:	4b10      	ldr	r3, [pc, #64]	; (8007b08 <_malloc_trim_r+0x98>)
 8007ac6:	68ba      	ldr	r2, [r7, #8]
 8007ac8:	6819      	ldr	r1, [r3, #0]
 8007aca:	1b2d      	subs	r5, r5, r4
 8007acc:	f045 0501 	orr.w	r5, r5, #1
 8007ad0:	4630      	mov	r0, r6
 8007ad2:	1b09      	subs	r1, r1, r4
 8007ad4:	6055      	str	r5, [r2, #4]
 8007ad6:	6019      	str	r1, [r3, #0]
 8007ad8:	f7f9 fd1a 	bl	8001510 <__malloc_unlock>
 8007adc:	2001      	movs	r0, #1
 8007ade:	bdf8      	pop	{r3, r4, r5, r6, r7, pc}
 8007ae0:	2100      	movs	r1, #0
 8007ae2:	4630      	mov	r0, r6
 8007ae4:	f7f9 fd2c 	bl	8001540 <_sbrk_r>
 8007ae8:	68ba      	ldr	r2, [r7, #8]
 8007aea:	1a83      	subs	r3, r0, r2
 8007aec:	2b0f      	cmp	r3, #15
 8007aee:	ddde      	ble.n	8007aae <_malloc_trim_r+0x3e>
 8007af0:	4c06      	ldr	r4, [pc, #24]	; (8007b0c <_malloc_trim_r+0x9c>)
 8007af2:	4905      	ldr	r1, [pc, #20]	; (8007b08 <_malloc_trim_r+0x98>)
 8007af4:	6824      	ldr	r4, [r4, #0]
 8007af6:	f043 0301 	orr.w	r3, r3, #1
 8007afa:	1b00      	subs	r0, r0, r4
 8007afc:	6053      	str	r3, [r2, #4]
 8007afe:	6008      	str	r0, [r1, #0]
 8007b00:	e7d5      	b.n	8007aae <_malloc_trim_r+0x3e>
 8007b02:	bf00      	nop
 8007b04:	20000db4 	.word	0x20000db4
 8007b08:	2000203c 	.word	0x2000203c
 8007b0c:	200011bc 	.word	0x200011bc

08007b10 <_free_r>:
 8007b10:	2900      	cmp	r1, #0
 8007b12:	d053      	beq.n	8007bbc <_free_r+0xac>
 8007b14:	b5f8      	push	{r3, r4, r5, r6, r7, lr}
 8007b16:	460c      	mov	r4, r1
 8007b18:	4606      	mov	r6, r0
 8007b1a:	f7f9 fce1 	bl	80014e0 <__malloc_lock>
 8007b1e:	f854 cc04 	ldr.w	ip, [r4, #-4]
 8007b22:	4f71      	ldr	r7, [pc, #452]	; (8007ce8 <_free_r+0x1d8>)
 8007b24:	f02c 0101 	bic.w	r1, ip, #1
 8007b28:	f1a4 0508 	sub.w	r5, r4, #8
 8007b2c:	186b      	adds	r3, r5, r1
 8007b2e:	68b8      	ldr	r0, [r7, #8]
 8007b30:	685a      	ldr	r2, [r3, #4]
 8007b32:	4298      	cmp	r0, r3
 8007b34:	f022 0203 	bic.w	r2, r2, #3
 8007b38:	d053      	beq.n	8007be2 <_free_r+0xd2>
 8007b3a:	f01c 0f01 	tst.w	ip, #1
 8007b3e:	605a      	str	r2, [r3, #4]
 8007b40:	eb03 0002 	add.w	r0, r3, r2
 8007b44:	d13b      	bne.n	8007bbe <_free_r+0xae>
 8007b46:	f854 cc08 	ldr.w	ip, [r4, #-8]
 8007b4a:	6840      	ldr	r0, [r0, #4]
 8007b4c:	eba5 050c 	sub.w	r5, r5, ip
 8007b50:	f107 0e08 	add.w	lr, r7, #8
 8007b54:	68ac      	ldr	r4, [r5, #8]
 8007b56:	4574      	cmp	r4, lr
 8007b58:	4461      	add	r1, ip
 8007b5a:	f000 0001 	and.w	r0, r0, #1
 8007b5e:	d075      	beq.n	8007c4c <_free_r+0x13c>
 8007b60:	f8d5 c00c 	ldr.w	ip, [r5, #12]
 8007b64:	f8c4 c00c 	str.w	ip, [r4, #12]
 8007b68:	f8cc 4008 	str.w	r4, [ip, #8]
 8007b6c:	b360      	cbz	r0, 8007bc8 <_free_r+0xb8>
 8007b6e:	f041 0301 	orr.w	r3, r1, #1
 8007b72:	606b      	str	r3, [r5, #4]
 8007b74:	5069      	str	r1, [r5, r1]
 8007b76:	f5b1 7f00 	cmp.w	r1, #512	; 0x200
 8007b7a:	d350      	bcc.n	8007c1e <_free_r+0x10e>
 8007b7c:	0a4b      	lsrs	r3, r1, #9
 8007b7e:	2b04      	cmp	r3, #4
 8007b80:	d870      	bhi.n	8007c64 <_free_r+0x154>
 8007b82:	098b      	lsrs	r3, r1, #6
 8007b84:	f103 0439 	add.w	r4, r3, #57	; 0x39
 8007b88:	00e4      	lsls	r4, r4, #3
 8007b8a:	f103 0238 	add.w	r2, r3, #56	; 0x38
 8007b8e:	1938      	adds	r0, r7, r4
 8007b90:	593b      	ldr	r3, [r7, r4]
 8007b92:	3808      	subs	r0, #8
 8007b94:	4298      	cmp	r0, r3
 8007b96:	d078      	beq.n	8007c8a <_free_r+0x17a>
 8007b98:	685a      	ldr	r2, [r3, #4]
 8007b9a:	f022 0203 	bic.w	r2, r2, #3
 8007b9e:	428a      	cmp	r2, r1
 8007ba0:	d971      	bls.n	8007c86 <_free_r+0x176>
 8007ba2:	689b      	ldr	r3, [r3, #8]
 8007ba4:	4298      	cmp	r0, r3
 8007ba6:	d1f7      	bne.n	8007b98 <_free_r+0x88>
 8007ba8:	68c3      	ldr	r3, [r0, #12]
 8007baa:	e9c5 0302 	strd	r0, r3, [r5, #8]
 8007bae:	609d      	str	r5, [r3, #8]
 8007bb0:	60c5      	str	r5, [r0, #12]
 8007bb2:	4630      	mov	r0, r6
 8007bb4:	e8bd 40f8 	ldmia.w	sp!, {r3, r4, r5, r6, r7, lr}
 8007bb8:	f7f9 bcaa 	b.w	8001510 <__malloc_unlock>
 8007bbc:	4770      	bx	lr
 8007bbe:	6840      	ldr	r0, [r0, #4]
 8007bc0:	f000 0001 	and.w	r0, r0, #1
 8007bc4:	2800      	cmp	r0, #0
 8007bc6:	d1d2      	bne.n	8007b6e <_free_r+0x5e>
 8007bc8:	6898      	ldr	r0, [r3, #8]
 8007bca:	4c48      	ldr	r4, [pc, #288]	; (8007cec <_free_r+0x1dc>)
 8007bcc:	4411      	add	r1, r2
 8007bce:	42a0      	cmp	r0, r4
 8007bd0:	f041 0201 	orr.w	r2, r1, #1
 8007bd4:	d062      	beq.n	8007c9c <_free_r+0x18c>
 8007bd6:	68db      	ldr	r3, [r3, #12]
 8007bd8:	60c3      	str	r3, [r0, #12]
 8007bda:	6098      	str	r0, [r3, #8]
 8007bdc:	606a      	str	r2, [r5, #4]
 8007bde:	5069      	str	r1, [r5, r1]
 8007be0:	e7c9      	b.n	8007b76 <_free_r+0x66>
 8007be2:	f01c 0f01 	tst.w	ip, #1
 8007be6:	440a      	add	r2, r1
 8007be8:	d107      	bne.n	8007bfa <_free_r+0xea>
 8007bea:	f854 3c08 	ldr.w	r3, [r4, #-8]
 8007bee:	1aed      	subs	r5, r5, r3
 8007bf0:	441a      	add	r2, r3
 8007bf2:	e9d5 1302 	ldrd	r1, r3, [r5, #8]
 8007bf6:	60cb      	str	r3, [r1, #12]
 8007bf8:	6099      	str	r1, [r3, #8]
 8007bfa:	4b3d      	ldr	r3, [pc, #244]	; (8007cf0 <_free_r+0x1e0>)
 8007bfc:	681b      	ldr	r3, [r3, #0]
 8007bfe:	f042 0101 	orr.w	r1, r2, #1
 8007c02:	4293      	cmp	r3, r2
 8007c04:	6069      	str	r1, [r5, #4]
 8007c06:	60bd      	str	r5, [r7, #8]
 8007c08:	d804      	bhi.n	8007c14 <_free_r+0x104>
 8007c0a:	4b3a      	ldr	r3, [pc, #232]	; (8007cf4 <_free_r+0x1e4>)
 8007c0c:	4630      	mov	r0, r6
 8007c0e:	6819      	ldr	r1, [r3, #0]
 8007c10:	f7ff ff2e 	bl	8007a70 <_malloc_trim_r>
 8007c14:	4630      	mov	r0, r6
 8007c16:	e8bd 40f8 	ldmia.w	sp!, {r3, r4, r5, r6, r7, lr}
 8007c1a:	f7f9 bc79 	b.w	8001510 <__malloc_unlock>
 8007c1e:	08c9      	lsrs	r1, r1, #3
 8007c20:	6878      	ldr	r0, [r7, #4]
 8007c22:	1c4a      	adds	r2, r1, #1
 8007c24:	2301      	movs	r3, #1
 8007c26:	1089      	asrs	r1, r1, #2
 8007c28:	408b      	lsls	r3, r1
 8007c2a:	4303      	orrs	r3, r0
 8007c2c:	eb07 01c2 	add.w	r1, r7, r2, lsl #3
 8007c30:	f857 0032 	ldr.w	r0, [r7, r2, lsl #3]
 8007c34:	607b      	str	r3, [r7, #4]
 8007c36:	3908      	subs	r1, #8
 8007c38:	e9c5 0102 	strd	r0, r1, [r5, #8]
 8007c3c:	f847 5032 	str.w	r5, [r7, r2, lsl #3]
 8007c40:	60c5      	str	r5, [r0, #12]
 8007c42:	4630      	mov	r0, r6
 8007c44:	e8bd 40f8 	ldmia.w	sp!, {r3, r4, r5, r6, r7, lr}
 8007c48:	f7f9 bc62 	b.w	8001510 <__malloc_unlock>
 8007c4c:	2800      	cmp	r0, #0
 8007c4e:	d145      	bne.n	8007cdc <_free_r+0x1cc>
 8007c50:	440a      	add	r2, r1
 8007c52:	e9d3 1302 	ldrd	r1, r3, [r3, #8]
 8007c56:	f042 0001 	orr.w	r0, r2, #1
 8007c5a:	60cb      	str	r3, [r1, #12]
 8007c5c:	6099      	str	r1, [r3, #8]
 8007c5e:	6068      	str	r0, [r5, #4]
 8007c60:	50aa      	str	r2, [r5, r2]
 8007c62:	e7d7      	b.n	8007c14 <_free_r+0x104>
 8007c64:	2b14      	cmp	r3, #20
 8007c66:	d908      	bls.n	8007c7a <_free_r+0x16a>
 8007c68:	2b54      	cmp	r3, #84	; 0x54
 8007c6a:	d81e      	bhi.n	8007caa <_free_r+0x19a>
 8007c6c:	0b0b      	lsrs	r3, r1, #12
 8007c6e:	f103 046f 	add.w	r4, r3, #111	; 0x6f
 8007c72:	00e4      	lsls	r4, r4, #3
 8007c74:	f103 026e 	add.w	r2, r3, #110	; 0x6e
 8007c78:	e789      	b.n	8007b8e <_free_r+0x7e>
 8007c7a:	f103 045c 	add.w	r4, r3, #92	; 0x5c
 8007c7e:	00e4      	lsls	r4, r4, #3
 8007c80:	f103 025b 	add.w	r2, r3, #91	; 0x5b
 8007c84:	e783      	b.n	8007b8e <_free_r+0x7e>
 8007c86:	4618      	mov	r0, r3
 8007c88:	e78e      	b.n	8007ba8 <_free_r+0x98>
 8007c8a:	1093      	asrs	r3, r2, #2
 8007c8c:	6879      	ldr	r1, [r7, #4]
 8007c8e:	2201      	movs	r2, #1
 8007c90:	fa02 f303 	lsl.w	r3, r2, r3
 8007c94:	430b      	orrs	r3, r1
 8007c96:	607b      	str	r3, [r7, #4]
 8007c98:	4603      	mov	r3, r0
 8007c9a:	e786      	b.n	8007baa <_free_r+0x9a>
 8007c9c:	e9c7 5504 	strd	r5, r5, [r7, #16]
 8007ca0:	e9c5 0002 	strd	r0, r0, [r5, #8]
 8007ca4:	606a      	str	r2, [r5, #4]
 8007ca6:	5069      	str	r1, [r5, r1]
 8007ca8:	e7b4      	b.n	8007c14 <_free_r+0x104>
 8007caa:	f5b3 7faa 	cmp.w	r3, #340	; 0x154
 8007cae:	d806      	bhi.n	8007cbe <_free_r+0x1ae>
 8007cb0:	0bcb      	lsrs	r3, r1, #15
 8007cb2:	f103 0478 	add.w	r4, r3, #120	; 0x78
 8007cb6:	00e4      	lsls	r4, r4, #3
 8007cb8:	f103 0277 	add.w	r2, r3, #119	; 0x77
 8007cbc:	e767      	b.n	8007b8e <_free_r+0x7e>
 8007cbe:	f240 5254 	movw	r2, #1364	; 0x554
 8007cc2:	4293      	cmp	r3, r2
 8007cc4:	d806      	bhi.n	8007cd4 <_free_r+0x1c4>
 8007cc6:	0c8b      	lsrs	r3, r1, #18
 8007cc8:	f103 047d 	add.w	r4, r3, #125	; 0x7d
 8007ccc:	00e4      	lsls	r4, r4, #3
 8007cce:	f103 027c 	add.w	r2, r3, #124	; 0x7c
 8007cd2:	e75c      	b.n	8007b8e <_free_r+0x7e>
 8007cd4:	f44f 747e 	mov.w	r4, #1016	; 0x3f8
 8007cd8:	227e      	movs	r2, #126	; 0x7e
 8007cda:	e758      	b.n	8007b8e <_free_r+0x7e>
 8007cdc:	f041 0201 	orr.w	r2, r1, #1
 8007ce0:	606a      	str	r2, [r5, #4]
 8007ce2:	6019      	str	r1, [r3, #0]
 8007ce4:	e796      	b.n	8007c14 <_free_r+0x104>
 8007ce6:	bf00      	nop
 8007ce8:	20000db4 	.word	0x20000db4
 8007cec:	20000dbc 	.word	0x20000dbc
 8007cf0:	200011c0 	.word	0x200011c0
 8007cf4:	2000206c 	.word	0x2000206c
	...

08007d00 <_localeconv_r>:
 8007d00:	4a04      	ldr	r2, [pc, #16]	; (8007d14 <_localeconv_r+0x14>)
 8007d02:	4b05      	ldr	r3, [pc, #20]	; (8007d18 <_localeconv_r+0x18>)
 8007d04:	6812      	ldr	r2, [r2, #0]
 8007d06:	6b50      	ldr	r0, [r2, #52]	; 0x34
 8007d08:	2800      	cmp	r0, #0
 8007d0a:	bf08      	it	eq
 8007d0c:	4618      	moveq	r0, r3
 8007d0e:	30f0      	adds	r0, #240	; 0xf0
 8007d10:	4770      	bx	lr
 8007d12:	bf00      	nop
 8007d14:	20000818 	.word	0x20000818
 8007d18:	20000c48 	.word	0x20000c48
 8007d1c:	00000000 	.word	0x00000000

08007d20 <_Balloc>:
 8007d20:	6cc3      	ldr	r3, [r0, #76]	; 0x4c
 8007d22:	b570      	push	{r4, r5, r6, lr}
 8007d24:	4605      	mov	r5, r0
 8007d26:	460c      	mov	r4, r1
 8007d28:	b14b      	cbz	r3, 8007d3e <_Balloc+0x1e>
 8007d2a:	f853 0024 	ldr.w	r0, [r3, r4, lsl #2]
 8007d2e:	b180      	cbz	r0, 8007d52 <_Balloc+0x32>
 8007d30:	6802      	ldr	r2, [r0, #0]
 8007d32:	f843 2024 	str.w	r2, [r3, r4, lsl #2]
 8007d36:	2300      	movs	r3, #0
 8007d38:	e9c0 3303 	strd	r3, r3, [r0, #12]
 8007d3c:	bd70      	pop	{r4, r5, r6, pc}
 8007d3e:	2221      	movs	r2, #33	; 0x21
 8007d40:	2104      	movs	r1, #4
 8007d42:	f000 fb95 	bl	8008470 <_calloc_r>
 8007d46:	4603      	mov	r3, r0
 8007d48:	64e8      	str	r0, [r5, #76]	; 0x4c
 8007d4a:	2800      	cmp	r0, #0
 8007d4c:	d1ed      	bne.n	8007d2a <_Balloc+0xa>
 8007d4e:	2000      	movs	r0, #0
 8007d50:	bd70      	pop	{r4, r5, r6, pc}
 8007d52:	2101      	movs	r1, #1
 8007d54:	fa01 f604 	lsl.w	r6, r1, r4
 8007d58:	1d72      	adds	r2, r6, #5
 8007d5a:	4628      	mov	r0, r5
 8007d5c:	0092      	lsls	r2, r2, #2
 8007d5e:	f000 fb87 	bl	8008470 <_calloc_r>
 8007d62:	2800      	cmp	r0, #0
 8007d64:	d0f3      	beq.n	8007d4e <_Balloc+0x2e>
 8007d66:	e9c0 4601 	strd	r4, r6, [r0, #4]
 8007d6a:	e7e4      	b.n	8007d36 <_Balloc+0x16>
 8007d6c:	0000      	movs	r0, r0
	...

08007d70 <_Bfree>:
 8007d70:	b131      	cbz	r1, 8007d80 <_Bfree+0x10>
 8007d72:	6cc3      	ldr	r3, [r0, #76]	; 0x4c
 8007d74:	684a      	ldr	r2, [r1, #4]
 8007d76:	f853 0022 	ldr.w	r0, [r3, r2, lsl #2]
 8007d7a:	6008      	str	r0, [r1, #0]
 8007d7c:	f843 1022 	str.w	r1, [r3, r2, lsl #2]
 8007d80:	4770      	bx	lr
 8007d82:	bf00      	nop
	...

08007d90 <__multadd>:
 8007d90:	b5f0      	push	{r4, r5, r6, r7, lr}
 8007d92:	690c      	ldr	r4, [r1, #16]
 8007d94:	b083      	sub	sp, #12
 8007d96:	460d      	mov	r5, r1
 8007d98:	4606      	mov	r6, r0
 8007d9a:	f101 0c14 	add.w	ip, r1, #20
 8007d9e:	2700      	movs	r7, #0
 8007da0:	f8dc 0000 	ldr.w	r0, [ip]
 8007da4:	b281      	uxth	r1, r0
 8007da6:	fb02 3301 	mla	r3, r2, r1, r3
 8007daa:	0c01      	lsrs	r1, r0, #16
 8007dac:	0c18      	lsrs	r0, r3, #16
 8007dae:	fb02 0101 	mla	r1, r2, r1, r0
 8007db2:	b29b      	uxth	r3, r3
 8007db4:	3701      	adds	r7, #1
 8007db6:	eb03 4301 	add.w	r3, r3, r1, lsl #16
 8007dba:	42bc      	cmp	r4, r7
 8007dbc:	f84c 3b04 	str.w	r3, [ip], #4
 8007dc0:	ea4f 4311 	mov.w	r3, r1, lsr #16
 8007dc4:	dcec      	bgt.n	8007da0 <__multadd+0x10>
 8007dc6:	b13b      	cbz	r3, 8007dd8 <__multadd+0x48>
 8007dc8:	68aa      	ldr	r2, [r5, #8]
 8007dca:	42a2      	cmp	r2, r4
 8007dcc:	dd07      	ble.n	8007dde <__multadd+0x4e>
 8007dce:	eb05 0284 	add.w	r2, r5, r4, lsl #2
 8007dd2:	3401      	adds	r4, #1
 8007dd4:	6153      	str	r3, [r2, #20]
 8007dd6:	612c      	str	r4, [r5, #16]
 8007dd8:	4628      	mov	r0, r5
 8007dda:	b003      	add	sp, #12
 8007ddc:	bdf0      	pop	{r4, r5, r6, r7, pc}
 8007dde:	6869      	ldr	r1, [r5, #4]
 8007de0:	9301      	str	r3, [sp, #4]
 8007de2:	3101      	adds	r1, #1
 8007de4:	4630      	mov	r0, r6
 8007de6:	f7ff ff9b 	bl	8007d20 <_Balloc>
 8007dea:	692a      	ldr	r2, [r5, #16]
 8007dec:	3202      	adds	r2, #2
 8007dee:	f105 010c 	add.w	r1, r5, #12
 8007df2:	4607      	mov	r7, r0
 8007df4:	0092      	lsls	r2, r2, #2
 8007df6:	300c      	adds	r0, #12
 8007df8:	f7f9 f80a 	bl	8000e10 <memcpy>
 8007dfc:	6cf2      	ldr	r2, [r6, #76]	; 0x4c
 8007dfe:	6869      	ldr	r1, [r5, #4]
 8007e00:	9b01      	ldr	r3, [sp, #4]
 8007e02:	f852 0021 	ldr.w	r0, [r2, r1, lsl #2]
 8007e06:	6028      	str	r0, [r5, #0]
 8007e08:	f842 5021 	str.w	r5, [r2, r1, lsl #2]
 8007e0c:	463d      	mov	r5, r7
 8007e0e:	e7de      	b.n	8007dce <__multadd+0x3e>

08007e10 <__hi0bits>:
 8007e10:	0c02      	lsrs	r2, r0, #16
 8007e12:	0412      	lsls	r2, r2, #16
 8007e14:	4603      	mov	r3, r0
 8007e16:	b9c2      	cbnz	r2, 8007e4a <__hi0bits+0x3a>
 8007e18:	0403      	lsls	r3, r0, #16
 8007e1a:	2010      	movs	r0, #16
 8007e1c:	f013 4f7f 	tst.w	r3, #4278190080	; 0xff000000
 8007e20:	bf04      	itt	eq
 8007e22:	021b      	lsleq	r3, r3, #8
 8007e24:	3008      	addeq	r0, #8
 8007e26:	f013 4f70 	tst.w	r3, #4026531840	; 0xf0000000
 8007e2a:	bf04      	itt	eq
 8007e2c:	011b      	lsleq	r3, r3, #4
 8007e2e:	3004      	addeq	r0, #4
 8007e30:	f013 4f40 	tst.w	r3, #3221225472	; 0xc0000000
 8007e34:	bf04      	itt	eq
 8007e36:	009b      	lsleq	r3, r3, #2
 8007e38:	3002      	addeq	r0, #2
 8007e3a:	2b00      	cmp	r3, #0
 8007e3c:	db04      	blt.n	8007e48 <__hi0bits+0x38>
 8007e3e:	005b      	lsls	r3, r3, #1
 8007e40:	d501      	bpl.n	8007e46 <__hi0bits+0x36>
 8007e42:	3001      	adds	r0, #1
 8007e44:	4770      	bx	lr
 8007e46:	2020      	movs	r0, #32
 8007e48:	4770      	bx	lr
 8007e4a:	2000      	movs	r0, #0
 8007e4c:	e7e6      	b.n	8007e1c <__hi0bits+0xc>
 8007e4e:	bf00      	nop

08007e50 <__lo0bits>:
 8007e50:	6803      	ldr	r3, [r0, #0]
 8007e52:	f013 0207 	ands.w	r2, r3, #7
 8007e56:	4601      	mov	r1, r0
 8007e58:	d007      	beq.n	8007e6a <__lo0bits+0x1a>
 8007e5a:	07da      	lsls	r2, r3, #31
 8007e5c:	d41f      	bmi.n	8007e9e <__lo0bits+0x4e>
 8007e5e:	0798      	lsls	r0, r3, #30
 8007e60:	d51f      	bpl.n	8007ea2 <__lo0bits+0x52>
 8007e62:	085b      	lsrs	r3, r3, #1
 8007e64:	600b      	str	r3, [r1, #0]
 8007e66:	2001      	movs	r0, #1
 8007e68:	4770      	bx	lr
 8007e6a:	b298      	uxth	r0, r3
 8007e6c:	b1a0      	cbz	r0, 8007e98 <__lo0bits+0x48>
 8007e6e:	4610      	mov	r0, r2
 8007e70:	f013 0fff 	tst.w	r3, #255	; 0xff
 8007e74:	bf04      	itt	eq
 8007e76:	0a1b      	lsreq	r3, r3, #8
 8007e78:	3008      	addeq	r0, #8
 8007e7a:	071a      	lsls	r2, r3, #28
 8007e7c:	bf04      	itt	eq
 8007e7e:	091b      	lsreq	r3, r3, #4
 8007e80:	3004      	addeq	r0, #4
 8007e82:	079a      	lsls	r2, r3, #30
 8007e84:	bf04      	itt	eq
 8007e86:	089b      	lsreq	r3, r3, #2
 8007e88:	3002      	addeq	r0, #2
 8007e8a:	07da      	lsls	r2, r3, #31
 8007e8c:	d402      	bmi.n	8007e94 <__lo0bits+0x44>
 8007e8e:	085b      	lsrs	r3, r3, #1
 8007e90:	d00b      	beq.n	8007eaa <__lo0bits+0x5a>
 8007e92:	3001      	adds	r0, #1
 8007e94:	600b      	str	r3, [r1, #0]
 8007e96:	4770      	bx	lr
 8007e98:	0c1b      	lsrs	r3, r3, #16
 8007e9a:	2010      	movs	r0, #16
 8007e9c:	e7e8      	b.n	8007e70 <__lo0bits+0x20>
 8007e9e:	2000      	movs	r0, #0
 8007ea0:	4770      	bx	lr
 8007ea2:	089b      	lsrs	r3, r3, #2
 8007ea4:	600b      	str	r3, [r1, #0]
 8007ea6:	2002      	movs	r0, #2
 8007ea8:	4770      	bx	lr
 8007eaa:	2020      	movs	r0, #32
 8007eac:	4770      	bx	lr
 8007eae:	bf00      	nop

08007eb0 <__i2b>:
 8007eb0:	b510      	push	{r4, lr}
 8007eb2:	460c      	mov	r4, r1
 8007eb4:	2101      	movs	r1, #1
 8007eb6:	f7ff ff33 	bl	8007d20 <_Balloc>
 8007eba:	2201      	movs	r2, #1
 8007ebc:	e9c0 2404 	strd	r2, r4, [r0, #16]
 8007ec0:	bd10      	pop	{r4, pc}
 8007ec2:	bf00      	nop
	...

08007ed0 <__multiply>:
 8007ed0:	e92d 4ff0 	stmdb	sp!, {r4, r5, r6, r7, r8, r9, sl, fp, lr}
 8007ed4:	690e      	ldr	r6, [r1, #16]
 8007ed6:	6914      	ldr	r4, [r2, #16]
 8007ed8:	42a6      	cmp	r6, r4
 8007eda:	b083      	sub	sp, #12
 8007edc:	460f      	mov	r7, r1
 8007ede:	4615      	mov	r5, r2
 8007ee0:	da04      	bge.n	8007eec <__multiply+0x1c>
 8007ee2:	4632      	mov	r2, r6
 8007ee4:	462f      	mov	r7, r5
 8007ee6:	4626      	mov	r6, r4
 8007ee8:	460d      	mov	r5, r1
 8007eea:	4614      	mov	r4, r2
 8007eec:	e9d7 1301 	ldrd	r1, r3, [r7, #4]
 8007ef0:	eb06 0804 	add.w	r8, r6, r4
 8007ef4:	4543      	cmp	r3, r8
 8007ef6:	bfb8      	it	lt
 8007ef8:	3101      	addlt	r1, #1
 8007efa:	f7ff ff11 	bl	8007d20 <_Balloc>
 8007efe:	f100 0914 	add.w	r9, r0, #20
 8007f02:	eb09 0e88 	add.w	lr, r9, r8, lsl #2
 8007f06:	45f1      	cmp	r9, lr
 8007f08:	9000      	str	r0, [sp, #0]
 8007f0a:	d205      	bcs.n	8007f18 <__multiply+0x48>
 8007f0c:	464b      	mov	r3, r9
 8007f0e:	2200      	movs	r2, #0
 8007f10:	f843 2b04 	str.w	r2, [r3], #4
 8007f14:	459e      	cmp	lr, r3
 8007f16:	d8fb      	bhi.n	8007f10 <__multiply+0x40>
 8007f18:	f105 0a14 	add.w	sl, r5, #20
 8007f1c:	eb0a 0484 	add.w	r4, sl, r4, lsl #2
 8007f20:	f107 0314 	add.w	r3, r7, #20
 8007f24:	45a2      	cmp	sl, r4
 8007f26:	eb03 0c86 	add.w	ip, r3, r6, lsl #2
 8007f2a:	d261      	bcs.n	8007ff0 <__multiply+0x120>
 8007f2c:	1b64      	subs	r4, r4, r5
 8007f2e:	3c15      	subs	r4, #21
 8007f30:	f024 0403 	bic.w	r4, r4, #3
 8007f34:	f8cd e004 	str.w	lr, [sp, #4]
 8007f38:	44a2      	add	sl, r4
 8007f3a:	f105 0210 	add.w	r2, r5, #16
 8007f3e:	469e      	mov	lr, r3
 8007f40:	e005      	b.n	8007f4e <__multiply+0x7e>
 8007f42:	0c2d      	lsrs	r5, r5, #16
 8007f44:	d12b      	bne.n	8007f9e <__multiply+0xce>
 8007f46:	4592      	cmp	sl, r2
 8007f48:	f109 0904 	add.w	r9, r9, #4
 8007f4c:	d04e      	beq.n	8007fec <__multiply+0x11c>
 8007f4e:	f852 5f04 	ldr.w	r5, [r2, #4]!
 8007f52:	fa1f fb85 	uxth.w	fp, r5
 8007f56:	f1bb 0f00 	cmp.w	fp, #0
 8007f5a:	d0f2      	beq.n	8007f42 <__multiply+0x72>
 8007f5c:	4677      	mov	r7, lr
 8007f5e:	464e      	mov	r6, r9
 8007f60:	2000      	movs	r0, #0
 8007f62:	e000      	b.n	8007f66 <__multiply+0x96>
 8007f64:	4626      	mov	r6, r4
 8007f66:	f857 1b04 	ldr.w	r1, [r7], #4
 8007f6a:	6834      	ldr	r4, [r6, #0]
 8007f6c:	b28b      	uxth	r3, r1
 8007f6e:	b2a5      	uxth	r5, r4
 8007f70:	0c09      	lsrs	r1, r1, #16
 8007f72:	0c24      	lsrs	r4, r4, #16
 8007f74:	fb0b 5303 	mla	r3, fp, r3, r5
 8007f78:	4403      	add	r3, r0
 8007f7a:	fb0b 4001 	mla	r0, fp, r1, r4
 8007f7e:	eb00 4013 	add.w	r0, r0, r3, lsr #16
 8007f82:	4634      	mov	r4, r6
 8007f84:	b29b      	uxth	r3, r3
 8007f86:	ea43 4300 	orr.w	r3, r3, r0, lsl #16
 8007f8a:	45bc      	cmp	ip, r7
 8007f8c:	ea4f 4010 	mov.w	r0, r0, lsr #16
 8007f90:	f844 3b04 	str.w	r3, [r4], #4
 8007f94:	d8e6      	bhi.n	8007f64 <__multiply+0x94>
 8007f96:	6070      	str	r0, [r6, #4]
 8007f98:	6815      	ldr	r5, [r2, #0]
 8007f9a:	0c2d      	lsrs	r5, r5, #16
 8007f9c:	d0d3      	beq.n	8007f46 <__multiply+0x76>
 8007f9e:	f8d9 3000 	ldr.w	r3, [r9]
 8007fa2:	4676      	mov	r6, lr
 8007fa4:	4618      	mov	r0, r3
 8007fa6:	46cb      	mov	fp, r9
 8007fa8:	2100      	movs	r1, #0
 8007faa:	e000      	b.n	8007fae <__multiply+0xde>
 8007fac:	46a3      	mov	fp, r4
 8007fae:	8834      	ldrh	r4, [r6, #0]
 8007fb0:	0c00      	lsrs	r0, r0, #16
 8007fb2:	fb05 0004 	mla	r0, r5, r4, r0
 8007fb6:	4401      	add	r1, r0
 8007fb8:	b29b      	uxth	r3, r3
 8007fba:	465c      	mov	r4, fp
 8007fbc:	ea43 4301 	orr.w	r3, r3, r1, lsl #16
 8007fc0:	f844 3b04 	str.w	r3, [r4], #4
 8007fc4:	f856 3b04 	ldr.w	r3, [r6], #4
 8007fc8:	f8db 0004 	ldr.w	r0, [fp, #4]
 8007fcc:	0c1b      	lsrs	r3, r3, #16
 8007fce:	b287      	uxth	r7, r0
 8007fd0:	fb05 7303 	mla	r3, r5, r3, r7
 8007fd4:	eb03 4311 	add.w	r3, r3, r1, lsr #16
 8007fd8:	45b4      	cmp	ip, r6
 8007fda:	ea4f 4113 	mov.w	r1, r3, lsr #16
 8007fde:	d8e5      	bhi.n	8007fac <__multiply+0xdc>
 8007fe0:	4592      	cmp	sl, r2
 8007fe2:	f8cb 3004 	str.w	r3, [fp, #4]
 8007fe6:	f109 0904 	add.w	r9, r9, #4
 8007fea:	d1b0      	bne.n	8007f4e <__multiply+0x7e>
 8007fec:	f8dd e004 	ldr.w	lr, [sp, #4]
 8007ff0:	f1b8 0f00 	cmp.w	r8, #0
 8007ff4:	dd0b      	ble.n	800800e <__multiply+0x13e>
 8007ff6:	f85e 3c04 	ldr.w	r3, [lr, #-4]
 8007ffa:	f1ae 0e04 	sub.w	lr, lr, #4
 8007ffe:	b11b      	cbz	r3, 8008008 <__multiply+0x138>
 8008000:	e005      	b.n	800800e <__multiply+0x13e>
 8008002:	f85e 3d04 	ldr.w	r3, [lr, #-4]!
 8008006:	b913      	cbnz	r3, 800800e <__multiply+0x13e>
 8008008:	f1b8 0801 	subs.w	r8, r8, #1
 800800c:	d1f9      	bne.n	8008002 <__multiply+0x132>
 800800e:	9800      	ldr	r0, [sp, #0]
 8008010:	f8c0 8010 	str.w	r8, [r0, #16]
 8008014:	b003      	add	sp, #12
 8008016:	e8bd 8ff0 	ldmia.w	sp!, {r4, r5, r6, r7, r8, r9, sl, fp, pc}
 800801a:	bf00      	nop
 800801c:	0000      	movs	r0, r0
	...

08008020 <__pow5mult>:
 8008020:	f012 0303 	ands.w	r3, r2, #3
 8008024:	e92d 41f0 	stmdb	sp!, {r4, r5, r6, r7, r8, lr}
 8008028:	4614      	mov	r4, r2
 800802a:	4607      	mov	r7, r0
 800802c:	d12e      	bne.n	800808c <__pow5mult+0x6c>
 800802e:	460d      	mov	r5, r1
 8008030:	10a4      	asrs	r4, r4, #2
 8008032:	d01c      	beq.n	800806e <__pow5mult+0x4e>
 8008034:	6cbe      	ldr	r6, [r7, #72]	; 0x48
 8008036:	b396      	cbz	r6, 800809e <__pow5mult+0x7e>
 8008038:	07e3      	lsls	r3, r4, #31
 800803a:	f04f 0800 	mov.w	r8, #0
 800803e:	d406      	bmi.n	800804e <__pow5mult+0x2e>
 8008040:	1064      	asrs	r4, r4, #1
 8008042:	d014      	beq.n	800806e <__pow5mult+0x4e>
 8008044:	6830      	ldr	r0, [r6, #0]
 8008046:	b1a8      	cbz	r0, 8008074 <__pow5mult+0x54>
 8008048:	4606      	mov	r6, r0
 800804a:	07e3      	lsls	r3, r4, #31
 800804c:	d5f8      	bpl.n	8008040 <__pow5mult+0x20>
 800804e:	4632      	mov	r2, r6
 8008050:	4629      	mov	r1, r5
 8008052:	4638      	mov	r0, r7
 8008054:	f7ff ff3c 	bl	8007ed0 <__multiply>
 8008058:	b1b5      	cbz	r5, 8008088 <__pow5mult+0x68>
 800805a:	686a      	ldr	r2, [r5, #4]
 800805c:	6cfb      	ldr	r3, [r7, #76]	; 0x4c
 800805e:	1064      	asrs	r4, r4, #1
 8008060:	f853 1022 	ldr.w	r1, [r3, r2, lsl #2]
 8008064:	6029      	str	r1, [r5, #0]
 8008066:	f843 5022 	str.w	r5, [r3, r2, lsl #2]
 800806a:	4605      	mov	r5, r0
 800806c:	d1ea      	bne.n	8008044 <__pow5mult+0x24>
 800806e:	4628      	mov	r0, r5
 8008070:	e8bd 81f0 	ldmia.w	sp!, {r4, r5, r6, r7, r8, pc}
 8008074:	4632      	mov	r2, r6
 8008076:	4631      	mov	r1, r6
 8008078:	4638      	mov	r0, r7
 800807a:	f7ff ff29 	bl	8007ed0 <__multiply>
 800807e:	6030      	str	r0, [r6, #0]
 8008080:	f8c0 8000 	str.w	r8, [r0]
 8008084:	4606      	mov	r6, r0
 8008086:	e7e0      	b.n	800804a <__pow5mult+0x2a>
 8008088:	4605      	mov	r5, r0
 800808a:	e7d9      	b.n	8008040 <__pow5mult+0x20>
 800808c:	3b01      	subs	r3, #1
 800808e:	4a0b      	ldr	r2, [pc, #44]	; (80080bc <__pow5mult+0x9c>)
 8008090:	f852 2023 	ldr.w	r2, [r2, r3, lsl #2]
 8008094:	2300      	movs	r3, #0
 8008096:	f7ff fe7b 	bl	8007d90 <__multadd>
 800809a:	4605      	mov	r5, r0
 800809c:	e7c8      	b.n	8008030 <__pow5mult+0x10>
 800809e:	2101      	movs	r1, #1
 80080a0:	4638      	mov	r0, r7
 80080a2:	f7ff fe3d 	bl	8007d20 <_Balloc>
 80080a6:	f240 2371 	movw	r3, #625	; 0x271
 80080aa:	6143      	str	r3, [r0, #20]
 80080ac:	2201      	movs	r2, #1
 80080ae:	2300      	movs	r3, #0
 80080b0:	6102      	str	r2, [r0, #16]
 80080b2:	4606      	mov	r6, r0
 80080b4:	64b8      	str	r0, [r7, #72]	; 0x48
 80080b6:	6003      	str	r3, [r0, #0]
 80080b8:	e7be      	b.n	8008038 <__pow5mult+0x18>
 80080ba:	bf00      	nop
 80080bc:	08008f00 	.word	0x08008f00

080080c0 <__lshift>:
 80080c0:	e92d 47f0 	stmdb	sp!, {r4, r5, r6, r7, r8, r9, sl, lr}
 80080c4:	4691      	mov	r9, r2
 80080c6:	690a      	ldr	r2, [r1, #16]
 80080c8:	460e      	mov	r6, r1
 80080ca:	ea4f 1469 	mov.w	r4, r9, asr #5
 80080ce:	e9d1 1301 	ldrd	r1, r3, [r1, #4]
 80080d2:	eb04 0802 	add.w	r8, r4, r2
 80080d6:	f108 0501 	add.w	r5, r8, #1
 80080da:	429d      	cmp	r5, r3
 80080dc:	4607      	mov	r7, r0
 80080de:	dd04      	ble.n	80080ea <__lshift+0x2a>
 80080e0:	005b      	lsls	r3, r3, #1
 80080e2:	429d      	cmp	r5, r3
 80080e4:	f101 0101 	add.w	r1, r1, #1
 80080e8:	dcfa      	bgt.n	80080e0 <__lshift+0x20>
 80080ea:	4638      	mov	r0, r7
 80080ec:	f7ff fe18 	bl	8007d20 <_Balloc>
 80080f0:	2c00      	cmp	r4, #0
 80080f2:	f100 0314 	add.w	r3, r0, #20
 80080f6:	dd37      	ble.n	8008168 <__lshift+0xa8>
 80080f8:	eb03 0184 	add.w	r1, r3, r4, lsl #2
 80080fc:	2200      	movs	r2, #0
 80080fe:	f843 2b04 	str.w	r2, [r3], #4
 8008102:	428b      	cmp	r3, r1
 8008104:	d1fb      	bne.n	80080fe <__lshift+0x3e>
 8008106:	6934      	ldr	r4, [r6, #16]
 8008108:	f106 0314 	add.w	r3, r6, #20
 800810c:	f019 091f 	ands.w	r9, r9, #31
 8008110:	eb03 0c84 	add.w	ip, r3, r4, lsl #2
 8008114:	d020      	beq.n	8008158 <__lshift+0x98>
 8008116:	f1c9 0e20 	rsb	lr, r9, #32
 800811a:	2200      	movs	r2, #0
 800811c:	e000      	b.n	8008120 <__lshift+0x60>
 800811e:	4651      	mov	r1, sl
 8008120:	681c      	ldr	r4, [r3, #0]
 8008122:	468a      	mov	sl, r1
 8008124:	fa04 f409 	lsl.w	r4, r4, r9
 8008128:	4314      	orrs	r4, r2
 800812a:	f84a 4b04 	str.w	r4, [sl], #4
 800812e:	f853 2b04 	ldr.w	r2, [r3], #4
 8008132:	4563      	cmp	r3, ip
 8008134:	fa22 f20e 	lsr.w	r2, r2, lr
 8008138:	d3f1      	bcc.n	800811e <__lshift+0x5e>
 800813a:	604a      	str	r2, [r1, #4]
 800813c:	b10a      	cbz	r2, 8008142 <__lshift+0x82>
 800813e:	f108 0502 	add.w	r5, r8, #2
 8008142:	6cfb      	ldr	r3, [r7, #76]	; 0x4c
 8008144:	6872      	ldr	r2, [r6, #4]
 8008146:	3d01      	subs	r5, #1
 8008148:	f853 1022 	ldr.w	r1, [r3, r2, lsl #2]
 800814c:	6105      	str	r5, [r0, #16]
 800814e:	6031      	str	r1, [r6, #0]
 8008150:	f843 6022 	str.w	r6, [r3, r2, lsl #2]
 8008154:	e8bd 87f0 	ldmia.w	sp!, {r4, r5, r6, r7, r8, r9, sl, pc}
 8008158:	3904      	subs	r1, #4
 800815a:	f853 2b04 	ldr.w	r2, [r3], #4
 800815e:	f841 2f04 	str.w	r2, [r1, #4]!
 8008162:	459c      	cmp	ip, r3
 8008164:	d8f9      	bhi.n	800815a <__lshift+0x9a>
 8008166:	e7ec      	b.n	8008142 <__lshift+0x82>
 8008168:	4619      	mov	r1, r3
 800816a:	e7cc      	b.n	8008106 <__lshift+0x46>
 800816c:	0000      	movs	r0, r0
	...

08008170 <__mcmp>:
 8008170:	b430      	push	{r4, r5}
 8008172:	690b      	ldr	r3, [r1, #16]
 8008174:	4605      	mov	r5, r0
 8008176:	6900      	ldr	r0, [r0, #16]
 8008178:	1ac0      	subs	r0, r0, r3
 800817a:	d10f      	bne.n	800819c <__mcmp+0x2c>
 800817c:	009b      	lsls	r3, r3, #2
 800817e:	3514      	adds	r5, #20
 8008180:	3114      	adds	r1, #20
 8008182:	4419      	add	r1, r3
 8008184:	442b      	add	r3, r5
 8008186:	e001      	b.n	800818c <__mcmp+0x1c>
 8008188:	429d      	cmp	r5, r3
 800818a:	d207      	bcs.n	800819c <__mcmp+0x2c>
 800818c:	f853 4d04 	ldr.w	r4, [r3, #-4]!
 8008190:	f851 2d04 	ldr.w	r2, [r1, #-4]!
 8008194:	4294      	cmp	r4, r2
 8008196:	d0f7      	beq.n	8008188 <__mcmp+0x18>
 8008198:	d302      	bcc.n	80081a0 <__mcmp+0x30>
 800819a:	2001      	movs	r0, #1
 800819c:	bc30      	pop	{r4, r5}
 800819e:	4770      	bx	lr
 80081a0:	f04f 30ff 	mov.w	r0, #4294967295
 80081a4:	e7fa      	b.n	800819c <__mcmp+0x2c>
 80081a6:	bf00      	nop
	...

080081b0 <__mdiff>:
 80081b0:	e92d 41f0 	stmdb	sp!, {r4, r5, r6, r7, r8, lr}
 80081b4:	6913      	ldr	r3, [r2, #16]
 80081b6:	690d      	ldr	r5, [r1, #16]
 80081b8:	1aed      	subs	r5, r5, r3
 80081ba:	2d00      	cmp	r5, #0
 80081bc:	460e      	mov	r6, r1
 80081be:	4690      	mov	r8, r2
 80081c0:	f101 0414 	add.w	r4, r1, #20
 80081c4:	f102 0714 	add.w	r7, r2, #20
 80081c8:	d114      	bne.n	80081f4 <__mdiff+0x44>
 80081ca:	009b      	lsls	r3, r3, #2
 80081cc:	18e2      	adds	r2, r4, r3
 80081ce:	443b      	add	r3, r7
 80081d0:	e001      	b.n	80081d6 <__mdiff+0x26>
 80081d2:	42a2      	cmp	r2, r4
 80081d4:	d959      	bls.n	800828a <__mdiff+0xda>
 80081d6:	f852 cd04 	ldr.w	ip, [r2, #-4]!
 80081da:	f853 1d04 	ldr.w	r1, [r3, #-4]!
 80081de:	458c      	cmp	ip, r1
 80081e0:	d0f7      	beq.n	80081d2 <__mdiff+0x22>
 80081e2:	d209      	bcs.n	80081f8 <__mdiff+0x48>
 80081e4:	4622      	mov	r2, r4
 80081e6:	4633      	mov	r3, r6
 80081e8:	463c      	mov	r4, r7
 80081ea:	4646      	mov	r6, r8
 80081ec:	4617      	mov	r7, r2
 80081ee:	4698      	mov	r8, r3
 80081f0:	2501      	movs	r5, #1
 80081f2:	e001      	b.n	80081f8 <__mdiff+0x48>
 80081f4:	dbf6      	blt.n	80081e4 <__mdiff+0x34>
 80081f6:	2500      	movs	r5, #0
 80081f8:	6871      	ldr	r1, [r6, #4]
 80081fa:	f7ff fd91 	bl	8007d20 <_Balloc>
 80081fe:	f8d8 3010 	ldr.w	r3, [r8, #16]
 8008202:	6936      	ldr	r6, [r6, #16]
 8008204:	60c5      	str	r5, [r0, #12]
 8008206:	eb07 0e83 	add.w	lr, r7, r3, lsl #2
 800820a:	46bc      	mov	ip, r7
 800820c:	f100 0514 	add.w	r5, r0, #20
 8008210:	eb04 0786 	add.w	r7, r4, r6, lsl #2
 8008214:	2300      	movs	r3, #0
 8008216:	f85c 1b04 	ldr.w	r1, [ip], #4
 800821a:	f854 8b04 	ldr.w	r8, [r4], #4
 800821e:	b28a      	uxth	r2, r1
 8008220:	fa13 f388 	uxtah	r3, r3, r8
 8008224:	0c09      	lsrs	r1, r1, #16
 8008226:	1a9a      	subs	r2, r3, r2
 8008228:	ebc1 4318 	rsb	r3, r1, r8, lsr #16
 800822c:	eb03 4322 	add.w	r3, r3, r2, asr #16
 8008230:	b292      	uxth	r2, r2
 8008232:	ea42 4203 	orr.w	r2, r2, r3, lsl #16
 8008236:	45e6      	cmp	lr, ip
 8008238:	f845 2b04 	str.w	r2, [r5], #4
 800823c:	ea4f 4323 	mov.w	r3, r3, asr #16
 8008240:	d8e9      	bhi.n	8008216 <__mdiff+0x66>
 8008242:	42a7      	cmp	r7, r4
 8008244:	d917      	bls.n	8008276 <__mdiff+0xc6>
 8008246:	46ae      	mov	lr, r5
 8008248:	46a4      	mov	ip, r4
 800824a:	f85c 2b04 	ldr.w	r2, [ip], #4
 800824e:	fa13 f382 	uxtah	r3, r3, r2
 8008252:	1419      	asrs	r1, r3, #16
 8008254:	eb01 4112 	add.w	r1, r1, r2, lsr #16
 8008258:	b29b      	uxth	r3, r3
 800825a:	ea43 4201 	orr.w	r2, r3, r1, lsl #16
 800825e:	4567      	cmp	r7, ip
 8008260:	f84e 2b04 	str.w	r2, [lr], #4
 8008264:	ea4f 4321 	mov.w	r3, r1, asr #16
 8008268:	d8ef      	bhi.n	800824a <__mdiff+0x9a>
 800826a:	43e4      	mvns	r4, r4
 800826c:	4427      	add	r7, r4
 800826e:	f027 0703 	bic.w	r7, r7, #3
 8008272:	3704      	adds	r7, #4
 8008274:	443d      	add	r5, r7
 8008276:	3d04      	subs	r5, #4
 8008278:	b922      	cbnz	r2, 8008284 <__mdiff+0xd4>
 800827a:	f855 3d04 	ldr.w	r3, [r5, #-4]!
 800827e:	3e01      	subs	r6, #1
 8008280:	2b00      	cmp	r3, #0
 8008282:	d0fa      	beq.n	800827a <__mdiff+0xca>
 8008284:	6106      	str	r6, [r0, #16]
 8008286:	e8bd 81f0 	ldmia.w	sp!, {r4, r5, r6, r7, r8, pc}
 800828a:	2100      	movs	r1, #0
 800828c:	f7ff fd48 	bl	8007d20 <_Balloc>
 8008290:	2201      	movs	r2, #1
 8008292:	2300      	movs	r3, #0
 8008294:	e9c0 2304 	strd	r2, r3, [r0, #16]
 8008298:	e8bd 81f0 	ldmia.w	sp!, {r4, r5, r6, r7, r8, pc}
 800829c:	0000      	movs	r0, r0
	...

080082a0 <__d2b>:
 80082a0:	e92d 43f0 	stmdb	sp!, {r4, r5, r6, r7, r8, r9, lr}
 80082a4:	460f      	mov	r7, r1
 80082a6:	b083      	sub	sp, #12
 80082a8:	2101      	movs	r1, #1
 80082aa:	ec55 4b10 	vmov	r4, r5, d0
 80082ae:	4616      	mov	r6, r2
 80082b0:	f7ff fd36 	bl	8007d20 <_Balloc>
 80082b4:	f3c5 580a 	ubfx	r8, r5, #20, #11
 80082b8:	4681      	mov	r9, r0
 80082ba:	f3c5 0313 	ubfx	r3, r5, #0, #20
 80082be:	f1b8 0f00 	cmp.w	r8, #0
 80082c2:	d001      	beq.n	80082c8 <__d2b+0x28>
 80082c4:	f443 1380 	orr.w	r3, r3, #1048576	; 0x100000
 80082c8:	2c00      	cmp	r4, #0
 80082ca:	9301      	str	r3, [sp, #4]
 80082cc:	d024      	beq.n	8008318 <__d2b+0x78>
 80082ce:	a802      	add	r0, sp, #8
 80082d0:	f840 4d08 	str.w	r4, [r0, #-8]!
 80082d4:	f7ff fdbc 	bl	8007e50 <__lo0bits>
 80082d8:	2800      	cmp	r0, #0
 80082da:	d136      	bne.n	800834a <__d2b+0xaa>
 80082dc:	e9dd 2300 	ldrd	r2, r3, [sp]
 80082e0:	f8c9 2014 	str.w	r2, [r9, #20]
 80082e4:	2b00      	cmp	r3, #0
 80082e6:	bf0c      	ite	eq
 80082e8:	2101      	moveq	r1, #1
 80082ea:	2102      	movne	r1, #2
 80082ec:	f8c9 3018 	str.w	r3, [r9, #24]
 80082f0:	f8c9 1010 	str.w	r1, [r9, #16]
 80082f4:	f1b8 0f00 	cmp.w	r8, #0
 80082f8:	d11b      	bne.n	8008332 <__d2b+0x92>
 80082fa:	eb09 0381 	add.w	r3, r9, r1, lsl #2
 80082fe:	f2a0 4032 	subw	r0, r0, #1074	; 0x432
 8008302:	6038      	str	r0, [r7, #0]
 8008304:	6918      	ldr	r0, [r3, #16]
 8008306:	f7ff fd83 	bl	8007e10 <__hi0bits>
 800830a:	ebc0 1041 	rsb	r0, r0, r1, lsl #5
 800830e:	6030      	str	r0, [r6, #0]
 8008310:	4648      	mov	r0, r9
 8008312:	b003      	add	sp, #12
 8008314:	e8bd 83f0 	ldmia.w	sp!, {r4, r5, r6, r7, r8, r9, pc}
 8008318:	a801      	add	r0, sp, #4
 800831a:	f7ff fd99 	bl	8007e50 <__lo0bits>
 800831e:	9b01      	ldr	r3, [sp, #4]
 8008320:	f8c9 3014 	str.w	r3, [r9, #20]
 8008324:	2101      	movs	r1, #1
 8008326:	3020      	adds	r0, #32
 8008328:	f8c9 1010 	str.w	r1, [r9, #16]
 800832c:	f1b8 0f00 	cmp.w	r8, #0
 8008330:	d0e3      	beq.n	80082fa <__d2b+0x5a>
 8008332:	f2a8 4833 	subw	r8, r8, #1075	; 0x433
 8008336:	eb08 0300 	add.w	r3, r8, r0
 800833a:	f1c0 0035 	rsb	r0, r0, #53	; 0x35
 800833e:	603b      	str	r3, [r7, #0]
 8008340:	6030      	str	r0, [r6, #0]
 8008342:	4648      	mov	r0, r9
 8008344:	b003      	add	sp, #12
 8008346:	e8bd 83f0 	ldmia.w	sp!, {r4, r5, r6, r7, r8, r9, pc}
 800834a:	e9dd 1300 	ldrd	r1, r3, [sp]
 800834e:	f1c0 0220 	rsb	r2, r0, #32
 8008352:	fa03 f202 	lsl.w	r2, r3, r2
 8008356:	430a      	orrs	r2, r1
 8008358:	40c3      	lsrs	r3, r0
 800835a:	9301      	str	r3, [sp, #4]
 800835c:	f8c9 2014 	str.w	r2, [r9, #20]
 8008360:	e7c0      	b.n	80082e4 <__d2b+0x44>
 8008362:	bf00      	nop
	...

08008370 <__ssprint_r>:
 8008370:	e92d 4ff0 	stmdb	sp!, {r4, r5, r6, r7, r8, r9, sl, fp, lr}
 8008374:	6893      	ldr	r3, [r2, #8]
 8008376:	b083      	sub	sp, #12
 8008378:	4690      	mov	r8, r2
 800837a:	2b00      	cmp	r3, #0
 800837c:	d06c      	beq.n	8008458 <__ssprint_r+0xe8>
 800837e:	6817      	ldr	r7, [r2, #0]
 8008380:	688d      	ldr	r5, [r1, #8]
 8008382:	4682      	mov	sl, r0
 8008384:	460c      	mov	r4, r1
 8008386:	6808      	ldr	r0, [r1, #0]
 8008388:	3708      	adds	r7, #8
 800838a:	e042      	b.n	8008412 <__ssprint_r+0xa2>
 800838c:	89a3      	ldrh	r3, [r4, #12]
 800838e:	f413 6f90 	tst.w	r3, #1152	; 0x480
 8008392:	d02d      	beq.n	80083f0 <__ssprint_r+0x80>
 8008394:	e9d4 1504 	ldrd	r1, r5, [r4, #16]
 8008398:	eb05 0545 	add.w	r5, r5, r5, lsl #1
 800839c:	eba0 0b01 	sub.w	fp, r0, r1
 80083a0:	eb05 75d5 	add.w	r5, r5, r5, lsr #31
 80083a4:	1c70      	adds	r0, r6, #1
 80083a6:	106d      	asrs	r5, r5, #1
 80083a8:	4458      	add	r0, fp
 80083aa:	42a8      	cmp	r0, r5
 80083ac:	462a      	mov	r2, r5
 80083ae:	bf84      	itt	hi
 80083b0:	4605      	movhi	r5, r0
 80083b2:	462a      	movhi	r2, r5
 80083b4:	055b      	lsls	r3, r3, #21
 80083b6:	d536      	bpl.n	8008426 <__ssprint_r+0xb6>
 80083b8:	4611      	mov	r1, r2
 80083ba:	4650      	mov	r0, sl
 80083bc:	f7fc fe18 	bl	8004ff0 <_malloc_r>
 80083c0:	2800      	cmp	r0, #0
 80083c2:	d03a      	beq.n	800843a <__ssprint_r+0xca>
 80083c4:	465a      	mov	r2, fp
 80083c6:	6921      	ldr	r1, [r4, #16]
 80083c8:	9001      	str	r0, [sp, #4]
 80083ca:	f7f8 fd21 	bl	8000e10 <memcpy>
 80083ce:	89a2      	ldrh	r2, [r4, #12]
 80083d0:	9b01      	ldr	r3, [sp, #4]
 80083d2:	f422 6290 	bic.w	r2, r2, #1152	; 0x480
 80083d6:	f042 0280 	orr.w	r2, r2, #128	; 0x80
 80083da:	81a2      	strh	r2, [r4, #12]
 80083dc:	eba5 020b 	sub.w	r2, r5, fp
 80083e0:	eb03 000b 	add.w	r0, r3, fp
 80083e4:	6165      	str	r5, [r4, #20]
 80083e6:	6123      	str	r3, [r4, #16]
 80083e8:	6020      	str	r0, [r4, #0]
 80083ea:	60a2      	str	r2, [r4, #8]
 80083ec:	4635      	mov	r5, r6
 80083ee:	46b3      	mov	fp, r6
 80083f0:	465a      	mov	r2, fp
 80083f2:	4649      	mov	r1, r9
 80083f4:	f000 f874 	bl	80084e0 <memmove>
 80083f8:	f8d8 3008 	ldr.w	r3, [r8, #8]
 80083fc:	68a2      	ldr	r2, [r4, #8]
 80083fe:	6820      	ldr	r0, [r4, #0]
 8008400:	1b55      	subs	r5, r2, r5
 8008402:	4458      	add	r0, fp
 8008404:	1b9e      	subs	r6, r3, r6
 8008406:	60a5      	str	r5, [r4, #8]
 8008408:	6020      	str	r0, [r4, #0]
 800840a:	f8c8 6008 	str.w	r6, [r8, #8]
 800840e:	b31e      	cbz	r6, 8008458 <__ssprint_r+0xe8>
 8008410:	3708      	adds	r7, #8
 8008412:	e957 9602 	ldrd	r9, r6, [r7, #-8]
 8008416:	46ab      	mov	fp, r5
 8008418:	2e00      	cmp	r6, #0
 800841a:	d0f9      	beq.n	8008410 <__ssprint_r+0xa0>
 800841c:	42ae      	cmp	r6, r5
 800841e:	d2b5      	bcs.n	800838c <__ssprint_r+0x1c>
 8008420:	4635      	mov	r5, r6
 8008422:	46b3      	mov	fp, r6
 8008424:	e7e4      	b.n	80083f0 <__ssprint_r+0x80>
 8008426:	4650      	mov	r0, sl
 8008428:	f000 f8c2 	bl	80085b0 <_realloc_r>
 800842c:	4603      	mov	r3, r0
 800842e:	2800      	cmp	r0, #0
 8008430:	d1d4      	bne.n	80083dc <__ssprint_r+0x6c>
 8008432:	6921      	ldr	r1, [r4, #16]
 8008434:	4650      	mov	r0, sl
 8008436:	f7ff fb6b 	bl	8007b10 <_free_r>
 800843a:	230c      	movs	r3, #12
 800843c:	f8ca 3000 	str.w	r3, [sl]
 8008440:	89a3      	ldrh	r3, [r4, #12]
 8008442:	2200      	movs	r2, #0
 8008444:	f043 0340 	orr.w	r3, r3, #64	; 0x40
 8008448:	f04f 30ff 	mov.w	r0, #4294967295
 800844c:	81a3      	strh	r3, [r4, #12]
 800844e:	e9c8 2201 	strd	r2, r2, [r8, #4]
 8008452:	b003      	add	sp, #12
 8008454:	e8bd 8ff0 	ldmia.w	sp!, {r4, r5, r6, r7, r8, r9, sl, fp, pc}
 8008458:	2000      	movs	r0, #0
 800845a:	f8c8 0004 	str.w	r0, [r8, #4]
 800845e:	b003      	add	sp, #12
 8008460:	e8bd 8ff0 	ldmia.w	sp!, {r4, r5, r6, r7, r8, r9, sl, fp, pc}
	...

08008470 <_calloc_r>:
 8008470:	b510      	push	{r4, lr}
 8008472:	fb02 f101 	mul.w	r1, r2, r1
 8008476:	f7fc fdbb 	bl	8004ff0 <_malloc_r>
 800847a:	4604      	mov	r4, r0
 800847c:	b1d8      	cbz	r0, 80084b6 <_calloc_r+0x46>
 800847e:	f850 2c04 	ldr.w	r2, [r0, #-4]
 8008482:	f022 0203 	bic.w	r2, r2, #3
 8008486:	3a04      	subs	r2, #4
 8008488:	2a24      	cmp	r2, #36	; 0x24
 800848a:	d81d      	bhi.n	80084c8 <_calloc_r+0x58>
 800848c:	2a13      	cmp	r2, #19
 800848e:	d914      	bls.n	80084ba <_calloc_r+0x4a>
 8008490:	2300      	movs	r3, #0
 8008492:	2a1b      	cmp	r2, #27
 8008494:	e9c0 3300 	strd	r3, r3, [r0]
 8008498:	d91b      	bls.n	80084d2 <_calloc_r+0x62>
 800849a:	2a24      	cmp	r2, #36	; 0x24
 800849c:	e9c0 3302 	strd	r3, r3, [r0, #8]
 80084a0:	bf0a      	itet	eq
 80084a2:	e9c0 3304 	strdeq	r3, r3, [r0, #16]
 80084a6:	f100 0210 	addne.w	r2, r0, #16
 80084aa:	f100 0218 	addeq.w	r2, r0, #24
 80084ae:	2300      	movs	r3, #0
 80084b0:	e9c2 3300 	strd	r3, r3, [r2]
 80084b4:	6093      	str	r3, [r2, #8]
 80084b6:	4620      	mov	r0, r4
 80084b8:	bd10      	pop	{r4, pc}
 80084ba:	4602      	mov	r2, r0
 80084bc:	2300      	movs	r3, #0
 80084be:	e9c2 3300 	strd	r3, r3, [r2]
 80084c2:	6093      	str	r3, [r2, #8]
 80084c4:	4620      	mov	r0, r4
 80084c6:	bd10      	pop	{r4, pc}
 80084c8:	2100      	movs	r1, #0
 80084ca:	f7fd f851 	bl	8005570 <memset>
 80084ce:	4620      	mov	r0, r4
 80084d0:	bd10      	pop	{r4, pc}
 80084d2:	f100 0208 	add.w	r2, r0, #8
 80084d6:	e7f1      	b.n	80084bc <_calloc_r+0x4c>
	...

080084e0 <memmove>:
 80084e0:	4288      	cmp	r0, r1
 80084e2:	b4f0      	push	{r4, r5, r6, r7}
 80084e4:	d90d      	bls.n	8008502 <memmove+0x22>
 80084e6:	188b      	adds	r3, r1, r2
 80084e8:	4283      	cmp	r3, r0
 80084ea:	d90a      	bls.n	8008502 <memmove+0x22>
 80084ec:	1884      	adds	r4, r0, r2
 80084ee:	b132      	cbz	r2, 80084fe <memmove+0x1e>
 80084f0:	4622      	mov	r2, r4
 80084f2:	f813 4d01 	ldrb.w	r4, [r3, #-1]!
 80084f6:	f802 4d01 	strb.w	r4, [r2, #-1]!
 80084fa:	4299      	cmp	r1, r3
 80084fc:	d1f9      	bne.n	80084f2 <memmove+0x12>
 80084fe:	bcf0      	pop	{r4, r5, r6, r7}
 8008500:	4770      	bx	lr
 8008502:	2a0f      	cmp	r2, #15
 8008504:	d949      	bls.n	800859a <memmove+0xba>
 8008506:	ea40 0301 	orr.w	r3, r0, r1
 800850a:	079b      	lsls	r3, r3, #30
 800850c:	d147      	bne.n	800859e <memmove+0xbe>
 800850e:	f1a2 0310 	sub.w	r3, r2, #16
 8008512:	091b      	lsrs	r3, r3, #4
 8008514:	f101 0720 	add.w	r7, r1, #32
 8008518:	eb07 1703 	add.w	r7, r7, r3, lsl #4
 800851c:	f101 0410 	add.w	r4, r1, #16
 8008520:	f100 0510 	add.w	r5, r0, #16
 8008524:	f854 6c10 	ldr.w	r6, [r4, #-16]
 8008528:	f845 6c10 	str.w	r6, [r5, #-16]
 800852c:	f854 6c0c 	ldr.w	r6, [r4, #-12]
 8008530:	f845 6c0c 	str.w	r6, [r5, #-12]
 8008534:	f854 6c08 	ldr.w	r6, [r4, #-8]
 8008538:	f845 6c08 	str.w	r6, [r5, #-8]
 800853c:	f854 6c04 	ldr.w	r6, [r4, #-4]
 8008540:	f845 6c04 	str.w	r6, [r5, #-4]
 8008544:	3410      	adds	r4, #16
 8008546:	42bc      	cmp	r4, r7
 8008548:	f105 0510 	add.w	r5, r5, #16
 800854c:	d1ea      	bne.n	8008524 <memmove+0x44>
 800854e:	3301      	adds	r3, #1
 8008550:	f002 050f 	and.w	r5, r2, #15
 8008554:	011b      	lsls	r3, r3, #4
 8008556:	2d03      	cmp	r5, #3
 8008558:	4419      	add	r1, r3
 800855a:	4403      	add	r3, r0
 800855c:	d921      	bls.n	80085a2 <memmove+0xc2>
 800855e:	1f1f      	subs	r7, r3, #4
 8008560:	460e      	mov	r6, r1
 8008562:	462c      	mov	r4, r5
 8008564:	3c04      	subs	r4, #4
 8008566:	f856 cb04 	ldr.w	ip, [r6], #4
 800856a:	f847 cf04 	str.w	ip, [r7, #4]!
 800856e:	2c03      	cmp	r4, #3
 8008570:	d8f8      	bhi.n	8008564 <memmove+0x84>
 8008572:	1f2c      	subs	r4, r5, #4
 8008574:	f024 0403 	bic.w	r4, r4, #3
 8008578:	3404      	adds	r4, #4
 800857a:	4423      	add	r3, r4
 800857c:	4421      	add	r1, r4
 800857e:	f002 0203 	and.w	r2, r2, #3
 8008582:	2a00      	cmp	r2, #0
 8008584:	d0bb      	beq.n	80084fe <memmove+0x1e>
 8008586:	3b01      	subs	r3, #1
 8008588:	440a      	add	r2, r1
 800858a:	f811 4b01 	ldrb.w	r4, [r1], #1
 800858e:	f803 4f01 	strb.w	r4, [r3, #1]!
 8008592:	4291      	cmp	r1, r2
 8008594:	d1f9      	bne.n	800858a <memmove+0xaa>
 8008596:	bcf0      	pop	{r4, r5, r6, r7}
 8008598:	4770      	bx	lr
 800859a:	4603      	mov	r3, r0
 800859c:	e7f1      	b.n	8008582 <memmove+0xa2>
 800859e:	4603      	mov	r3, r0
 80085a0:	e7f1      	b.n	8008586 <memmove+0xa6>
 80085a2:	462a      	mov	r2, r5
 80085a4:	e7ed      	b.n	8008582 <memmove+0xa2>
 80085a6:	bf00      	nop
	...

080085b0 <_realloc_r>:
 80085b0:	e92d 4ff0 	stmdb	sp!, {r4, r5, r6, r7, r8, r9, sl, fp, lr}
 80085b4:	4692      	mov	sl, r2
 80085b6:	b083      	sub	sp, #12
 80085b8:	2900      	cmp	r1, #0
 80085ba:	f000 80a1 	beq.w	8008700 <_realloc_r+0x150>
 80085be:	460d      	mov	r5, r1
 80085c0:	4680      	mov	r8, r0
 80085c2:	f10a 040b 	add.w	r4, sl, #11
 80085c6:	f7f8 ff8b 	bl	80014e0 <__malloc_lock>
 80085ca:	f855 2c04 	ldr.w	r2, [r5, #-4]
 80085ce:	2c16      	cmp	r4, #22
 80085d0:	f022 0603 	bic.w	r6, r2, #3
 80085d4:	f1a5 0708 	sub.w	r7, r5, #8
 80085d8:	d83e      	bhi.n	8008658 <_realloc_r+0xa8>
 80085da:	2410      	movs	r4, #16
 80085dc:	4621      	mov	r1, r4
 80085de:	45a2      	cmp	sl, r4
 80085e0:	d83f      	bhi.n	8008662 <_realloc_r+0xb2>
 80085e2:	428e      	cmp	r6, r1
 80085e4:	eb07 0906 	add.w	r9, r7, r6
 80085e8:	da74      	bge.n	80086d4 <_realloc_r+0x124>
 80085ea:	4bc7      	ldr	r3, [pc, #796]	; (8008908 <_realloc_r+0x358>)
 80085ec:	6898      	ldr	r0, [r3, #8]
 80085ee:	4548      	cmp	r0, r9
 80085f0:	f000 80aa 	beq.w	8008748 <_realloc_r+0x198>
 80085f4:	f8d9 0004 	ldr.w	r0, [r9, #4]
 80085f8:	f020 0301 	bic.w	r3, r0, #1
 80085fc:	444b      	add	r3, r9
 80085fe:	685b      	ldr	r3, [r3, #4]
 8008600:	07db      	lsls	r3, r3, #31
 8008602:	f140 8083 	bpl.w	800870c <_realloc_r+0x15c>
 8008606:	07d2      	lsls	r2, r2, #31
 8008608:	d534      	bpl.n	8008674 <_realloc_r+0xc4>
 800860a:	4651      	mov	r1, sl
 800860c:	4640      	mov	r0, r8
 800860e:	f7fc fcef 	bl	8004ff0 <_malloc_r>
 8008612:	4682      	mov	sl, r0
 8008614:	b1e0      	cbz	r0, 8008650 <_realloc_r+0xa0>
 8008616:	f855 3c04 	ldr.w	r3, [r5, #-4]
 800861a:	f023 0301 	bic.w	r3, r3, #1
 800861e:	443b      	add	r3, r7
 8008620:	f1a0 0208 	sub.w	r2, r0, #8
 8008624:	4293      	cmp	r3, r2
 8008626:	f000 80f9 	beq.w	800881c <_realloc_r+0x26c>
 800862a:	1f32      	subs	r2, r6, #4
 800862c:	2a24      	cmp	r2, #36	; 0x24
 800862e:	f200 8107 	bhi.w	8008840 <_realloc_r+0x290>
 8008632:	2a13      	cmp	r2, #19
 8008634:	6829      	ldr	r1, [r5, #0]
 8008636:	f200 80e6 	bhi.w	8008806 <_realloc_r+0x256>
 800863a:	4603      	mov	r3, r0
 800863c:	462a      	mov	r2, r5
 800863e:	6019      	str	r1, [r3, #0]
 8008640:	6851      	ldr	r1, [r2, #4]
 8008642:	6059      	str	r1, [r3, #4]
 8008644:	6892      	ldr	r2, [r2, #8]
 8008646:	609a      	str	r2, [r3, #8]
 8008648:	4629      	mov	r1, r5
 800864a:	4640      	mov	r0, r8
 800864c:	f7ff fa60 	bl	8007b10 <_free_r>
 8008650:	4640      	mov	r0, r8
 8008652:	f7f8 ff5d 	bl	8001510 <__malloc_unlock>
 8008656:	e04f      	b.n	80086f8 <_realloc_r+0x148>
 8008658:	f024 0407 	bic.w	r4, r4, #7
 800865c:	2c00      	cmp	r4, #0
 800865e:	4621      	mov	r1, r4
 8008660:	dabd      	bge.n	80085de <_realloc_r+0x2e>
 8008662:	f04f 0a00 	mov.w	sl, #0
 8008666:	230c      	movs	r3, #12
 8008668:	4650      	mov	r0, sl
 800866a:	f8c8 3000 	str.w	r3, [r8]
 800866e:	b003      	add	sp, #12
 8008670:	e8bd 8ff0 	ldmia.w	sp!, {r4, r5, r6, r7, r8, r9, sl, fp, pc}
 8008674:	f855 3c08 	ldr.w	r3, [r5, #-8]
 8008678:	eba7 0b03 	sub.w	fp, r7, r3
 800867c:	f8db 2004 	ldr.w	r2, [fp, #4]
 8008680:	f022 0203 	bic.w	r2, r2, #3
 8008684:	18b3      	adds	r3, r6, r2
 8008686:	428b      	cmp	r3, r1
 8008688:	dbbf      	blt.n	800860a <_realloc_r+0x5a>
 800868a:	46da      	mov	sl, fp
 800868c:	f8db 100c 	ldr.w	r1, [fp, #12]
 8008690:	f85a 0f08 	ldr.w	r0, [sl, #8]!
 8008694:	1f32      	subs	r2, r6, #4
 8008696:	2a24      	cmp	r2, #36	; 0x24
 8008698:	60c1      	str	r1, [r0, #12]
 800869a:	eb0b 0903 	add.w	r9, fp, r3
 800869e:	6088      	str	r0, [r1, #8]
 80086a0:	f200 80c6 	bhi.w	8008830 <_realloc_r+0x280>
 80086a4:	2a13      	cmp	r2, #19
 80086a6:	6829      	ldr	r1, [r5, #0]
 80086a8:	f240 80c0 	bls.w	800882c <_realloc_r+0x27c>
 80086ac:	f8cb 1008 	str.w	r1, [fp, #8]
 80086b0:	6869      	ldr	r1, [r5, #4]
 80086b2:	f8cb 100c 	str.w	r1, [fp, #12]
 80086b6:	2a1b      	cmp	r2, #27
 80086b8:	68a9      	ldr	r1, [r5, #8]
 80086ba:	f200 80d8 	bhi.w	800886e <_realloc_r+0x2be>
 80086be:	f10b 0210 	add.w	r2, fp, #16
 80086c2:	3508      	adds	r5, #8
 80086c4:	6011      	str	r1, [r2, #0]
 80086c6:	6869      	ldr	r1, [r5, #4]
 80086c8:	6051      	str	r1, [r2, #4]
 80086ca:	68a9      	ldr	r1, [r5, #8]
 80086cc:	6091      	str	r1, [r2, #8]
 80086ce:	461e      	mov	r6, r3
 80086d0:	465f      	mov	r7, fp
 80086d2:	4655      	mov	r5, sl
 80086d4:	687b      	ldr	r3, [r7, #4]
 80086d6:	1b32      	subs	r2, r6, r4
 80086d8:	2a0f      	cmp	r2, #15
 80086da:	f003 0301 	and.w	r3, r3, #1
 80086de:	d822      	bhi.n	8008726 <_realloc_r+0x176>
 80086e0:	4333      	orrs	r3, r6
 80086e2:	607b      	str	r3, [r7, #4]
 80086e4:	f8d9 3004 	ldr.w	r3, [r9, #4]
 80086e8:	f043 0301 	orr.w	r3, r3, #1
 80086ec:	f8c9 3004 	str.w	r3, [r9, #4]
 80086f0:	4640      	mov	r0, r8
 80086f2:	f7f8 ff0d 	bl	8001510 <__malloc_unlock>
 80086f6:	46aa      	mov	sl, r5
 80086f8:	4650      	mov	r0, sl
 80086fa:	b003      	add	sp, #12
 80086fc:	e8bd 8ff0 	ldmia.w	sp!, {r4, r5, r6, r7, r8, r9, sl, fp, pc}
 8008700:	4611      	mov	r1, r2
 8008702:	b003      	add	sp, #12
 8008704:	e8bd 4ff0 	ldmia.w	sp!, {r4, r5, r6, r7, r8, r9, sl, fp, lr}
 8008708:	f7fc bc72 	b.w	8004ff0 <_malloc_r>
 800870c:	f020 0003 	bic.w	r0, r0, #3
 8008710:	1833      	adds	r3, r6, r0
 8008712:	428b      	cmp	r3, r1
 8008714:	db61      	blt.n	80087da <_realloc_r+0x22a>
 8008716:	e9d9 1202 	ldrd	r1, r2, [r9, #8]
 800871a:	461e      	mov	r6, r3
 800871c:	60ca      	str	r2, [r1, #12]
 800871e:	eb07 0903 	add.w	r9, r7, r3
 8008722:	6091      	str	r1, [r2, #8]
 8008724:	e7d6      	b.n	80086d4 <_realloc_r+0x124>
 8008726:	1939      	adds	r1, r7, r4
 8008728:	4323      	orrs	r3, r4
 800872a:	f042 0201 	orr.w	r2, r2, #1
 800872e:	607b      	str	r3, [r7, #4]
 8008730:	604a      	str	r2, [r1, #4]
 8008732:	f8d9 3004 	ldr.w	r3, [r9, #4]
 8008736:	f043 0301 	orr.w	r3, r3, #1
 800873a:	3108      	adds	r1, #8
 800873c:	f8c9 3004 	str.w	r3, [r9, #4]
 8008740:	4640      	mov	r0, r8
 8008742:	f7ff f9e5 	bl	8007b10 <_free_r>
 8008746:	e7d3      	b.n	80086f0 <_realloc_r+0x140>
 8008748:	6840      	ldr	r0, [r0, #4]
 800874a:	f020 0903 	bic.w	r9, r0, #3
 800874e:	44b1      	add	r9, r6
 8008750:	f104 0010 	add.w	r0, r4, #16
 8008754:	4581      	cmp	r9, r0
 8008756:	da77      	bge.n	8008848 <_realloc_r+0x298>
 8008758:	07d2      	lsls	r2, r2, #31
 800875a:	f53f af56 	bmi.w	800860a <_realloc_r+0x5a>
 800875e:	f855 2c08 	ldr.w	r2, [r5, #-8]
 8008762:	eba7 0b02 	sub.w	fp, r7, r2
 8008766:	f8db 2004 	ldr.w	r2, [fp, #4]
 800876a:	f022 0203 	bic.w	r2, r2, #3
 800876e:	4491      	add	r9, r2
 8008770:	4548      	cmp	r0, r9
 8008772:	dc87      	bgt.n	8008684 <_realloc_r+0xd4>
 8008774:	46da      	mov	sl, fp
 8008776:	f8db 100c 	ldr.w	r1, [fp, #12]
 800877a:	f85a 0f08 	ldr.w	r0, [sl, #8]!
 800877e:	1f32      	subs	r2, r6, #4
 8008780:	2a24      	cmp	r2, #36	; 0x24
 8008782:	60c1      	str	r1, [r0, #12]
 8008784:	6088      	str	r0, [r1, #8]
 8008786:	f200 80a1 	bhi.w	80088cc <_realloc_r+0x31c>
 800878a:	2a13      	cmp	r2, #19
 800878c:	6829      	ldr	r1, [r5, #0]
 800878e:	f240 809b 	bls.w	80088c8 <_realloc_r+0x318>
 8008792:	f8cb 1008 	str.w	r1, [fp, #8]
 8008796:	6869      	ldr	r1, [r5, #4]
 8008798:	f8cb 100c 	str.w	r1, [fp, #12]
 800879c:	2a1b      	cmp	r2, #27
 800879e:	68a9      	ldr	r1, [r5, #8]
 80087a0:	f200 809b 	bhi.w	80088da <_realloc_r+0x32a>
 80087a4:	f10b 0210 	add.w	r2, fp, #16
 80087a8:	3508      	adds	r5, #8
 80087aa:	6011      	str	r1, [r2, #0]
 80087ac:	6869      	ldr	r1, [r5, #4]
 80087ae:	6051      	str	r1, [r2, #4]
 80087b0:	68a9      	ldr	r1, [r5, #8]
 80087b2:	6091      	str	r1, [r2, #8]
 80087b4:	eb0b 0104 	add.w	r1, fp, r4
 80087b8:	eba9 0204 	sub.w	r2, r9, r4
 80087bc:	f042 0201 	orr.w	r2, r2, #1
 80087c0:	6099      	str	r1, [r3, #8]
 80087c2:	604a      	str	r2, [r1, #4]
 80087c4:	f8db 3004 	ldr.w	r3, [fp, #4]
 80087c8:	f003 0301 	and.w	r3, r3, #1
 80087cc:	431c      	orrs	r4, r3
 80087ce:	4640      	mov	r0, r8
 80087d0:	f8cb 4004 	str.w	r4, [fp, #4]
 80087d4:	f7f8 fe9c 	bl	8001510 <__malloc_unlock>
 80087d8:	e78e      	b.n	80086f8 <_realloc_r+0x148>
 80087da:	07d3      	lsls	r3, r2, #31
 80087dc:	f53f af15 	bmi.w	800860a <_realloc_r+0x5a>
 80087e0:	f855 3c08 	ldr.w	r3, [r5, #-8]
 80087e4:	eba7 0b03 	sub.w	fp, r7, r3
 80087e8:	f8db 2004 	ldr.w	r2, [fp, #4]
 80087ec:	f022 0203 	bic.w	r2, r2, #3
 80087f0:	4410      	add	r0, r2
 80087f2:	1983      	adds	r3, r0, r6
 80087f4:	428b      	cmp	r3, r1
 80087f6:	f6ff af45 	blt.w	8008684 <_realloc_r+0xd4>
 80087fa:	e9d9 1202 	ldrd	r1, r2, [r9, #8]
 80087fe:	46da      	mov	sl, fp
 8008800:	60ca      	str	r2, [r1, #12]
 8008802:	6091      	str	r1, [r2, #8]
 8008804:	e742      	b.n	800868c <_realloc_r+0xdc>
 8008806:	6001      	str	r1, [r0, #0]
 8008808:	686b      	ldr	r3, [r5, #4]
 800880a:	6043      	str	r3, [r0, #4]
 800880c:	2a1b      	cmp	r2, #27
 800880e:	d83a      	bhi.n	8008886 <_realloc_r+0x2d6>
 8008810:	f105 0208 	add.w	r2, r5, #8
 8008814:	f100 0308 	add.w	r3, r0, #8
 8008818:	68a9      	ldr	r1, [r5, #8]
 800881a:	e710      	b.n	800863e <_realloc_r+0x8e>
 800881c:	f850 3c04 	ldr.w	r3, [r0, #-4]
 8008820:	f023 0303 	bic.w	r3, r3, #3
 8008824:	441e      	add	r6, r3
 8008826:	eb07 0906 	add.w	r9, r7, r6
 800882a:	e753      	b.n	80086d4 <_realloc_r+0x124>
 800882c:	4652      	mov	r2, sl
 800882e:	e749      	b.n	80086c4 <_realloc_r+0x114>
 8008830:	4629      	mov	r1, r5
 8008832:	4650      	mov	r0, sl
 8008834:	461e      	mov	r6, r3
 8008836:	465f      	mov	r7, fp
 8008838:	f7ff fe52 	bl	80084e0 <memmove>
 800883c:	4655      	mov	r5, sl
 800883e:	e749      	b.n	80086d4 <_realloc_r+0x124>
 8008840:	4629      	mov	r1, r5
 8008842:	f7ff fe4d 	bl	80084e0 <memmove>
 8008846:	e6ff      	b.n	8008648 <_realloc_r+0x98>
 8008848:	4427      	add	r7, r4
 800884a:	eba9 0904 	sub.w	r9, r9, r4
 800884e:	f049 0201 	orr.w	r2, r9, #1
 8008852:	609f      	str	r7, [r3, #8]
 8008854:	607a      	str	r2, [r7, #4]
 8008856:	f855 3c04 	ldr.w	r3, [r5, #-4]
 800885a:	f003 0301 	and.w	r3, r3, #1
 800885e:	431c      	orrs	r4, r3
 8008860:	4640      	mov	r0, r8
 8008862:	f845 4c04 	str.w	r4, [r5, #-4]
 8008866:	f7f8 fe53 	bl	8001510 <__malloc_unlock>
 800886a:	46aa      	mov	sl, r5
 800886c:	e744      	b.n	80086f8 <_realloc_r+0x148>
 800886e:	f8cb 1010 	str.w	r1, [fp, #16]
 8008872:	68e9      	ldr	r1, [r5, #12]
 8008874:	f8cb 1014 	str.w	r1, [fp, #20]
 8008878:	2a24      	cmp	r2, #36	; 0x24
 800887a:	d010      	beq.n	800889e <_realloc_r+0x2ee>
 800887c:	6929      	ldr	r1, [r5, #16]
 800887e:	f10b 0218 	add.w	r2, fp, #24
 8008882:	3510      	adds	r5, #16
 8008884:	e71e      	b.n	80086c4 <_realloc_r+0x114>
 8008886:	68ab      	ldr	r3, [r5, #8]
 8008888:	6083      	str	r3, [r0, #8]
 800888a:	68eb      	ldr	r3, [r5, #12]
 800888c:	60c3      	str	r3, [r0, #12]
 800888e:	2a24      	cmp	r2, #36	; 0x24
 8008890:	d010      	beq.n	80088b4 <_realloc_r+0x304>
 8008892:	f105 0210 	add.w	r2, r5, #16
 8008896:	f100 0310 	add.w	r3, r0, #16
 800889a:	6929      	ldr	r1, [r5, #16]
 800889c:	e6cf      	b.n	800863e <_realloc_r+0x8e>
 800889e:	692a      	ldr	r2, [r5, #16]
 80088a0:	f8cb 2018 	str.w	r2, [fp, #24]
 80088a4:	696a      	ldr	r2, [r5, #20]
 80088a6:	f8cb 201c 	str.w	r2, [fp, #28]
 80088aa:	69a9      	ldr	r1, [r5, #24]
 80088ac:	f10b 0220 	add.w	r2, fp, #32
 80088b0:	3518      	adds	r5, #24
 80088b2:	e707      	b.n	80086c4 <_realloc_r+0x114>
 80088b4:	692b      	ldr	r3, [r5, #16]
 80088b6:	6103      	str	r3, [r0, #16]
 80088b8:	696b      	ldr	r3, [r5, #20]
 80088ba:	6143      	str	r3, [r0, #20]
 80088bc:	69a9      	ldr	r1, [r5, #24]
 80088be:	f105 0218 	add.w	r2, r5, #24
 80088c2:	f100 0318 	add.w	r3, r0, #24
 80088c6:	e6ba      	b.n	800863e <_realloc_r+0x8e>
 80088c8:	4652      	mov	r2, sl
 80088ca:	e76e      	b.n	80087aa <_realloc_r+0x1fa>
 80088cc:	4629      	mov	r1, r5
 80088ce:	4650      	mov	r0, sl
 80088d0:	9301      	str	r3, [sp, #4]
 80088d2:	f7ff fe05 	bl	80084e0 <memmove>
 80088d6:	9b01      	ldr	r3, [sp, #4]
 80088d8:	e76c      	b.n	80087b4 <_realloc_r+0x204>
 80088da:	f8cb 1010 	str.w	r1, [fp, #16]
 80088de:	68e9      	ldr	r1, [r5, #12]
 80088e0:	f8cb 1014 	str.w	r1, [fp, #20]
 80088e4:	2a24      	cmp	r2, #36	; 0x24
 80088e6:	d004      	beq.n	80088f2 <_realloc_r+0x342>
 80088e8:	6929      	ldr	r1, [r5, #16]
 80088ea:	f10b 0218 	add.w	r2, fp, #24
 80088ee:	3510      	adds	r5, #16
 80088f0:	e75b      	b.n	80087aa <_realloc_r+0x1fa>
 80088f2:	692a      	ldr	r2, [r5, #16]
 80088f4:	f8cb 2018 	str.w	r2, [fp, #24]
 80088f8:	696a      	ldr	r2, [r5, #20]
 80088fa:	f8cb 201c 	str.w	r2, [fp, #28]
 80088fe:	69a9      	ldr	r1, [r5, #24]
 8008900:	f10b 0220 	add.w	r2, fp, #32
 8008904:	3518      	adds	r5, #24
 8008906:	e750      	b.n	80087aa <_realloc_r+0x1fa>
 8008908:	20000db4 	.word	0x20000db4
 800890c:	00000000 	.word	0x00000000
 8008910:	63617453 	.word	0x63617453
 8008914:	6d73206b 	.word	0x6d73206b
 8008918:	69687361 	.word	0x69687361
 800891c:	6420676e 	.word	0x6420676e
 8008920:	63657465 	.word	0x63657465
 8008924:	00646574 	.word	0x00646574
	...

08008930 <__FUNCTION__.9880>:
 8008930:	44646854 63657465 6e6f6974 00000000     ThdDetection....

08008940 <__func__.7153>:
 8008940:	79536863 6c6e5573 006b636f 00000000     chSysUnlock.....
 8008950:	61766e49 2064696c 65636361 74207373     Invalid access t
 8008960:	7025206f 63702820 2970253d 00000000     o %p (pc=%p)....
 8008970:	706d754a 74206465 4e58206f 67657220     Jumped to XN reg
 8008980:	206e6f69 28207025 745f726c 253d6468     ion %p (lr_thd=%
 8008990:	00002970 4d6d654d 67616e61 61485f65     p)..MemManage_Ha
 80089a0:	656c646e 00000072 00000000 00000000     ndler...........

080089b0 <__func__.10923>:
 80089b0:	7262735f 00725f6b 00000000 00000000     _sbrk_r.........
 80089c0:	61686e75 656c646e 78652064 74706563     unhandled except
 80089d0:	006e6f69 00000000 00000000 00000000     ion.............
 80089e0:	38235653 00000000 00000000 00000000     SV#8............
 80089f0:	39235653 00000000 00000000 00000000     SV#9............
 8008a00:	34235653 00000000 00000000 00000000     SV#4............
 8008a10:	36235653 00000000 00000000 00000000     SV#6............
 8008a20:	35235653 00000000 00000000 00000000     SV#5............
 8008a30:	37235653 00000000 00000000 00000000     SV#7............
 8008a40:	31235653 00000030 00000000 00000000     SV#10...........
 8008a50:	31235653 00000031 00000000 00000000     SV#11...........

08008a60 <__func__.7857>:
 8008a60:	54566863 65536f44 00004974 00000000     chVTDoSetI......

08008a70 <__func__.7864>:
 8008a70:	54566863 65526f44 49746573 00000000     chVTDoResetI....

08008a80 <__func__.7854>:
 8008a80:	63536863 61655268 00497964 00000000     chSchReadyI.....
 8008a90:	63617473 766f206b 6c667265 0000776f     stack overflow..

08008aa0 <__func__.7153>:
 8008aa0:	79536863 6c6e5573 006b636f 00000000     chSysUnlock.....

08008ab0 <__func__.7324>:
 8008ab0:	68546863 656c5364 00537065 00000000     chThdSleepS.....

08008ac0 <__func__.7336>:
 8008ac0:	68546863 446f4464 65757165 654e6575     chThdDoDequeueNe
 8008ad0:	00497478 00000000 00000000 00000000     xtI.............

08008ae0 <__func__.7866>:
 8008ae0:	68546863 65724364 49657461 00000000     chThdCreateI....

08008af0 <__func__.7910>:
 8008af0:	68546863 69784564 00005374 00000000     chThdExitS......

08008b00 <__func__.7932>:
 8008b00:	68546863 73655264 49656d75 00000000     chThdResumeI....

08008b10 <__func__.7153>:
 8008b10:	79536863 6c6e5573 006b636f 00000000     chSysUnlock.....

08008b20 <__func__.7857>:
 8008b20:	744d6863 636f4c78 0000536b 00000000     chMtxLockS......

08008b30 <__func__.7880>:
 8008b30:	744d6863 6c6e5578 006b636f 00000000     chMtxUnlock.....

08008b40 <__func__.7874>:
 8008b40:	76456863 6f724274 61636461 6c467473     chEvtBroadcastFl
 8008b50:	49736761 00000000 00000000 00000000     agsI............

08008b60 <__func__.7891>:
 8008b60:	76456863 67695374 496c616e 00000000     chEvtSignalI....

08008b70 <__func__.7153>:
 8008b70:	79536863 6c6e5573 006b636f 00000000     chSysUnlock.....

08008b80 <__func__.9898>:
 8008b80:	6e496473 696d6f63 6144676e 00496174     sdIncomingDataI.

08008b90 <__func__.10348>:
 8008b90:	53627375 74726174 65636552 49657669     usbStartReceiveI
	...

08008bb0 <__func__.10353>:
 8008bb0:	53627375 74726174 6e617254 74696d73     usbStartTransmit
 8008bc0:	00000049 00000000 00000000 00000000     I...............

08008bd0 <__func__.10387>:
 8008bd0:	6273755f 3070655f 00006e69 00000000     _usb_ep0in......

08008be0 <__func__.10401>:
 8008be0:	6273755f 3070655f 0074756f 00000000     _usb_ep0out.....

08008bf0 <active_status>:
	...

08008c00 <halted_status>:
 8008c00:	00000001 00000000 00000000 00000000     ................

08008c10 <zero_status>:
	...

08008c20 <__func__.10294>:
 8008c20:	5f67746f 5f6d6172 6f6c6c61 00000063     otg_ram_alloc...

08008c30 <ep0config>:
 8008c30:	00000000 08002cc1 08003011 08003131     .....,...0..11..
 8008c40:	00400040 20001f18 20001f18 00000001     @.@.... ... ....
 8008c50:	20001f2c 00000000 00000000 00000000     ,.. ............
 8008c60:	00000043 49534f50 00000058 00000000     C...POSIX.......
 8008c70:	0000002e 00000000 00000000 00000000     ................
 8008c80:	00464e49 00666e69 004e414e 006e616e     INF.inf.NAN.nan.
 8008c90:	33323130 37363534 42413938 46454443     0123456789ABCDEF
 8008ca0:	00000000 33323130 37363534 62613938     ....0123456789ab
 8008cb0:	66656463 00000000 6c756e28 0000296c     cdef....(null)..

08008cc0 <blanks.8551>:
 8008cc0:	20202020 20202020 20202020 20202020                     

08008cd0 <zeroes.8552>:
 8008cd0:	30303030 30303030 30303030 30303030     0000000000000000

08008ce0 <_ctype_>:
 8008ce0:	20202000 20202020 28282020 20282828     .         ((((( 
 8008cf0:	20202020 20202020 20202020 20202020                     
 8008d00:	10108820 10101010 10101010 10101010      ...............
 8008d10:	04040410 04040404 10040404 10101010     ................
 8008d20:	41411010 41414141 01010101 01010101     ..AAAAAA........
 8008d30:	01010101 01010101 01010101 10101010     ................
 8008d40:	42421010 42424242 02020202 02020202     ..BBBBBB........
 8008d50:	02020202 02020202 02020202 10101010     ................
 8008d60:	00000020 00000000 00000000 00000000      ...............
	...
 8008df0:	69666e49 7974696e 00000000 004e614e     Infinity....NaN.

08008e00 <__mprec_bigtens>:
 8008e00:	37e08000 4341c379 b5056e17 4693b8b5     ...7y.AC.n.....F
 8008e10:	e93ff9f5 4d384f03 f9301d32 5a827748     ..?..O8M2.0.Hw.Z
 8008e20:	7f73bf3c 75154fdd 00000000 00000000     <.s..O.u........

08008e30 <__mprec_tens>:
 8008e30:	00000000 3ff00000 00000000 40240000     .......?......$@
 8008e40:	00000000 40590000 00000000 408f4000     ......Y@.....@.@
 8008e50:	00000000 40c38800 00000000 40f86a00     .......@.....j.@
 8008e60:	00000000 412e8480 00000000 416312d0     .......A......cA
 8008e70:	00000000 4197d784 00000000 41cdcd65     .......A....e..A
 8008e80:	20000000 4202a05f e8000000 42374876     ... _..B....vH7B
 8008e90:	a2000000 426d1a94 e5400000 42a2309c     ......mB..@..0.B
 8008ea0:	1e900000 42d6bcc4 26340000 430c6bf5     .......B..4&.k.C
 8008eb0:	37e08000 4341c379 85d8a000 43763457     ...7y.AC....W4vC
 8008ec0:	674ec800 43abc16d 60913d00 43e158e4     ..Ngm..C.=.`.X.C
 8008ed0:	78b58c40 4415af1d d6e2ef50 444b1ae4     @..x...DP.....KD
 8008ee0:	064dd592 4480f0cf c7e14af6 44b52d02     ..M....D.J...-.D
 8008ef0:	79d99db4 44ea7843 00000000 00000000     ...yCx.D........

08008f00 <p05.7367>:
 8008f00:	00000005 00000019 0000007d              ........}...
